
lights.elf:     file format elf32-littlenios2
lights.elf
architecture: nios2:r1, flags 0x00000112:
EXEC_P, HAS_SYMS, D_PAGED
start address 0x08000244

Program Header:
    LOAD off    0x00001000 vaddr 0x08000000 paddr 0x08000000 align 2**12
         filesz 0x00000020 memsz 0x00000020 flags r-x
    LOAD off    0x00001020 vaddr 0x08000020 paddr 0x08000020 align 2**12
         filesz 0x00006d58 memsz 0x00006d58 flags r-x
    LOAD off    0x00007d78 vaddr 0x08006d78 paddr 0x080087e4 align 2**12
         filesz 0x00001a6c memsz 0x00001a6c flags rw-
    LOAD off    0x0000a250 vaddr 0x0800a250 paddr 0x0800a250 align 2**12
         filesz 0x00000000 memsz 0x00000190 flags rw-

Sections:
Idx Name          Size      VMA       LMA       File off  Algn
  0 .entry        00000020  08000000  08000000  00001000  2**5
                  CONTENTS, ALLOC, LOAD, READONLY, CODE
  1 .exceptions   00000224  08000020  08000020  00001020  2**2
                  CONTENTS, ALLOC, LOAD, READONLY, CODE
  2 .text         00006aa0  08000244  08000244  00001244  2**2
                  CONTENTS, ALLOC, LOAD, READONLY, CODE
  3 .rodata       00000094  08006ce4  08006ce4  00007ce4  2**2
                  CONTENTS, ALLOC, LOAD, READONLY, DATA
  4 .rwdata       00001a6c  08006d78  080087e4  00007d78  2**2
                  CONTENTS, ALLOC, LOAD, DATA, SMALL_DATA
  5 .bss          00000190  0800a250  0800a250  0000a250  2**2
                  ALLOC, SMALL_DATA
  6 .new_sdram_controller_0 00000000  0800a3e0  0800a3e0  000097e4  2**0
                  CONTENTS
  7 .comment      00000023  00000000  00000000  000097e4  2**0
                  CONTENTS, READONLY
  8 .debug_aranges 00000a98  00000000  00000000  00009808  2**3
                  CONTENTS, READONLY, DEBUGGING
  9 .debug_info   00017037  00000000  00000000  0000a2a0  2**0
                  CONTENTS, READONLY, DEBUGGING
 10 .debug_abbrev 000063b6  00000000  00000000  000212d7  2**0
                  CONTENTS, READONLY, DEBUGGING
 11 .debug_line   00006ebd  00000000  00000000  0002768d  2**0
                  CONTENTS, READONLY, DEBUGGING
 12 .debug_frame  000016bc  00000000  00000000  0002e54c  2**2
                  CONTENTS, READONLY, DEBUGGING
 13 .debug_str    00002832  00000000  00000000  0002fc08  2**0
                  CONTENTS, READONLY, DEBUGGING
 14 .debug_loc    00004b8c  00000000  00000000  0003243a  2**0
                  CONTENTS, READONLY, DEBUGGING
 15 .debug_alt_sim_info 00000060  00000000  00000000  00036fc8  2**2
                  CONTENTS, READONLY, DEBUGGING
 16 .debug_ranges 000006b0  00000000  00000000  00037028  2**3
                  CONTENTS, READONLY, DEBUGGING
 17 .thread_model 00000003  00000000  00000000  00039cfa  2**0
                  CONTENTS, READONLY
 18 .cpu          0000000c  00000000  00000000  00039cfd  2**0
                  CONTENTS, READONLY
 19 .qsys         00000001  00000000  00000000  00039d09  2**0
                  CONTENTS, READONLY
 20 .simulation_enabled 00000001  00000000  00000000  00039d0a  2**0
                  CONTENTS, READONLY
 21 .stderr_dev   0000000b  00000000  00000000  00039d0b  2**0
                  CONTENTS, READONLY
 22 .stdin_dev    0000000b  00000000  00000000  00039d16  2**0
                  CONTENTS, READONLY
 23 .stdout_dev   0000000b  00000000  00000000  00039d21  2**0
                  CONTENTS, READONLY
 24 .sopc_system_name 0000000b  00000000  00000000  00039d2c  2**0
                  CONTENTS, READONLY
 25 .quartus_project_dir 00000019  00000000  00000000  00039d37  2**0
                  CONTENTS, READONLY
 26 .jdi          00005177  00000000  00000000  00039d50  2**0
                  CONTENTS, READONLY
 27 .sopcinfo     0006c48d  00000000  00000000  0003eec7  2**0
                  CONTENTS, READONLY
SYMBOL TABLE:
08000000 l    d  .entry	00000000 .entry
08000020 l    d  .exceptions	00000000 .exceptions
08000244 l    d  .text	00000000 .text
08006ce4 l    d  .rodata	00000000 .rodata
08006d78 l    d  .rwdata	00000000 .rwdata
0800a250 l    d  .bss	00000000 .bss
0800a3e0 l    d  .new_sdram_controller_0	00000000 .new_sdram_controller_0
00000000 l    d  .comment	00000000 .comment
00000000 l    d  .debug_aranges	00000000 .debug_aranges
00000000 l    d  .debug_info	00000000 .debug_info
00000000 l    d  .debug_abbrev	00000000 .debug_abbrev
00000000 l    d  .debug_line	00000000 .debug_line
00000000 l    d  .debug_frame	00000000 .debug_frame
00000000 l    d  .debug_str	00000000 .debug_str
00000000 l    d  .debug_loc	00000000 .debug_loc
00000000 l    d  .debug_alt_sim_info	00000000 .debug_alt_sim_info
00000000 l    d  .debug_ranges	00000000 .debug_ranges
00000000 l    df *ABS*	00000000 ../lights_bsp//obj/HAL/src/crt0.o
0800028c l       .text	00000000 alt_after_alt_main
00000000 l    df *ABS*	00000000 alt_irq_handler.c
00000000 l    df *ABS*	00000000 alt_instruction_exception_entry.c
00000000 l    df *ABS*	00000000 hello_world.c
0800a27c l     O .bss	0000001c binarr.3187
00000000 l    df *ABS*	00000000 lib2-divmod.c
00000000 l    df *ABS*	00000000 puts.c
00000000 l    df *ABS*	00000000 rand.c
00000000 l    df *ABS*	00000000 strlen.c
00000000 l    df *ABS*	00000000 findfp.c
080019b4 l     F .text	00000008 __fp_unlock
080019c8 l     F .text	0000019c __sinit.part.1
08001b64 l     F .text	00000008 __fp_lock
00000000 l    df *ABS*	00000000 fvwrite.c
00000000 l    df *ABS*	00000000 fwalk.c
00000000 l    df *ABS*	00000000 impure.c
08006d78 l     O .rwdata	00000424 impure_data
00000000 l    df *ABS*	00000000 mallocr.c
00000000 l    df *ABS*	00000000 memchr.c
00000000 l    df *ABS*	00000000 memcpy.c
00000000 l    df *ABS*	00000000 memmove.c
00000000 l    df *ABS*	00000000 memset.c
00000000 l    df *ABS*	00000000 mallocr.c
00000000 l    df *ABS*	00000000 sbrkr.c
00000000 l    df *ABS*	00000000 stdio.c
00000000 l    df *ABS*	00000000 writer.c
00000000 l    df *ABS*	00000000 wsetup.c
00000000 l    df *ABS*	00000000 closer.c
00000000 l    df *ABS*	00000000 fclose.c
00000000 l    df *ABS*	00000000 fflush.c
00000000 l    df *ABS*	00000000 mallocr.c
00000000 l    df *ABS*	00000000 int_errno.c
00000000 l    df *ABS*	00000000 lseekr.c
00000000 l    df *ABS*	00000000 makebuf.c
00000000 l    df *ABS*	00000000 readr.c
00000000 l    df *ABS*	00000000 fstatr.c
00000000 l    df *ABS*	00000000 isattyr.c
00000000 l    df *ABS*	00000000 libgcc2.c
00000000 l    df *ABS*	00000000 alt_close.c
080044bc l     F .text	0000003c alt_get_errno
00000000 l    df *ABS*	00000000 alt_dev.c
080045c8 l     F .text	0000002c alt_dev_null_write
00000000 l    df *ABS*	00000000 alt_errno.c
00000000 l    df *ABS*	00000000 alt_fstat.c
080045f4 l     F .text	0000003c alt_get_errno
00000000 l    df *ABS*	00000000 alt_isatty.c
080046e0 l     F .text	0000003c alt_get_errno
00000000 l    df *ABS*	00000000 alt_load.c
080047c0 l     F .text	00000068 alt_load_section
00000000 l    df *ABS*	00000000 alt_lseek.c
080048ac l     F .text	0000003c alt_get_errno
00000000 l    df *ABS*	00000000 alt_main.c
00000000 l    df *ABS*	00000000 alt_malloc_lock.c
00000000 l    df *ABS*	00000000 alt_read.c
08004a80 l     F .text	0000003c alt_get_errno
00000000 l    df *ABS*	00000000 alt_release_fd.c
00000000 l    df *ABS*	00000000 alt_sbrk.c
080087d4 l     O .rwdata	00000004 heap_end
00000000 l    df *ABS*	00000000 alt_usleep.c
00000000 l    df *ABS*	00000000 alt_write.c
08004cfc l     F .text	0000003c alt_get_errno
00000000 l    df *ABS*	00000000 alt_sys_init.c
08004e30 l     F .text	00000034 alt_dev_reg
0800774c l     O .rwdata	00001060 jtag_uart_0
00000000 l    df *ABS*	00000000 altera_avalon_jtag_uart_fd.c
00000000 l    df *ABS*	00000000 altera_avalon_jtag_uart_init.c
08005108 l     F .text	0000020c altera_avalon_jtag_uart_irq
08005314 l     F .text	000000a0 altera_avalon_jtag_uart_timeout
00000000 l    df *ABS*	00000000 altera_avalon_jtag_uart_ioctl.c
00000000 l    df *ABS*	00000000 altera_avalon_jtag_uart_read.c
00000000 l    df *ABS*	00000000 altera_avalon_jtag_uart_write.c
00000000 l    df *ABS*	00000000 alt_alarm_start.c
00000000 l    df *ABS*	00000000 alt_busy_sleep.c
00000000 l    df *ABS*	00000000 alt_dcache_flush_all.c
00000000 l    df *ABS*	00000000 alt_dev_llist_insert.c
08005c18 l     F .text	0000003c alt_get_errno
00000000 l    df *ABS*	00000000 alt_do_ctors.c
00000000 l    df *ABS*	00000000 alt_do_dtors.c
00000000 l    df *ABS*	00000000 alt_icache_flush_all.c
00000000 l    df *ABS*	00000000 alt_iic.c
00000000 l    df *ABS*	00000000 alt_iic_isr_register.c
00000000 l    df *ABS*	00000000 alt_io_redirect.c
0800608c l     F .text	000000c4 alt_open_fd
00000000 l    df *ABS*	00000000 alt_irq_vars.c
00000000 l    df *ABS*	00000000 alt_open.c
080061cc l     F .text	0000003c alt_get_errno
08006208 l     F .text	000000c4 alt_file_locked
00000000 l    df *ABS*	00000000 alt_tick.c
00000000 l    df *ABS*	00000000 altera_nios2_gen2_irq.c
00000000 l    df *ABS*	00000000 alt_find_dev.c
00000000 l    df *ABS*	00000000 alt_find_file.c
00000000 l    df *ABS*	00000000 alt_get_fd.c
00000000 l    df *ABS*	00000000 alt_icache_flush.c
00000000 l    df *ABS*	00000000 atexit.c
00000000 l    df *ABS*	00000000 exit.c
00000000 l    df *ABS*	00000000 memcmp.c
00000000 l    df *ABS*	00000000 __atexit.c
00000000 l    df *ABS*	00000000 __call_atexit.c
00000000 l    df *ABS*	00000000 alt_exit.c
0800a278 g     O .bss	00000004 alt_instruction_exception_handler
08000330 g     F .text	000000a4 decToBinary
08004408 g     F .text	00000054 _isatty_r
080049bc g     F .text	0000007c alt_main
080017cc g     F .text	000000c0 _puts_r
0800a2e0 g     O .bss	00000100 alt_irq
08004130 g     F .text	00000060 _lseek_r
080087e4 g       *ABS*	00000000 __flash_rwdata_start
0800a3e0 g       *ABS*	00000000 __alt_heap_start
080036e4 g     F .text	0000005c __sseek
08001d04 g     F .text	00000010 __sinit
08001b6c g     F .text	00000068 __sfmoreglue
08004a5c g     F .text	00000024 __malloc_unlock
08002dd0 g     F .text	0000015c memmove
08001cec g     F .text	00000018 _cleanup
080065c4 g     F .text	00000024 altera_nios2_gen2_irq_init
08000000 g     F .entry	0000001c __reset
08000020 g       *ABS*	00000000 __flash_exceptions_start
080043ac g     F .text	0000005c _fstat_r
0800a25c g     O .bss	00000004 errno
08003660 g     F .text	00000008 __seofread
0800a264 g     O .bss	00000004 alt_argv
080107ac g       *ABS*	00000000 _gp
08004ccc g     F .text	00000030 usleep
080075cc g     O .rwdata	00000180 alt_fd_list
08000f50 g     F .text	00000144 randLights
080065e8 g     F .text	00000090 alt_find_dev
08002c88 g     F .text	00000148 memcpy
080019bc g     F .text	0000000c _cleanup_r
08006150 g     F .text	0000007c alt_io_redirect
08006ce4 g       *ABS*	00000000 __DTOR_END__
0800188c g     F .text	00000014 puts
080068b4 g     F .text	0000009c alt_exception_cause_generated_bad_addr
0800550c g     F .text	0000021c altera_avalon_jtag_uart_read
08001710 g     F .text	00000064 .hidden __udivsi3
0800471c g     F .text	000000a4 isatty
08006824 g     F .text	00000090 alt_icache_flush
0800a258 g     O .bss	00000004 __malloc_top_pad
08001d54 g     F .text	000004bc __sfvwrite_r
080035b8 g     F .text	00000054 _sbrk_r
0800434c g     F .text	00000060 _read_r
080087cc g     O .rwdata	00000004 alt_max_fd
08003950 g     F .text	000000f0 _fclose_r
08003ccc g     F .text	00000030 fflush
0800a254 g     O .bss	00000004 __malloc_max_sbrked_mem
080048e8 g     F .text	000000d4 lseek
080087ac g     O .rwdata	00000004 _global_impure_ptr
08003054 g     F .text	00000564 _realloc_r
0800a3e0 g       *ABS*	00000000 __bss_end
08005f9c g     F .text	000000f0 alt_iic_isr_register
080064bc g     F .text	00000108 alt_tick
08001d24 g     F .text	00000018 __fp_lock_all
08005f50 g     F .text	0000004c alt_ic_irq_enabled
0800a2c0 g     O .bss	00000020 hexCount
08006420 g     F .text	0000009c alt_alarm_stop
0800a26c g     O .bss	00000004 alt_irq_active
080000fc g     F .exceptions	000000d4 alt_irq_handler
080075a4 g     O .rwdata	00000028 alt_dev_null
08005bd0 g     F .text	00000048 alt_dcache_flush_all
080087e4 g       *ABS*	00000000 __ram_rwdata_end
080087c4 g     O .rwdata	00000008 alt_dev_list
08004d38 g     F .text	000000f8 write
08006d78 g       *ABS*	00000000 __ram_rodata_end
08004630 g     F .text	000000b0 fstat
08001774 g     F .text	00000058 .hidden __umodsi3
0800a3e0 g       *ABS*	00000000 end
08005048 g     F .text	000000c0 altera_avalon_jtag_uart_init
080001d0 g     F .exceptions	00000074 alt_instruction_exception_entry
08006ce4 g       *ABS*	00000000 __CTOR_LIST__
10000000 g       *ABS*	00000000 __alt_stack_pointer
08005728 g     F .text	00000224 altera_avalon_jtag_uart_write
08001d14 g     F .text	00000004 __sfp_lock_acquire
08002ba4 g     F .text	000000e4 memchr
08003e20 g     F .text	00000310 _free_r
08006b30 g     F .text	00000180 __call_exitprocs
080087b4 g     O .rwdata	00000004 __malloc_sbrk_base
08000244 g     F .text	0000004c _start
0800a270 g     O .bss	00000004 _alt_tick_rate
080018b8 g     F .text	00000064 rand
0800a274 g     O .bss	00000004 _alt_nticks
08004abc g     F .text	000000fc read
08004e9c g     F .text	00000048 alt_sys_init
08006a18 g     F .text	00000118 __register_exitproc
080053b4 g     F .text	00000068 altera_avalon_jtag_uart_close
08006d78 g       *ABS*	00000000 __ram_rwdata_start
08006ce4 g       *ABS*	00000000 __ram_rodata_start
0800a298 g     O .bss	00000028 __malloc_current_mallinfo
08004ee4 g     F .text	00000060 altera_avalon_jtag_uart_read_fd
08006780 g     F .text	000000a4 alt_get_fd
08005a78 g     F .text	00000158 alt_busy_sleep
080038fc g     F .text	00000054 _close_r
0800699c g     F .text	0000007c memcmp
08004fa4 g     F .text	00000050 altera_avalon_jtag_uart_close_fd
0800a3e0 g       *ABS*	00000000 __alt_stack_base
08004ff4 g     F .text	00000054 altera_avalon_jtag_uart_ioctl_fd
08001094 g     F .text	0000037c patternLights
080037a8 g     F .text	00000154 __swsetup_r
08001bd4 g     F .text	00000118 __sfp
0800719c g     O .rwdata	00000408 __malloc_av_
08001d20 g     F .text	00000004 __sinit_lock_release
0800360c g     F .text	00000054 __sread
08006678 g     F .text	00000108 alt_find_file
08005c54 g     F .text	000000a4 alt_dev_llist_insert
08004a38 g     F .text	00000024 __malloc_lock
08004c1c g     F .text	000000b0 sbrk
08003c70 g     F .text	0000005c _fflush_r
0800a250 g       *ABS*	00000000 __bss_start
08002f2c g     F .text	00000128 memset
08001410 g     F .text	00000208 main
0800a268 g     O .bss	00000004 alt_envp
0800a250 g     O .bss	00000004 __malloc_max_total_mem
08004f44 g     F .text	00000060 altera_avalon_jtag_uart_write_fd
080018a0 g     F .text	00000018 srand
08003740 g     F .text	00000008 __sclose
10000000 g       *ABS*	00000000 __alt_heap_limit
08003a40 g     F .text	00000014 fclose
08002398 g     F .text	0000080c _malloc_r
080087d0 g     O .rwdata	00000004 alt_errno
08002210 g     F .text	000000c4 _fwalk
08001618 g     F .text	00000084 .hidden __divsi3
08003cfc g     F .text	00000124 _malloc_trim_r
08006ce4 g       *ABS*	00000000 __CTOR_END__
08006ce4 g       *ABS*	00000000 __flash_rodata_start
08006ce4 g       *ABS*	00000000 __DTOR_LIST__
080003d4 g     F .text	00000b7c count
08004e64 g     F .text	00000038 alt_irq_init
08004bb8 g     F .text	00000064 alt_release_fd
08000290 g     F .text	000000a0 clearDisplays
08006950 g     F .text	00000014 atexit
08003748 g     F .text	00000060 _write_r
080087b0 g     O .rwdata	00000004 _impure_ptr
0800a260 g     O .bss	00000004 alt_argc
08003a54 g     F .text	0000021c __sflush_r
08005d58 g     F .text	00000060 _do_dtors
08000020 g       .exceptions	00000000 alt_irq_entry
08001d3c g     F .text	00000018 __fp_unlock_all
080087bc g     O .rwdata	00000008 alt_fs_list
08000020 g       *ABS*	00000000 __ram_exceptions_start
08000000 g       *ABS*	00000000 __alt_mem_new_sdram_controller_0
08005dec g     F .text	00000050 alt_ic_isr_register
080087e4 g       *ABS*	00000000 _edata
0800a3e0 g       *ABS*	00000000 _end
08000244 g       *ABS*	00000000 __ram_exceptions_end
0800541c g     F .text	000000f0 altera_avalon_jtag_uart_ioctl
08005ec4 g     F .text	0000008c alt_ic_irq_disable
08003668 g     F .text	0000007c __swrite
080087b8 g     O .rwdata	00000004 __malloc_trim_threshold
08006964 g     F .text	00000038 exit
080022d4 g     F .text	000000c4 _fwalk_reent
0800169c g     F .text	00000074 .hidden __modsi3
10000000 g       *ABS*	00000000 __alt_data_end
08000020 g     F .exceptions	00000000 alt_exception
08001d18 g     F .text	00000004 __sfp_lock_release
08006cb0 g     F .text	00000034 _exit
0800594c g     F .text	0000012c alt_alarm_start
0800445c g     F .text	00000060 .hidden __muldi3
08004190 g     F .text	000001bc __smakebuf_r
0800191c g     F .text	00000098 strlen
080062cc g     F .text	00000154 open
08005db8 g     F .text	00000034 alt_icache_flush_all
080087d8 g     O .rwdata	00000004 alt_priority_mask
08005e3c g     F .text	00000088 alt_ic_irq_enable
080087dc g     O .rwdata	00000008 alt_alarm_list
08005cf8 g     F .text	00000060 _do_ctors
080044f8 g     F .text	000000d0 close
08004828 g     F .text	00000084 alt_load
08001d1c g     F .text	00000004 __sinit_lock_acquire



Disassembly of section .entry:

08000000 <__reset>:
#if NIOS2_ICACHE_SIZE > 0 && defined(ALT_ALLOW_CODE_AT_RESET) && (!defined(ALT_SIM_OPTIMIZE) || defined(NIOS2_ECC_PRESENT))
    /* Assume the instruction cache size is always a power of two. */
#if NIOS2_ICACHE_SIZE > 0x8000
    movhi r2, %hi(NIOS2_ICACHE_SIZE)
#else
    movui r2, NIOS2_ICACHE_SIZE
 8000000:	00840014 	movui	r2,4096
#endif

0:
    initi r2
 8000004:	1001483a 	initi	r2
    addi r2, r2, -NIOS2_ICACHE_LINE_SIZE
 8000008:	10bff804 	addi	r2,r2,-32
    bgt r2, zero, 0b
 800000c:	00bffd16 	blt	zero,r2,8000004 <__reset+0x4>
 * Jump to the _start entry point in the .text section if reset code
 * is allowed or if optimizing for RTL simulation.
 */
#if defined(ALT_ALLOW_CODE_AT_RESET) || defined(ALT_SIM_OPTIMIZE)
    /* Jump to the _start entry point in the .text section. */
    movhi r1, %hi(_start)
 8000010:	00420034 	movhi	at,2048
    ori r1, r1, %lo(_start)
 8000014:	08409114 	ori	at,at,580
    jmp r1
 8000018:	0800683a 	jmp	at
 800001c:	00000000 	call	0 <__alt_mem_new_sdram_controller_0-0x8000000>

Disassembly of section .exceptions:

08000020 <alt_exception>:

#else /* ALT_EXCEPTION_STACK disabled */
        /* 
         * Reserve space on normal stack for registers about to be pushed.
         */
        addi  sp, sp, -76
 8000020:	deffed04 	addi	sp,sp,-76
         * documentation for details).
         *
         * Leave a gap in the stack frame at 4(sp) for the muldiv handler to
         * store zero into.
         */
        stw   ra,  0(sp)
 8000024:	dfc00015 	stw	ra,0(sp)
        stw   r1,   8(sp)
 8000028:	d8400215 	stw	at,8(sp)
        stw   r2,  12(sp)
 800002c:	d8800315 	stw	r2,12(sp)
        stw   r3,  16(sp)
 8000030:	d8c00415 	stw	r3,16(sp)
        stw   r4,  20(sp)
 8000034:	d9000515 	stw	r4,20(sp)
        stw   r5,  24(sp)
 8000038:	d9400615 	stw	r5,24(sp)
        stw   r6,  28(sp)
 800003c:	d9800715 	stw	r6,28(sp)
        stw   r7,  32(sp)
 8000040:	d9c00815 	stw	r7,32(sp)
        rdctl r5, estatus   /* Read early to avoid usage stall */
 8000044:	000b307a 	rdctl	r5,estatus
        stw   r8,  36(sp)
 8000048:	da000915 	stw	r8,36(sp)
        stw   r9,  40(sp)
 800004c:	da400a15 	stw	r9,40(sp)
        stw   r10, 44(sp)
 8000050:	da800b15 	stw	r10,44(sp)
        stw   r11, 48(sp)
 8000054:	dac00c15 	stw	r11,48(sp)
        stw   r12, 52(sp)
 8000058:	db000d15 	stw	r12,52(sp)
        stw   r13, 56(sp)
 800005c:	db400e15 	stw	r13,56(sp)
        stw   r14, 60(sp)
 8000060:	db800f15 	stw	r14,60(sp)
        stw   r15, 64(sp)
 8000064:	dbc01015 	stw	r15,64(sp)
        /*
         * ea-4 contains the address of the instruction being executed
         * when the exception occured. For interrupt exceptions, we will
         * will be re-issue the isntruction. Store it in 72(sp)
         */
        stw   r5,  68(sp)  /* estatus */
 8000068:	d9401115 	stw	r5,68(sp)
        addi  r15, ea, -4  /* instruction that caused exception */
 800006c:	ebffff04 	addi	r15,ea,-4
        stw   r15,  72(sp)
 8000070:	dbc01215 	stw	r15,72(sp)
#else
        /*
         * Test to see if the exception was a software exception or caused 
         * by an external interrupt, and vector accordingly.
         */
        rdctl r4, ipending
 8000074:	0009313a 	rdctl	r4,ipending
        andi  r2, r5, 1
 8000078:	2880004c 	andi	r2,r5,1
        beq   r2, zero, .Lnot_irq
 800007c:	10000326 	beq	r2,zero,800008c <alt_exception+0x6c>
        beq   r4, zero, .Lnot_irq
 8000080:	20000226 	beq	r4,zero,800008c <alt_exception+0x6c>
        /*
         * Now that all necessary registers have been preserved, call 
         * alt_irq_handler() to process the interrupts.
         */

        call alt_irq_handler
 8000084:	80000fc0 	call	80000fc <alt_irq_handler>

        .section .exceptions.irqreturn, "xa"

        br    .Lexception_exit
 8000088:	00000706 	br	80000a8 <alt_exception+0x88>
         * upon completion, so we write ea (address of instruction *after*
         * the one where the exception occured) into 72(sp). The actual
         * instruction that caused the exception is written in r2, which these
         * handlers will utilize.
         */
        stw ea, 72(sp) /* EA is PC+4 so will skip over instruction causing exception */
 800008c:	df401215 	stw	ea,72(sp)
.Lunknown_16bit:
        addi.n r4, r4, 2 /* Need PC+2 to skip over instruction causing exception */
        stw r4, 72(sp)

#else /* CDX is not Enabled and all instructions are 32bits */
        ldw r2, -4(ea) /* Instruction value that caused exception */
 8000090:	e8bfff17 	ldw	r2,-4(ea)
         * debugger is present) or go into an infinite loop since the
         * handling behavior is undefined; in that case we will not return here.
         */

        /* Load exception-causing address as first argument (r4) */
        addi   r4, ea, -4
 8000094:	e93fff04 	addi	r4,ea,-4

        /* Call the instruction-exception entry */
        call   alt_instruction_exception_entry
 8000098:	80001d00 	call	80001d0 <alt_instruction_exception_entry>
         * instruction
         *
         * Return code was 0: Skip. The instruction after the exception is
         * already stored in 72(sp).
         */
        bne   r2, r0, .Lexception_exit
 800009c:	1000021e 	bne	r2,zero,80000a8 <alt_exception+0x88>

        /*
         * Otherwise, modify 72(sp) to re-issue the instruction that caused the
         * exception.
         */
        addi  r15, ea, -4  /* instruction that caused exception */
 80000a0:	ebffff04 	addi	r15,ea,-4
        stw   r15,  72(sp)
 80000a4:	dbc01215 	stw	r15,72(sp)
        /* 
         * Restore the saved registers, so that all general purpose registers 
         * have been restored to their state at the time the interrupt occured.
         */

        ldw   r5,  68(sp)
 80000a8:	d9401117 	ldw	r5,68(sp)
        ldw   ea,  72(sp)  /* This becomes the PC once eret is executed */
 80000ac:	df401217 	ldw	ea,72(sp)
        ldw   ra,   0(sp)
 80000b0:	dfc00017 	ldw	ra,0(sp)

        wrctl estatus, r5
 80000b4:	2801707a 	wrctl	estatus,r5

        ldw   r1,   8(sp)
 80000b8:	d8400217 	ldw	at,8(sp)
        ldw   r2,  12(sp)
 80000bc:	d8800317 	ldw	r2,12(sp)
        ldw   r3,  16(sp)
 80000c0:	d8c00417 	ldw	r3,16(sp)
        ldw   r4,  20(sp)
 80000c4:	d9000517 	ldw	r4,20(sp)
        ldw   r5,  24(sp)
 80000c8:	d9400617 	ldw	r5,24(sp)
        ldw   r6,  28(sp)
 80000cc:	d9800717 	ldw	r6,28(sp)
        ldw   r7,  32(sp)
 80000d0:	d9c00817 	ldw	r7,32(sp)

#if defined(ALT_EXCEPTION_STACK) && defined(ALT_STACK_CHECK)
        ldw   et, %gprel(alt_exception_old_stack_limit)(gp)
#endif

        ldw   r8,  36(sp)
 80000d4:	da000917 	ldw	r8,36(sp)
        ldw   r9,  40(sp)
 80000d8:	da400a17 	ldw	r9,40(sp)
        ldw   r10, 44(sp)
 80000dc:	da800b17 	ldw	r10,44(sp)
        ldw   r11, 48(sp)
 80000e0:	dac00c17 	ldw	r11,48(sp)
        ldw   r12, 52(sp)
 80000e4:	db000d17 	ldw	r12,52(sp)
        ldw   r13, 56(sp)
 80000e8:	db400e17 	ldw	r13,56(sp)
        ldw   r14, 60(sp)
 80000ec:	db800f17 	ldw	r14,60(sp)
        ldw   r15, 64(sp)
 80000f0:	dbc01017 	ldw	r15,64(sp)
        stw   et, %gprel(alt_stack_limit_value)(gp)
        stw   zero, %gprel(alt_exception_old_stack_limit)(gp)
#endif /* ALT_STACK_CHECK */
        ldw   sp,  76(sp)
#else /* ALT_EXCEPTION_STACK disabled */
        addi  sp, sp, 76
 80000f4:	dec01304 	addi	sp,sp,76

        /*
         * Return to the interrupted instruction.
         */

        eret
 80000f8:	ef80083a 	eret

080000fc <alt_irq_handler>:
 * instruction is present if the macro ALT_CI_INTERRUPT_VECTOR defined.
 */

void alt_irq_handler (void) __attribute__ ((section (".exceptions")));
void alt_irq_handler (void)
{
 80000fc:	defff904 	addi	sp,sp,-28
 8000100:	dfc00615 	stw	ra,24(sp)
 8000104:	df000515 	stw	fp,20(sp)
 8000108:	df000504 	addi	fp,sp,20
  
  /*
   * Notify the operating system that we are at interrupt level.
   */ 
  
  ALT_OS_INT_ENTER();
 800010c:	0001883a 	nop
#ifndef NIOS2_EIC_PRESENT
static ALT_INLINE alt_u32 ALT_ALWAYS_INLINE alt_irq_pending (void)
{
  alt_u32 active;

  NIOS2_READ_IPENDING (active);
 8000110:	0005313a 	rdctl	r2,ipending
 8000114:	e0bffe15 	stw	r2,-8(fp)

  return active;
 8000118:	e0bffe17 	ldw	r2,-8(fp)
   * Consider the case where the high priority interupt is asserted during
   * the interrupt entry sequence for a lower priority interrupt to see why
   * this is the case.
   */

  active = alt_irq_pending ();
 800011c:	e0bffb15 	stw	r2,-20(fp)

  do
  {
    i = 0;
 8000120:	e03ffd15 	stw	zero,-12(fp)
    mask = 1;
 8000124:	00800044 	movi	r2,1
 8000128:	e0bffc15 	stw	r2,-16(fp)
     * called to clear the interrupt condition.
     */

    do
    {
      if (active & mask)
 800012c:	e0fffb17 	ldw	r3,-20(fp)
 8000130:	e0bffc17 	ldw	r2,-16(fp)
 8000134:	1884703a 	and	r2,r3,r2
 8000138:	10001426 	beq	r2,zero,800018c <alt_irq_handler+0x90>
      { 
#ifdef ALT_ENHANCED_INTERRUPT_API_PRESENT
        alt_irq[i].handler(alt_irq[i].context); 
 800013c:	00820074 	movhi	r2,2049
 8000140:	10a8b804 	addi	r2,r2,-23840
 8000144:	e0fffd17 	ldw	r3,-12(fp)
 8000148:	180690fa 	slli	r3,r3,3
 800014c:	10c5883a 	add	r2,r2,r3
 8000150:	10c00017 	ldw	r3,0(r2)
 8000154:	00820074 	movhi	r2,2049
 8000158:	10a8b804 	addi	r2,r2,-23840
 800015c:	e13ffd17 	ldw	r4,-12(fp)
 8000160:	200890fa 	slli	r4,r4,3
 8000164:	1105883a 	add	r2,r2,r4
 8000168:	10800104 	addi	r2,r2,4
 800016c:	10800017 	ldw	r2,0(r2)
 8000170:	1009883a 	mov	r4,r2
 8000174:	183ee83a 	callr	r3
#else
        alt_irq[i].handler(alt_irq[i].context, i); 
#endif
        break;
 8000178:	0001883a 	nop
#ifndef NIOS2_EIC_PRESENT
static ALT_INLINE alt_u32 ALT_ALWAYS_INLINE alt_irq_pending (void)
{
  alt_u32 active;

  NIOS2_READ_IPENDING (active);
 800017c:	0005313a 	rdctl	r2,ipending
 8000180:	e0bfff15 	stw	r2,-4(fp)

  return active;
 8000184:	e0bfff17 	ldw	r2,-4(fp)
 8000188:	00000706 	br	80001a8 <alt_irq_handler+0xac>
      }
      mask <<= 1;
 800018c:	e0bffc17 	ldw	r2,-16(fp)
 8000190:	1085883a 	add	r2,r2,r2
 8000194:	e0bffc15 	stw	r2,-16(fp)
      i++;
 8000198:	e0bffd17 	ldw	r2,-12(fp)
 800019c:	10800044 	addi	r2,r2,1
 80001a0:	e0bffd15 	stw	r2,-12(fp)

    } while (1);
 80001a4:	003fe106 	br	800012c <alt_irq_handler+0x30>

    active = alt_irq_pending ();
 80001a8:	e0bffb15 	stw	r2,-20(fp)
    
  } while (active);
 80001ac:	e0bffb17 	ldw	r2,-20(fp)
 80001b0:	103fdb1e 	bne	r2,zero,8000120 <alt_irq_handler+0x24>

  /*
   * Notify the operating system that interrupt processing is complete.
   */ 

  ALT_OS_INT_EXIT();
 80001b4:	0001883a 	nop
}
 80001b8:	0001883a 	nop
 80001bc:	e037883a 	mov	sp,fp
 80001c0:	dfc00117 	ldw	ra,4(sp)
 80001c4:	df000017 	ldw	fp,0(sp)
 80001c8:	dec00204 	addi	sp,sp,8
 80001cc:	f800283a 	ret

080001d0 <alt_instruction_exception_entry>:
 * that handler if it has been registered. Absent a handler, it will
 * break break or hang as discussed below.
 */
int 
alt_instruction_exception_entry (alt_u32 exception_pc)
{
 80001d0:	defffb04 	addi	sp,sp,-20
 80001d4:	dfc00415 	stw	ra,16(sp)
 80001d8:	df000315 	stw	fp,12(sp)
 80001dc:	df000304 	addi	fp,sp,12
 80001e0:	e13fff15 	stw	r4,-4(fp)
 * NIOS2_EXCEPTION_CAUSE_NOT_PRESENT. Your handling routine should
 * check the validity of the cause argument before proceeding.
 */
#ifdef NIOS2_HAS_EXTRA_EXCEPTION_INFO
  /* Get exception cause & "badaddr" */
  NIOS2_READ_EXCEPTION(cause);
 80001e4:	000531fa 	rdctl	r2,exception
 80001e8:	e0bffd15 	stw	r2,-12(fp)
  cause = ( (cause & NIOS2_EXCEPTION_REG_CAUSE_MASK) >>
 80001ec:	e0bffd17 	ldw	r2,-12(fp)
 80001f0:	10801f0c 	andi	r2,r2,124
 80001f4:	1004d0ba 	srli	r2,r2,2
 80001f8:	e0bffd15 	stw	r2,-12(fp)
              NIOS2_EXCEPTION_REG_CAUSE_OFST );

  NIOS2_READ_BADADDR(badaddr);
 80001fc:	0005333a 	rdctl	r2,badaddr
 8000200:	e0bffe15 	stw	r2,-8(fp)
#else
  cause = NIOS2_EXCEPTION_CAUSE_NOT_PRESENT;
  badaddr = 0;
#endif /* NIOS2_HAS_EXTRA_EXCEPTION_INFO */

  if(alt_instruction_exception_handler) {
 8000204:	d0a6b317 	ldw	r2,-25908(gp)
 8000208:	10000726 	beq	r2,zero,8000228 <alt_instruction_exception_entry+0x58>
     * Call handler. Its return value indicates whether the exception-causing
     * instruction should be re-issued. The code that called us,
     * alt_eceptions_entry.S, will look at this value and adjust the ea
     * register as necessary
     */
    return alt_instruction_exception_handler(cause, exception_pc, badaddr);
 800020c:	d0a6b317 	ldw	r2,-25908(gp)
 8000210:	e0fffd17 	ldw	r3,-12(fp)
 8000214:	e1bffe17 	ldw	r6,-8(fp)
 8000218:	e17fff17 	ldw	r5,-4(fp)
 800021c:	1809883a 	mov	r4,r3
 8000220:	103ee83a 	callr	r2
 8000224:	00000206 	br	8000230 <alt_instruction_exception_entry+0x60>
   *    (a peripheral which negates its interrupt output before its
   *    interrupt handler has been executed will cause spurious interrupts)
   */
  else {
#ifdef NIOS2_HAS_DEBUG_STUB
    NIOS2_BREAK();
 8000228:	003da03a 	break	0
      ;
#endif /* NIOS2_HAS_DEBUG_STUB */
  }

  /* We should not get here. Remove compiler warning. */
  return NIOS2_EXCEPTION_RETURN_REISSUE_INST;
 800022c:	0005883a 	mov	r2,zero
}
 8000230:	e037883a 	mov	sp,fp
 8000234:	dfc00117 	ldw	ra,4(sp)
 8000238:	df000017 	ldw	fp,0(sp)
 800023c:	dec00204 	addi	sp,sp,8
 8000240:	f800283a 	ret

Disassembly of section .text:

08000244 <_start>:

    /* Assume the data cache size is always a power of two. */
#if NIOS2_DCACHE_SIZE > 0x8000
    movhi r2, %hi(NIOS2_DCACHE_SIZE)
#else
    movui r2, NIOS2_DCACHE_SIZE
 8000244:	00820014 	movui	r2,2048
#endif

0:
    initd 0(r2)
 8000248:	10000033 	initd	0(r2)
#ifdef NIOS2_ECC_PRESENT
    addi r2, r2, -4
#else
    addi r2, r2, -NIOS2_DCACHE_LINE_SIZE
 800024c:	10bff804 	addi	r2,r2,-32
#endif
    bgt r2, zero, 0b
 8000250:	00bffd16 	blt	zero,r2,8000248 <_start+0x4>

    /*
     * Now that the caches are initialized, set up the stack pointer and global pointer.
     * The values provided by the linker are assumed to be correctly aligned.
     */
    movhi sp, %hi(__alt_stack_pointer)
 8000254:	06c40034 	movhi	sp,4096
    ori sp, sp, %lo(__alt_stack_pointer)
 8000258:	dec00014 	ori	sp,sp,0
    movhi gp, %hi(_gp)
 800025c:	06820074 	movhi	gp,2049
    ori gp, gp, %lo(_gp)
 8000260:	d681eb14 	ori	gp,gp,1964
 */
#ifndef ALT_SIM_OPTIMIZE
    /* Log that the BSS is about to be cleared. */
    ALT_LOG_PUTS(alt_log_msg_bss)

    movhi r2, %hi(__bss_start)
 8000264:	00820034 	movhi	r2,2048
    ori r2, r2, %lo(__bss_start)
 8000268:	10a89414 	ori	r2,r2,41552

    movhi r3, %hi(__bss_end)
 800026c:	00c20034 	movhi	r3,2048
    ori r3, r3, %lo(__bss_end)
 8000270:	18e8f814 	ori	r3,r3,41952

    beq r2, r3, 1f
 8000274:	10c00326 	beq	r2,r3,8000284 <_start+0x40>

0:
    stw zero, (r2)
 8000278:	10000015 	stw	zero,0(r2)
    addi r2, r2, 4
 800027c:	10800104 	addi	r2,r2,4
    bltu r2, r3, 0b
 8000280:	10fffd36 	bltu	r2,r3,8000278 <_start+0x34>
     * section aren't defined until alt_load() has been called).
     */
    mov   et, zero
#endif

    call alt_load
 8000284:	80048280 	call	8004828 <alt_load>

    /* Log that alt_main is about to be called. */
    ALT_LOG_PUTS(alt_log_msg_alt_main)

    /* Call the C entry point. It should never return. */
    call alt_main
 8000288:	80049bc0 	call	80049bc <alt_main>

0800028c <alt_after_alt_main>:

    /* Wait in infinite loop in case alt_main does return. */
alt_after_alt_main:
    br alt_after_alt_main
 800028c:	003fff06 	br	800028c <alt_after_alt_main>

08000290 <clearDisplays>:
#define SIX   0b0000010
#define SEVEN 0b1111000
#define EIGHT 0b0000000
#define NINE  0b0010000

void clearDisplays () {
 8000290:	deffff04 	addi	sp,sp,-4
 8000294:	df000015 	stw	fp,0(sp)
 8000298:	d839883a 	mov	fp,sp
	IOWR_ALTERA_AVALON_PIO_DATA( HEX0_BASE, 127);
 800029c:	00c01fc4 	movi	r3,127
 80002a0:	00840034 	movhi	r2,4096
 80002a4:	10841c04 	addi	r2,r2,4208
 80002a8:	10c00035 	stwio	r3,0(r2)
	IOWR_ALTERA_AVALON_PIO_DATA( HEX1_BASE, 127);
 80002ac:	00c01fc4 	movi	r3,127
 80002b0:	00840034 	movhi	r2,4096
 80002b4:	10841804 	addi	r2,r2,4192
 80002b8:	10c00035 	stwio	r3,0(r2)
	IOWR_ALTERA_AVALON_PIO_DATA( HEX2_BASE, 127);
 80002bc:	00c01fc4 	movi	r3,127
 80002c0:	00840034 	movhi	r2,4096
 80002c4:	10841404 	addi	r2,r2,4176
 80002c8:	10c00035 	stwio	r3,0(r2)
	IOWR_ALTERA_AVALON_PIO_DATA( HEX3_BASE, 127);
 80002cc:	00c01fc4 	movi	r3,127
 80002d0:	00840034 	movhi	r2,4096
 80002d4:	10841004 	addi	r2,r2,4160
 80002d8:	10c00035 	stwio	r3,0(r2)
	IOWR_ALTERA_AVALON_PIO_DATA( HEX4_BASE, 127);
 80002dc:	00c01fc4 	movi	r3,127
 80002e0:	00840034 	movhi	r2,4096
 80002e4:	10840c04 	addi	r2,r2,4144
 80002e8:	10c00035 	stwio	r3,0(r2)
	IOWR_ALTERA_AVALON_PIO_DATA( HEX5_BASE, 127);
 80002ec:	00c01fc4 	movi	r3,127
 80002f0:	00840034 	movhi	r2,4096
 80002f4:	10840804 	addi	r2,r2,4128
 80002f8:	10c00035 	stwio	r3,0(r2)
	IOWR_ALTERA_AVALON_PIO_DATA( HEX6_BASE, 127);
 80002fc:	00c01fc4 	movi	r3,127
 8000300:	00840034 	movhi	r2,4096
 8000304:	10840404 	addi	r2,r2,4112
 8000308:	10c00035 	stwio	r3,0(r2)
	IOWR_ALTERA_AVALON_PIO_DATA( HEX7_BASE, 127);
 800030c:	00c01fc4 	movi	r3,127
 8000310:	00840034 	movhi	r2,4096
 8000314:	10840004 	addi	r2,r2,4096
 8000318:	10c00035 	stwio	r3,0(r2)
}
 800031c:	0001883a 	nop
 8000320:	e037883a 	mov	sp,fp
 8000324:	df000017 	ldw	fp,0(sp)
 8000328:	dec00104 	addi	sp,sp,4
 800032c:	f800283a 	ret

08000330 <decToBinary>:

// Function that converts a decimal to a binary
int* decToBinary (int n) {
 8000330:	defffc04 	addi	sp,sp,-16
 8000334:	df000315 	stw	fp,12(sp)
 8000338:	df000304 	addi	fp,sp,12
 800033c:	e13fff15 	stw	r4,-4(fp)
	static int binarr[7];
	for (int i = 7; i >= 0; i--) {
 8000340:	008001c4 	movi	r2,7
 8000344:	e0bffd15 	stw	r2,-12(fp)
 8000348:	00001a06 	br	80003b4 <decToBinary+0x84>
		int k = n >> i;
 800034c:	e0ffff17 	ldw	r3,-4(fp)
 8000350:	e0bffd17 	ldw	r2,-12(fp)
 8000354:	1885d83a 	sra	r2,r3,r2
 8000358:	e0bffe15 	stw	r2,-8(fp)
	if (k & 1) binarr[i] = 1;
 800035c:	e0bffe17 	ldw	r2,-8(fp)
 8000360:	1080004c 	andi	r2,r2,1
 8000364:	10000926 	beq	r2,zero,800038c <decToBinary+0x5c>
 8000368:	00820074 	movhi	r2,2049
 800036c:	10a89f04 	addi	r2,r2,-23940
 8000370:	e0fffd17 	ldw	r3,-12(fp)
 8000374:	18c7883a 	add	r3,r3,r3
 8000378:	18c7883a 	add	r3,r3,r3
 800037c:	10c5883a 	add	r2,r2,r3
 8000380:	00c00044 	movi	r3,1
 8000384:	10c00015 	stw	r3,0(r2)
 8000388:	00000706 	br	80003a8 <decToBinary+0x78>
	else binarr[i] = 0;
 800038c:	00820074 	movhi	r2,2049
 8000390:	10a89f04 	addi	r2,r2,-23940
 8000394:	e0fffd17 	ldw	r3,-12(fp)
 8000398:	18c7883a 	add	r3,r3,r3
 800039c:	18c7883a 	add	r3,r3,r3
 80003a0:	10c5883a 	add	r2,r2,r3
 80003a4:	10000015 	stw	zero,0(r2)
}

// Function that converts a decimal to a binary
int* decToBinary (int n) {
	static int binarr[7];
	for (int i = 7; i >= 0; i--) {
 80003a8:	e0bffd17 	ldw	r2,-12(fp)
 80003ac:	10bfffc4 	addi	r2,r2,-1
 80003b0:	e0bffd15 	stw	r2,-12(fp)
 80003b4:	e0bffd17 	ldw	r2,-12(fp)
 80003b8:	103fe40e 	bge	r2,zero,800034c <decToBinary+0x1c>
		int k = n >> i;
	if (k & 1) binarr[i] = 1;
	else binarr[i] = 0;
	}
	return binarr;
 80003bc:	00820074 	movhi	r2,2049
 80003c0:	10a89f04 	addi	r2,r2,-23940
}
 80003c4:	e037883a 	mov	sp,fp
 80003c8:	df000017 	ldw	fp,0(sp)
 80003cc:	dec00104 	addi	sp,sp,4
 80003d0:	f800283a 	ret

080003d4 <count>:

// storage for the present state in the hex display count
int hexCount[ 8 ];
// counting function for the hex disylays
void count( void )
{
 80003d4:	deffff04 	addi	sp,sp,-4
 80003d8:	df000015 	stw	fp,0(sp)
 80003dc:	d839883a 	mov	fp,sp
	switch ( hexCount[ 0 ] )
 80003e0:	00820074 	movhi	r2,2049
 80003e4:	10a8b004 	addi	r2,r2,-23872
 80003e8:	10800017 	ldw	r2,0(r2)
 80003ec:	10c002e8 	cmpgeui	r3,r2,11
 80003f0:	1800941e 	bne	r3,zero,8000644 <count+0x270>
 80003f4:	100690ba 	slli	r3,r2,2
 80003f8:	00820034 	movhi	r2,2048
 80003fc:	10810304 	addi	r2,r2,1036
 8000400:	1885883a 	add	r2,r3,r2
 8000404:	10800017 	ldw	r2,0(r2)
 8000408:	1000683a 	jmp	r2
 800040c:	08000438 	rdprs	zero,at,16
 8000410:	08000468 	cmpgeui	zero,at,17
 8000414:	08000498 	cmpnei	zero,at,18
 8000418:	080004c8 	cmpgei	zero,at,19
 800041c:	080004f8 	rdprs	zero,at,19
 8000420:	08000528 	cmpgeui	zero,at,20
 8000424:	08000558 	cmpnei	zero,at,21
 8000428:	08000588 	cmpgei	zero,at,22
 800042c:	080005b8 	rdprs	zero,at,22
 8000430:	080005e8 	cmpgeui	zero,at,23
 8000434:	08000618 	cmpnei	zero,at,24
	{
		case 0:
			hexCount[ 0 ]++;
 8000438:	00820074 	movhi	r2,2049
 800043c:	10a8b004 	addi	r2,r2,-23872
 8000440:	10800017 	ldw	r2,0(r2)
 8000444:	10c00044 	addi	r3,r2,1
 8000448:	00820074 	movhi	r2,2049
 800044c:	10a8b004 	addi	r2,r2,-23872
 8000450:	10c00015 	stw	r3,0(r2)
			IOWR_ALTERA_AVALON_PIO_DATA( HEX0_BASE, ZERO );
 8000454:	00c01004 	movi	r3,64
 8000458:	00840034 	movhi	r2,4096
 800045c:	10841c04 	addi	r2,r2,4208
 8000460:	10c00035 	stwio	r3,0(r2)
			break;
 8000464:	00007706 	br	8000644 <count+0x270>
		case 1:
			hexCount[ 0 ]++;
 8000468:	00820074 	movhi	r2,2049
 800046c:	10a8b004 	addi	r2,r2,-23872
 8000470:	10800017 	ldw	r2,0(r2)
 8000474:	10c00044 	addi	r3,r2,1
 8000478:	00820074 	movhi	r2,2049
 800047c:	10a8b004 	addi	r2,r2,-23872
 8000480:	10c00015 	stw	r3,0(r2)
			IOWR_ALTERA_AVALON_PIO_DATA( HEX0_BASE, ONE );
 8000484:	00c01e44 	movi	r3,121
 8000488:	00840034 	movhi	r2,4096
 800048c:	10841c04 	addi	r2,r2,4208
 8000490:	10c00035 	stwio	r3,0(r2)
			break;
 8000494:	00006b06 	br	8000644 <count+0x270>
		case 2:
			hexCount[ 0 ]++;
 8000498:	00820074 	movhi	r2,2049
 800049c:	10a8b004 	addi	r2,r2,-23872
 80004a0:	10800017 	ldw	r2,0(r2)
 80004a4:	10c00044 	addi	r3,r2,1
 80004a8:	00820074 	movhi	r2,2049
 80004ac:	10a8b004 	addi	r2,r2,-23872
 80004b0:	10c00015 	stw	r3,0(r2)
			IOWR_ALTERA_AVALON_PIO_DATA( HEX0_BASE, TWO );
 80004b4:	00c00904 	movi	r3,36
 80004b8:	00840034 	movhi	r2,4096
 80004bc:	10841c04 	addi	r2,r2,4208
 80004c0:	10c00035 	stwio	r3,0(r2)
			break;
 80004c4:	00005f06 	br	8000644 <count+0x270>
		case 3:
			hexCount[ 0 ]++;
 80004c8:	00820074 	movhi	r2,2049
 80004cc:	10a8b004 	addi	r2,r2,-23872
 80004d0:	10800017 	ldw	r2,0(r2)
 80004d4:	10c00044 	addi	r3,r2,1
 80004d8:	00820074 	movhi	r2,2049
 80004dc:	10a8b004 	addi	r2,r2,-23872
 80004e0:	10c00015 	stw	r3,0(r2)
			IOWR_ALTERA_AVALON_PIO_DATA( HEX0_BASE, THREE );
 80004e4:	00c00c04 	movi	r3,48
 80004e8:	00840034 	movhi	r2,4096
 80004ec:	10841c04 	addi	r2,r2,4208
 80004f0:	10c00035 	stwio	r3,0(r2)
			break;
 80004f4:	00005306 	br	8000644 <count+0x270>
		case 4:
			hexCount[ 0 ]++;
 80004f8:	00820074 	movhi	r2,2049
 80004fc:	10a8b004 	addi	r2,r2,-23872
 8000500:	10800017 	ldw	r2,0(r2)
 8000504:	10c00044 	addi	r3,r2,1
 8000508:	00820074 	movhi	r2,2049
 800050c:	10a8b004 	addi	r2,r2,-23872
 8000510:	10c00015 	stw	r3,0(r2)
			IOWR_ALTERA_AVALON_PIO_DATA( HEX0_BASE, FOUR );
 8000514:	00c00644 	movi	r3,25
 8000518:	00840034 	movhi	r2,4096
 800051c:	10841c04 	addi	r2,r2,4208
 8000520:	10c00035 	stwio	r3,0(r2)
			break;
 8000524:	00004706 	br	8000644 <count+0x270>
		case 5:
			hexCount[ 0 ]++;
 8000528:	00820074 	movhi	r2,2049
 800052c:	10a8b004 	addi	r2,r2,-23872
 8000530:	10800017 	ldw	r2,0(r2)
 8000534:	10c00044 	addi	r3,r2,1
 8000538:	00820074 	movhi	r2,2049
 800053c:	10a8b004 	addi	r2,r2,-23872
 8000540:	10c00015 	stw	r3,0(r2)
			IOWR_ALTERA_AVALON_PIO_DATA( HEX0_BASE, FIVE );
 8000544:	00c00484 	movi	r3,18
 8000548:	00840034 	movhi	r2,4096
 800054c:	10841c04 	addi	r2,r2,4208
 8000550:	10c00035 	stwio	r3,0(r2)
			break;
 8000554:	00003b06 	br	8000644 <count+0x270>
		case 6:
			hexCount[ 0 ]++;
 8000558:	00820074 	movhi	r2,2049
 800055c:	10a8b004 	addi	r2,r2,-23872
 8000560:	10800017 	ldw	r2,0(r2)
 8000564:	10c00044 	addi	r3,r2,1
 8000568:	00820074 	movhi	r2,2049
 800056c:	10a8b004 	addi	r2,r2,-23872
 8000570:	10c00015 	stw	r3,0(r2)
			IOWR_ALTERA_AVALON_PIO_DATA( HEX0_BASE, SIX );
 8000574:	00c00084 	movi	r3,2
 8000578:	00840034 	movhi	r2,4096
 800057c:	10841c04 	addi	r2,r2,4208
 8000580:	10c00035 	stwio	r3,0(r2)
			break;
 8000584:	00002f06 	br	8000644 <count+0x270>
		case 7:
			hexCount[ 0 ]++;
 8000588:	00820074 	movhi	r2,2049
 800058c:	10a8b004 	addi	r2,r2,-23872
 8000590:	10800017 	ldw	r2,0(r2)
 8000594:	10c00044 	addi	r3,r2,1
 8000598:	00820074 	movhi	r2,2049
 800059c:	10a8b004 	addi	r2,r2,-23872
 80005a0:	10c00015 	stw	r3,0(r2)
			IOWR_ALTERA_AVALON_PIO_DATA( HEX0_BASE, SEVEN );
 80005a4:	00c01e04 	movi	r3,120
 80005a8:	00840034 	movhi	r2,4096
 80005ac:	10841c04 	addi	r2,r2,4208
 80005b0:	10c00035 	stwio	r3,0(r2)
			break;
 80005b4:	00002306 	br	8000644 <count+0x270>
		case 8:
			hexCount[ 0 ]++;
 80005b8:	00820074 	movhi	r2,2049
 80005bc:	10a8b004 	addi	r2,r2,-23872
 80005c0:	10800017 	ldw	r2,0(r2)
 80005c4:	10c00044 	addi	r3,r2,1
 80005c8:	00820074 	movhi	r2,2049
 80005cc:	10a8b004 	addi	r2,r2,-23872
 80005d0:	10c00015 	stw	r3,0(r2)
			IOWR_ALTERA_AVALON_PIO_DATA( HEX0_BASE, EIGHT );
 80005d4:	0007883a 	mov	r3,zero
 80005d8:	00840034 	movhi	r2,4096
 80005dc:	10841c04 	addi	r2,r2,4208
 80005e0:	10c00035 	stwio	r3,0(r2)
			break;
 80005e4:	00001706 	br	8000644 <count+0x270>
		case 9:
			hexCount[ 0 ]++;
 80005e8:	00820074 	movhi	r2,2049
 80005ec:	10a8b004 	addi	r2,r2,-23872
 80005f0:	10800017 	ldw	r2,0(r2)
 80005f4:	10c00044 	addi	r3,r2,1
 80005f8:	00820074 	movhi	r2,2049
 80005fc:	10a8b004 	addi	r2,r2,-23872
 8000600:	10c00015 	stw	r3,0(r2)
			IOWR_ALTERA_AVALON_PIO_DATA( HEX0_BASE, NINE );
 8000604:	00c00404 	movi	r3,16
 8000608:	00840034 	movhi	r2,4096
 800060c:	10841c04 	addi	r2,r2,4208
 8000610:	10c00035 	stwio	r3,0(r2)
			break;
 8000614:	00000b06 	br	8000644 <count+0x270>
		case 10:
			hexCount[ 0 ] = 0;
 8000618:	00820074 	movhi	r2,2049
 800061c:	10a8b004 	addi	r2,r2,-23872
 8000620:	10000015 	stw	zero,0(r2)
			hexCount[ 1 ]++;
 8000624:	00820074 	movhi	r2,2049
 8000628:	10a8b004 	addi	r2,r2,-23872
 800062c:	10800117 	ldw	r2,4(r2)
 8000630:	10c00044 	addi	r3,r2,1
 8000634:	00820074 	movhi	r2,2049
 8000638:	10a8b004 	addi	r2,r2,-23872
 800063c:	10c00115 	stw	r3,4(r2)
			break;
 8000640:	0001883a 	nop
	}
	
	switch ( hexCount[ 1 ] )
 8000644:	00820074 	movhi	r2,2049
 8000648:	10a8b004 	addi	r2,r2,-23872
 800064c:	10800117 	ldw	r2,4(r2)
 8000650:	10c002e8 	cmpgeui	r3,r2,11
 8000654:	18004e1e 	bne	r3,zero,8000790 <count+0x3bc>
 8000658:	100690ba 	slli	r3,r2,2
 800065c:	00820034 	movhi	r2,2048
 8000660:	10819c04 	addi	r2,r2,1648
 8000664:	1885883a 	add	r2,r3,r2
 8000668:	10800017 	ldw	r2,0(r2)
 800066c:	1000683a 	jmp	r2
 8000670:	0800069c 	xori	zero,at,26
 8000674:	080006b0 	cmpltui	zero,at,26
 8000678:	080006c4 	addi	zero,at,27
 800067c:	080006d8 	cmpnei	zero,at,27
 8000680:	080006ec 	andhi	zero,at,27
 8000684:	08000700 	call	800070 <__alt_mem_new_sdram_controller_0-0x77fff90>
 8000688:	08000714 	ori	zero,at,28
 800068c:	08000728 	cmpgeui	zero,at,28
 8000690:	0800073c 	xorhi	zero,at,28
 8000694:	08000750 	cmplti	zero,at,29
 8000698:	08000764 	muli	zero,at,29
	{
		case 0:
			IOWR_ALTERA_AVALON_PIO_DATA( HEX1_BASE, ZERO );
 800069c:	00c01004 	movi	r3,64
 80006a0:	00840034 	movhi	r2,4096
 80006a4:	10841804 	addi	r2,r2,4192
 80006a8:	10c00035 	stwio	r3,0(r2)
			break;
 80006ac:	00003806 	br	8000790 <count+0x3bc>
		case 1:
			IOWR_ALTERA_AVALON_PIO_DATA( HEX1_BASE, ONE );
 80006b0:	00c01e44 	movi	r3,121
 80006b4:	00840034 	movhi	r2,4096
 80006b8:	10841804 	addi	r2,r2,4192
 80006bc:	10c00035 	stwio	r3,0(r2)
			break;
 80006c0:	00003306 	br	8000790 <count+0x3bc>
		case 2:
			IOWR_ALTERA_AVALON_PIO_DATA( HEX1_BASE, TWO );
 80006c4:	00c00904 	movi	r3,36
 80006c8:	00840034 	movhi	r2,4096
 80006cc:	10841804 	addi	r2,r2,4192
 80006d0:	10c00035 	stwio	r3,0(r2)
			break;
 80006d4:	00002e06 	br	8000790 <count+0x3bc>
		case 3:
			IOWR_ALTERA_AVALON_PIO_DATA( HEX1_BASE, THREE );
 80006d8:	00c00c04 	movi	r3,48
 80006dc:	00840034 	movhi	r2,4096
 80006e0:	10841804 	addi	r2,r2,4192
 80006e4:	10c00035 	stwio	r3,0(r2)
			break;
 80006e8:	00002906 	br	8000790 <count+0x3bc>
		case 4:
			IOWR_ALTERA_AVALON_PIO_DATA( HEX1_BASE, FOUR );
 80006ec:	00c00644 	movi	r3,25
 80006f0:	00840034 	movhi	r2,4096
 80006f4:	10841804 	addi	r2,r2,4192
 80006f8:	10c00035 	stwio	r3,0(r2)
			break;
 80006fc:	00002406 	br	8000790 <count+0x3bc>
		case 5:
			IOWR_ALTERA_AVALON_PIO_DATA( HEX1_BASE, FIVE );
 8000700:	00c00484 	movi	r3,18
 8000704:	00840034 	movhi	r2,4096
 8000708:	10841804 	addi	r2,r2,4192
 800070c:	10c00035 	stwio	r3,0(r2)
			break;
 8000710:	00001f06 	br	8000790 <count+0x3bc>
		case 6:
			IOWR_ALTERA_AVALON_PIO_DATA( HEX1_BASE, SIX );
 8000714:	00c00084 	movi	r3,2
 8000718:	00840034 	movhi	r2,4096
 800071c:	10841804 	addi	r2,r2,4192
 8000720:	10c00035 	stwio	r3,0(r2)
			break;
 8000724:	00001a06 	br	8000790 <count+0x3bc>
		case 7:
			IOWR_ALTERA_AVALON_PIO_DATA( HEX1_BASE, SEVEN );
 8000728:	00c01e04 	movi	r3,120
 800072c:	00840034 	movhi	r2,4096
 8000730:	10841804 	addi	r2,r2,4192
 8000734:	10c00035 	stwio	r3,0(r2)
			break;
 8000738:	00001506 	br	8000790 <count+0x3bc>
		case 8:
			IOWR_ALTERA_AVALON_PIO_DATA( HEX1_BASE, EIGHT );
 800073c:	0007883a 	mov	r3,zero
 8000740:	00840034 	movhi	r2,4096
 8000744:	10841804 	addi	r2,r2,4192
 8000748:	10c00035 	stwio	r3,0(r2)
			break;
 800074c:	00001006 	br	8000790 <count+0x3bc>
		case 9:
			IOWR_ALTERA_AVALON_PIO_DATA( HEX1_BASE, NINE );
 8000750:	00c00404 	movi	r3,16
 8000754:	00840034 	movhi	r2,4096
 8000758:	10841804 	addi	r2,r2,4192
 800075c:	10c00035 	stwio	r3,0(r2)
			break;
 8000760:	00000b06 	br	8000790 <count+0x3bc>
		case 10:
			hexCount[ 1 ] = 0;
 8000764:	00820074 	movhi	r2,2049
 8000768:	10a8b004 	addi	r2,r2,-23872
 800076c:	10000115 	stw	zero,4(r2)
			hexCount[ 2 ]++;
 8000770:	00820074 	movhi	r2,2049
 8000774:	10a8b004 	addi	r2,r2,-23872
 8000778:	10800217 	ldw	r2,8(r2)
 800077c:	10c00044 	addi	r3,r2,1
 8000780:	00820074 	movhi	r2,2049
 8000784:	10a8b004 	addi	r2,r2,-23872
 8000788:	10c00215 	stw	r3,8(r2)
			break;
 800078c:	0001883a 	nop
	}
	
	switch ( hexCount[ 2 ] )
 8000790:	00820074 	movhi	r2,2049
 8000794:	10a8b004 	addi	r2,r2,-23872
 8000798:	10800217 	ldw	r2,8(r2)
 800079c:	10c002e8 	cmpgeui	r3,r2,11
 80007a0:	18004e1e 	bne	r3,zero,80008dc <count+0x508>
 80007a4:	100690ba 	slli	r3,r2,2
 80007a8:	00820034 	movhi	r2,2048
 80007ac:	1081ef04 	addi	r2,r2,1980
 80007b0:	1885883a 	add	r2,r3,r2
 80007b4:	10800017 	ldw	r2,0(r2)
 80007b8:	1000683a 	jmp	r2
 80007bc:	080007e8 	cmpgeui	zero,at,31
 80007c0:	080007fc 	xorhi	zero,at,31
 80007c4:	08000810 	cmplti	zero,at,32
 80007c8:	08000824 	muli	zero,at,32
 80007cc:	08000838 	rdprs	zero,at,32
 80007d0:	0800084c 	andi	zero,at,33
 80007d4:	08000860 	cmpeqi	zero,at,33
 80007d8:	08000874 	orhi	zero,at,33
 80007dc:	08000888 	cmpgei	zero,at,34
 80007e0:	0800089c 	xori	zero,at,34
 80007e4:	080008b0 	cmpltui	zero,at,34
	{
		case 0:
			IOWR_ALTERA_AVALON_PIO_DATA( HEX2_BASE, ZERO );
 80007e8:	00c01004 	movi	r3,64
 80007ec:	00840034 	movhi	r2,4096
 80007f0:	10841404 	addi	r2,r2,4176
 80007f4:	10c00035 	stwio	r3,0(r2)
			break;
 80007f8:	00003806 	br	80008dc <count+0x508>
		case 1:
			IOWR_ALTERA_AVALON_PIO_DATA( HEX2_BASE, ONE );
 80007fc:	00c01e44 	movi	r3,121
 8000800:	00840034 	movhi	r2,4096
 8000804:	10841404 	addi	r2,r2,4176
 8000808:	10c00035 	stwio	r3,0(r2)
			break;
 800080c:	00003306 	br	80008dc <count+0x508>
		case 2:
			IOWR_ALTERA_AVALON_PIO_DATA( HEX2_BASE, TWO );
 8000810:	00c00904 	movi	r3,36
 8000814:	00840034 	movhi	r2,4096
 8000818:	10841404 	addi	r2,r2,4176
 800081c:	10c00035 	stwio	r3,0(r2)
			break;
 8000820:	00002e06 	br	80008dc <count+0x508>
		case 3:
			IOWR_ALTERA_AVALON_PIO_DATA( HEX2_BASE, THREE );
 8000824:	00c00c04 	movi	r3,48
 8000828:	00840034 	movhi	r2,4096
 800082c:	10841404 	addi	r2,r2,4176
 8000830:	10c00035 	stwio	r3,0(r2)
			break;
 8000834:	00002906 	br	80008dc <count+0x508>
		case 4:
			IOWR_ALTERA_AVALON_PIO_DATA( HEX2_BASE, FOUR );
 8000838:	00c00644 	movi	r3,25
 800083c:	00840034 	movhi	r2,4096
 8000840:	10841404 	addi	r2,r2,4176
 8000844:	10c00035 	stwio	r3,0(r2)
			break;
 8000848:	00002406 	br	80008dc <count+0x508>
		case 5:
			IOWR_ALTERA_AVALON_PIO_DATA( HEX2_BASE, FIVE );
 800084c:	00c00484 	movi	r3,18
 8000850:	00840034 	movhi	r2,4096
 8000854:	10841404 	addi	r2,r2,4176
 8000858:	10c00035 	stwio	r3,0(r2)
			break;
 800085c:	00001f06 	br	80008dc <count+0x508>
		case 6:
			IOWR_ALTERA_AVALON_PIO_DATA( HEX2_BASE, SIX );
 8000860:	00c00084 	movi	r3,2
 8000864:	00840034 	movhi	r2,4096
 8000868:	10841404 	addi	r2,r2,4176
 800086c:	10c00035 	stwio	r3,0(r2)
			break;
 8000870:	00001a06 	br	80008dc <count+0x508>
		case 7:
			IOWR_ALTERA_AVALON_PIO_DATA( HEX2_BASE, SEVEN );
 8000874:	00c01e04 	movi	r3,120
 8000878:	00840034 	movhi	r2,4096
 800087c:	10841404 	addi	r2,r2,4176
 8000880:	10c00035 	stwio	r3,0(r2)
			break;
 8000884:	00001506 	br	80008dc <count+0x508>
		case 8:
			IOWR_ALTERA_AVALON_PIO_DATA( HEX2_BASE, EIGHT );
 8000888:	0007883a 	mov	r3,zero
 800088c:	00840034 	movhi	r2,4096
 8000890:	10841404 	addi	r2,r2,4176
 8000894:	10c00035 	stwio	r3,0(r2)
			break;
 8000898:	00001006 	br	80008dc <count+0x508>
		case 9:
			IOWR_ALTERA_AVALON_PIO_DATA( HEX2_BASE, NINE );
 800089c:	00c00404 	movi	r3,16
 80008a0:	00840034 	movhi	r2,4096
 80008a4:	10841404 	addi	r2,r2,4176
 80008a8:	10c00035 	stwio	r3,0(r2)
			break;
 80008ac:	00000b06 	br	80008dc <count+0x508>
		case 10:
			hexCount[ 2 ] = 0;
 80008b0:	00820074 	movhi	r2,2049
 80008b4:	10a8b004 	addi	r2,r2,-23872
 80008b8:	10000215 	stw	zero,8(r2)
			hexCount[ 3 ]++;
 80008bc:	00820074 	movhi	r2,2049
 80008c0:	10a8b004 	addi	r2,r2,-23872
 80008c4:	10800317 	ldw	r2,12(r2)
 80008c8:	10c00044 	addi	r3,r2,1
 80008cc:	00820074 	movhi	r2,2049
 80008d0:	10a8b004 	addi	r2,r2,-23872
 80008d4:	10c00315 	stw	r3,12(r2)
            break;
 80008d8:	0001883a 	nop
	}
	
	switch ( hexCount[ 3 ] )
 80008dc:	00820074 	movhi	r2,2049
 80008e0:	10a8b004 	addi	r2,r2,-23872
 80008e4:	10800317 	ldw	r2,12(r2)
 80008e8:	10c002e8 	cmpgeui	r3,r2,11
 80008ec:	18004e1e 	bne	r3,zero,8000a28 <count+0x654>
 80008f0:	100690ba 	slli	r3,r2,2
 80008f4:	00820034 	movhi	r2,2048
 80008f8:	10824204 	addi	r2,r2,2312
 80008fc:	1885883a 	add	r2,r3,r2
 8000900:	10800017 	ldw	r2,0(r2)
 8000904:	1000683a 	jmp	r2
 8000908:	08000934 	orhi	zero,at,36
 800090c:	08000948 	cmpgei	zero,at,37
 8000910:	0800095c 	xori	zero,at,37
 8000914:	08000970 	cmpltui	zero,at,37
 8000918:	08000984 	addi	zero,at,38
 800091c:	08000998 	cmpnei	zero,at,38
 8000920:	080009ac 	andhi	zero,at,38
 8000924:	080009c0 	call	80009c <__alt_mem_new_sdram_controller_0-0x77fff64>
 8000928:	080009d4 	ori	zero,at,39
 800092c:	080009e8 	cmpgeui	zero,at,39
 8000930:	080009fc 	xorhi	zero,at,39
	{
		case 0:
			IOWR_ALTERA_AVALON_PIO_DATA( HEX3_BASE, ZERO );
 8000934:	00c01004 	movi	r3,64
 8000938:	00840034 	movhi	r2,4096
 800093c:	10841004 	addi	r2,r2,4160
 8000940:	10c00035 	stwio	r3,0(r2)
			break;
 8000944:	00003806 	br	8000a28 <count+0x654>
		case 1:
			IOWR_ALTERA_AVALON_PIO_DATA( HEX3_BASE, ONE );
 8000948:	00c01e44 	movi	r3,121
 800094c:	00840034 	movhi	r2,4096
 8000950:	10841004 	addi	r2,r2,4160
 8000954:	10c00035 	stwio	r3,0(r2)
			break;
 8000958:	00003306 	br	8000a28 <count+0x654>
		case 2:
			IOWR_ALTERA_AVALON_PIO_DATA( HEX3_BASE, TWO );
 800095c:	00c00904 	movi	r3,36
 8000960:	00840034 	movhi	r2,4096
 8000964:	10841004 	addi	r2,r2,4160
 8000968:	10c00035 	stwio	r3,0(r2)
			break;
 800096c:	00002e06 	br	8000a28 <count+0x654>
		case 3:
			IOWR_ALTERA_AVALON_PIO_DATA( HEX3_BASE, THREE );
 8000970:	00c00c04 	movi	r3,48
 8000974:	00840034 	movhi	r2,4096
 8000978:	10841004 	addi	r2,r2,4160
 800097c:	10c00035 	stwio	r3,0(r2)
			break;
 8000980:	00002906 	br	8000a28 <count+0x654>
		case 4:
			IOWR_ALTERA_AVALON_PIO_DATA( HEX3_BASE, FOUR );
 8000984:	00c00644 	movi	r3,25
 8000988:	00840034 	movhi	r2,4096
 800098c:	10841004 	addi	r2,r2,4160
 8000990:	10c00035 	stwio	r3,0(r2)
			break;
 8000994:	00002406 	br	8000a28 <count+0x654>
		case 5:
			IOWR_ALTERA_AVALON_PIO_DATA( HEX3_BASE, FIVE );
 8000998:	00c00484 	movi	r3,18
 800099c:	00840034 	movhi	r2,4096
 80009a0:	10841004 	addi	r2,r2,4160
 80009a4:	10c00035 	stwio	r3,0(r2)
			break;
 80009a8:	00001f06 	br	8000a28 <count+0x654>
		case 6:
			IOWR_ALTERA_AVALON_PIO_DATA( HEX3_BASE, SIX );
 80009ac:	00c00084 	movi	r3,2
 80009b0:	00840034 	movhi	r2,4096
 80009b4:	10841004 	addi	r2,r2,4160
 80009b8:	10c00035 	stwio	r3,0(r2)
			break;
 80009bc:	00001a06 	br	8000a28 <count+0x654>
		case 7:
			IOWR_ALTERA_AVALON_PIO_DATA( HEX3_BASE, SEVEN );
 80009c0:	00c01e04 	movi	r3,120
 80009c4:	00840034 	movhi	r2,4096
 80009c8:	10841004 	addi	r2,r2,4160
 80009cc:	10c00035 	stwio	r3,0(r2)
			break;
 80009d0:	00001506 	br	8000a28 <count+0x654>
		case 8:
			IOWR_ALTERA_AVALON_PIO_DATA( HEX3_BASE, EIGHT );
 80009d4:	0007883a 	mov	r3,zero
 80009d8:	00840034 	movhi	r2,4096
 80009dc:	10841004 	addi	r2,r2,4160
 80009e0:	10c00035 	stwio	r3,0(r2)
			break;
 80009e4:	00001006 	br	8000a28 <count+0x654>
		case 9:
			IOWR_ALTERA_AVALON_PIO_DATA( HEX3_BASE, NINE );
 80009e8:	00c00404 	movi	r3,16
 80009ec:	00840034 	movhi	r2,4096
 80009f0:	10841004 	addi	r2,r2,4160
 80009f4:	10c00035 	stwio	r3,0(r2)
			break;
 80009f8:	00000b06 	br	8000a28 <count+0x654>
		case 10:
			hexCount[ 3 ] = 0;
 80009fc:	00820074 	movhi	r2,2049
 8000a00:	10a8b004 	addi	r2,r2,-23872
 8000a04:	10000315 	stw	zero,12(r2)
			hexCount[ 4 ]++;
 8000a08:	00820074 	movhi	r2,2049
 8000a0c:	10a8b004 	addi	r2,r2,-23872
 8000a10:	10800417 	ldw	r2,16(r2)
 8000a14:	10c00044 	addi	r3,r2,1
 8000a18:	00820074 	movhi	r2,2049
 8000a1c:	10a8b004 	addi	r2,r2,-23872
 8000a20:	10c00415 	stw	r3,16(r2)
            break;
 8000a24:	0001883a 	nop
	}
	
	switch ( hexCount[ 4 ] )
 8000a28:	00820074 	movhi	r2,2049
 8000a2c:	10a8b004 	addi	r2,r2,-23872
 8000a30:	10800417 	ldw	r2,16(r2)
 8000a34:	10c002e8 	cmpgeui	r3,r2,11
 8000a38:	18004e1e 	bne	r3,zero,8000b74 <count+0x7a0>
 8000a3c:	100690ba 	slli	r3,r2,2
 8000a40:	00820034 	movhi	r2,2048
 8000a44:	10829504 	addi	r2,r2,2644
 8000a48:	1885883a 	add	r2,r3,r2
 8000a4c:	10800017 	ldw	r2,0(r2)
 8000a50:	1000683a 	jmp	r2
 8000a54:	08000a80 	call	8000a8 <__alt_mem_new_sdram_controller_0-0x77fff58>
 8000a58:	08000a94 	ori	zero,at,42
 8000a5c:	08000aa8 	cmpgeui	zero,at,42
 8000a60:	08000abc 	xorhi	zero,at,42
 8000a64:	08000ad0 	cmplti	zero,at,43
 8000a68:	08000ae4 	muli	zero,at,43
 8000a6c:	08000af8 	rdprs	zero,at,43
 8000a70:	08000b0c 	andi	zero,at,44
 8000a74:	08000b20 	cmpeqi	zero,at,44
 8000a78:	08000b34 	orhi	zero,at,44
 8000a7c:	08000b48 	cmpgei	zero,at,45
	{
		case 0:
			IOWR_ALTERA_AVALON_PIO_DATA( HEX4_BASE, ZERO );
 8000a80:	00c01004 	movi	r3,64
 8000a84:	00840034 	movhi	r2,4096
 8000a88:	10840c04 	addi	r2,r2,4144
 8000a8c:	10c00035 	stwio	r3,0(r2)
			break;
 8000a90:	00003806 	br	8000b74 <count+0x7a0>
		case 1:
			IOWR_ALTERA_AVALON_PIO_DATA( HEX4_BASE, ONE );
 8000a94:	00c01e44 	movi	r3,121
 8000a98:	00840034 	movhi	r2,4096
 8000a9c:	10840c04 	addi	r2,r2,4144
 8000aa0:	10c00035 	stwio	r3,0(r2)
			break;
 8000aa4:	00003306 	br	8000b74 <count+0x7a0>
		case 2:
			IOWR_ALTERA_AVALON_PIO_DATA( HEX4_BASE, TWO );
 8000aa8:	00c00904 	movi	r3,36
 8000aac:	00840034 	movhi	r2,4096
 8000ab0:	10840c04 	addi	r2,r2,4144
 8000ab4:	10c00035 	stwio	r3,0(r2)
			break;
 8000ab8:	00002e06 	br	8000b74 <count+0x7a0>
		case 3:
			IOWR_ALTERA_AVALON_PIO_DATA( HEX4_BASE, THREE );
 8000abc:	00c00c04 	movi	r3,48
 8000ac0:	00840034 	movhi	r2,4096
 8000ac4:	10840c04 	addi	r2,r2,4144
 8000ac8:	10c00035 	stwio	r3,0(r2)
			break;
 8000acc:	00002906 	br	8000b74 <count+0x7a0>
		case 4:
			IOWR_ALTERA_AVALON_PIO_DATA( HEX4_BASE, FOUR );
 8000ad0:	00c00644 	movi	r3,25
 8000ad4:	00840034 	movhi	r2,4096
 8000ad8:	10840c04 	addi	r2,r2,4144
 8000adc:	10c00035 	stwio	r3,0(r2)
			break;
 8000ae0:	00002406 	br	8000b74 <count+0x7a0>
		case 5:
			IOWR_ALTERA_AVALON_PIO_DATA( HEX4_BASE, FIVE );
 8000ae4:	00c00484 	movi	r3,18
 8000ae8:	00840034 	movhi	r2,4096
 8000aec:	10840c04 	addi	r2,r2,4144
 8000af0:	10c00035 	stwio	r3,0(r2)
			break;
 8000af4:	00001f06 	br	8000b74 <count+0x7a0>
		case 6:
			IOWR_ALTERA_AVALON_PIO_DATA( HEX4_BASE, SIX );
 8000af8:	00c00084 	movi	r3,2
 8000afc:	00840034 	movhi	r2,4096
 8000b00:	10840c04 	addi	r2,r2,4144
 8000b04:	10c00035 	stwio	r3,0(r2)
			break;
 8000b08:	00001a06 	br	8000b74 <count+0x7a0>
		case 7:
			IOWR_ALTERA_AVALON_PIO_DATA( HEX4_BASE, SEVEN );
 8000b0c:	00c01e04 	movi	r3,120
 8000b10:	00840034 	movhi	r2,4096
 8000b14:	10840c04 	addi	r2,r2,4144
 8000b18:	10c00035 	stwio	r3,0(r2)
			break;
 8000b1c:	00001506 	br	8000b74 <count+0x7a0>
		case 8:
			IOWR_ALTERA_AVALON_PIO_DATA( HEX4_BASE, EIGHT );
 8000b20:	0007883a 	mov	r3,zero
 8000b24:	00840034 	movhi	r2,4096
 8000b28:	10840c04 	addi	r2,r2,4144
 8000b2c:	10c00035 	stwio	r3,0(r2)
			break;
 8000b30:	00001006 	br	8000b74 <count+0x7a0>
		case 9:
			IOWR_ALTERA_AVALON_PIO_DATA( HEX4_BASE, NINE );
 8000b34:	00c00404 	movi	r3,16
 8000b38:	00840034 	movhi	r2,4096
 8000b3c:	10840c04 	addi	r2,r2,4144
 8000b40:	10c00035 	stwio	r3,0(r2)
			break;
 8000b44:	00000b06 	br	8000b74 <count+0x7a0>
		case 10:
			hexCount[ 4 ] = 0;
 8000b48:	00820074 	movhi	r2,2049
 8000b4c:	10a8b004 	addi	r2,r2,-23872
 8000b50:	10000415 	stw	zero,16(r2)
			hexCount[ 5 ]++;
 8000b54:	00820074 	movhi	r2,2049
 8000b58:	10a8b004 	addi	r2,r2,-23872
 8000b5c:	10800517 	ldw	r2,20(r2)
 8000b60:	10c00044 	addi	r3,r2,1
 8000b64:	00820074 	movhi	r2,2049
 8000b68:	10a8b004 	addi	r2,r2,-23872
 8000b6c:	10c00515 	stw	r3,20(r2)
            break;
 8000b70:	0001883a 	nop
	}

	switch ( hexCount[ 5 ] )
 8000b74:	00820074 	movhi	r2,2049
 8000b78:	10a8b004 	addi	r2,r2,-23872
 8000b7c:	10800517 	ldw	r2,20(r2)
 8000b80:	10c002e8 	cmpgeui	r3,r2,11
 8000b84:	18004e1e 	bne	r3,zero,8000cc0 <count+0x8ec>
 8000b88:	100690ba 	slli	r3,r2,2
 8000b8c:	00820034 	movhi	r2,2048
 8000b90:	1082e804 	addi	r2,r2,2976
 8000b94:	1885883a 	add	r2,r3,r2
 8000b98:	10800017 	ldw	r2,0(r2)
 8000b9c:	1000683a 	jmp	r2
 8000ba0:	08000bcc 	andi	zero,at,47
 8000ba4:	08000be0 	cmpeqi	zero,at,47
 8000ba8:	08000bf4 	orhi	zero,at,47
 8000bac:	08000c08 	cmpgei	zero,at,48
 8000bb0:	08000c1c 	xori	zero,at,48
 8000bb4:	08000c30 	cmpltui	zero,at,48
 8000bb8:	08000c44 	addi	zero,at,49
 8000bbc:	08000c58 	cmpnei	zero,at,49
 8000bc0:	08000c6c 	andhi	zero,at,49
 8000bc4:	08000c80 	call	8000c8 <__alt_mem_new_sdram_controller_0-0x77fff38>
 8000bc8:	08000c94 	ori	zero,at,50
	{
		case 0:
			IOWR_ALTERA_AVALON_PIO_DATA( HEX5_BASE, ZERO );
 8000bcc:	00c01004 	movi	r3,64
 8000bd0:	00840034 	movhi	r2,4096
 8000bd4:	10840804 	addi	r2,r2,4128
 8000bd8:	10c00035 	stwio	r3,0(r2)
			break;
 8000bdc:	00003806 	br	8000cc0 <count+0x8ec>
		case 1:
			IOWR_ALTERA_AVALON_PIO_DATA( HEX5_BASE, ONE );
 8000be0:	00c01e44 	movi	r3,121
 8000be4:	00840034 	movhi	r2,4096
 8000be8:	10840804 	addi	r2,r2,4128
 8000bec:	10c00035 	stwio	r3,0(r2)
			break;
 8000bf0:	00003306 	br	8000cc0 <count+0x8ec>
		case 2:
			IOWR_ALTERA_AVALON_PIO_DATA( HEX5_BASE, TWO );
 8000bf4:	00c00904 	movi	r3,36
 8000bf8:	00840034 	movhi	r2,4096
 8000bfc:	10840804 	addi	r2,r2,4128
 8000c00:	10c00035 	stwio	r3,0(r2)
			break;
 8000c04:	00002e06 	br	8000cc0 <count+0x8ec>
		case 3:
			IOWR_ALTERA_AVALON_PIO_DATA( HEX5_BASE, THREE );
 8000c08:	00c00c04 	movi	r3,48
 8000c0c:	00840034 	movhi	r2,4096
 8000c10:	10840804 	addi	r2,r2,4128
 8000c14:	10c00035 	stwio	r3,0(r2)
			break;
 8000c18:	00002906 	br	8000cc0 <count+0x8ec>
		case 4:
			IOWR_ALTERA_AVALON_PIO_DATA( HEX5_BASE, FOUR );
 8000c1c:	00c00644 	movi	r3,25
 8000c20:	00840034 	movhi	r2,4096
 8000c24:	10840804 	addi	r2,r2,4128
 8000c28:	10c00035 	stwio	r3,0(r2)
			break;
 8000c2c:	00002406 	br	8000cc0 <count+0x8ec>
		case 5:
			IOWR_ALTERA_AVALON_PIO_DATA( HEX5_BASE, FIVE );
 8000c30:	00c00484 	movi	r3,18
 8000c34:	00840034 	movhi	r2,4096
 8000c38:	10840804 	addi	r2,r2,4128
 8000c3c:	10c00035 	stwio	r3,0(r2)
			break;
 8000c40:	00001f06 	br	8000cc0 <count+0x8ec>
		case 6:
			IOWR_ALTERA_AVALON_PIO_DATA( HEX5_BASE, SIX );
 8000c44:	00c00084 	movi	r3,2
 8000c48:	00840034 	movhi	r2,4096
 8000c4c:	10840804 	addi	r2,r2,4128
 8000c50:	10c00035 	stwio	r3,0(r2)
			break;
 8000c54:	00001a06 	br	8000cc0 <count+0x8ec>
		case 7:
			IOWR_ALTERA_AVALON_PIO_DATA( HEX5_BASE, SEVEN );
 8000c58:	00c01e04 	movi	r3,120
 8000c5c:	00840034 	movhi	r2,4096
 8000c60:	10840804 	addi	r2,r2,4128
 8000c64:	10c00035 	stwio	r3,0(r2)
			break;
 8000c68:	00001506 	br	8000cc0 <count+0x8ec>
		case 8:
			IOWR_ALTERA_AVALON_PIO_DATA( HEX5_BASE, EIGHT );
 8000c6c:	0007883a 	mov	r3,zero
 8000c70:	00840034 	movhi	r2,4096
 8000c74:	10840804 	addi	r2,r2,4128
 8000c78:	10c00035 	stwio	r3,0(r2)
			break;
 8000c7c:	00001006 	br	8000cc0 <count+0x8ec>
		case 9:
			IOWR_ALTERA_AVALON_PIO_DATA( HEX5_BASE, NINE );
 8000c80:	00c00404 	movi	r3,16
 8000c84:	00840034 	movhi	r2,4096
 8000c88:	10840804 	addi	r2,r2,4128
 8000c8c:	10c00035 	stwio	r3,0(r2)
			break;
 8000c90:	00000b06 	br	8000cc0 <count+0x8ec>
		case 10:
			hexCount[ 5 ] = 0;
 8000c94:	00820074 	movhi	r2,2049
 8000c98:	10a8b004 	addi	r2,r2,-23872
 8000c9c:	10000515 	stw	zero,20(r2)
			hexCount[ 6 ]++;
 8000ca0:	00820074 	movhi	r2,2049
 8000ca4:	10a8b004 	addi	r2,r2,-23872
 8000ca8:	10800617 	ldw	r2,24(r2)
 8000cac:	10c00044 	addi	r3,r2,1
 8000cb0:	00820074 	movhi	r2,2049
 8000cb4:	10a8b004 	addi	r2,r2,-23872
 8000cb8:	10c00615 	stw	r3,24(r2)
            break;
 8000cbc:	0001883a 	nop
	}

	switch ( hexCount[ 6 ] )
 8000cc0:	00820074 	movhi	r2,2049
 8000cc4:	10a8b004 	addi	r2,r2,-23872
 8000cc8:	10800617 	ldw	r2,24(r2)
 8000ccc:	10c002e8 	cmpgeui	r3,r2,11
 8000cd0:	18004e1e 	bne	r3,zero,8000e0c <count+0xa38>
 8000cd4:	100690ba 	slli	r3,r2,2
 8000cd8:	00820034 	movhi	r2,2048
 8000cdc:	10833b04 	addi	r2,r2,3308
 8000ce0:	1885883a 	add	r2,r3,r2
 8000ce4:	10800017 	ldw	r2,0(r2)
 8000ce8:	1000683a 	jmp	r2
 8000cec:	08000d18 	cmpnei	zero,at,52
 8000cf0:	08000d2c 	andhi	zero,at,52
 8000cf4:	08000d40 	call	8000d4 <__alt_mem_new_sdram_controller_0-0x77fff2c>
 8000cf8:	08000d54 	ori	zero,at,53
 8000cfc:	08000d68 	cmpgeui	zero,at,53
 8000d00:	08000d7c 	xorhi	zero,at,53
 8000d04:	08000d90 	cmplti	zero,at,54
 8000d08:	08000da4 	muli	zero,at,54
 8000d0c:	08000db8 	rdprs	zero,at,54
 8000d10:	08000dcc 	andi	zero,at,55
 8000d14:	08000de0 	cmpeqi	zero,at,55
	{
		case 0:
			IOWR_ALTERA_AVALON_PIO_DATA( HEX6_BASE, ZERO );
 8000d18:	00c01004 	movi	r3,64
 8000d1c:	00840034 	movhi	r2,4096
 8000d20:	10840404 	addi	r2,r2,4112
 8000d24:	10c00035 	stwio	r3,0(r2)
			break;
 8000d28:	00003806 	br	8000e0c <count+0xa38>
		case 1:
			IOWR_ALTERA_AVALON_PIO_DATA( HEX6_BASE, ONE );
 8000d2c:	00c01e44 	movi	r3,121
 8000d30:	00840034 	movhi	r2,4096
 8000d34:	10840404 	addi	r2,r2,4112
 8000d38:	10c00035 	stwio	r3,0(r2)
			break;
 8000d3c:	00003306 	br	8000e0c <count+0xa38>
		case 2:
			IOWR_ALTERA_AVALON_PIO_DATA( HEX6_BASE, TWO );
 8000d40:	00c00904 	movi	r3,36
 8000d44:	00840034 	movhi	r2,4096
 8000d48:	10840404 	addi	r2,r2,4112
 8000d4c:	10c00035 	stwio	r3,0(r2)
			break;
 8000d50:	00002e06 	br	8000e0c <count+0xa38>
		case 3:
			IOWR_ALTERA_AVALON_PIO_DATA( HEX6_BASE, THREE );
 8000d54:	00c00c04 	movi	r3,48
 8000d58:	00840034 	movhi	r2,4096
 8000d5c:	10840404 	addi	r2,r2,4112
 8000d60:	10c00035 	stwio	r3,0(r2)
			break;
 8000d64:	00002906 	br	8000e0c <count+0xa38>
		case 4:
			IOWR_ALTERA_AVALON_PIO_DATA( HEX6_BASE, FOUR );
 8000d68:	00c00644 	movi	r3,25
 8000d6c:	00840034 	movhi	r2,4096
 8000d70:	10840404 	addi	r2,r2,4112
 8000d74:	10c00035 	stwio	r3,0(r2)
			break;
 8000d78:	00002406 	br	8000e0c <count+0xa38>
		case 5:
			IOWR_ALTERA_AVALON_PIO_DATA( HEX6_BASE, FIVE );
 8000d7c:	00c00484 	movi	r3,18
 8000d80:	00840034 	movhi	r2,4096
 8000d84:	10840404 	addi	r2,r2,4112
 8000d88:	10c00035 	stwio	r3,0(r2)
			break;
 8000d8c:	00001f06 	br	8000e0c <count+0xa38>
		case 6:
			IOWR_ALTERA_AVALON_PIO_DATA( HEX6_BASE, SIX );
 8000d90:	00c00084 	movi	r3,2
 8000d94:	00840034 	movhi	r2,4096
 8000d98:	10840404 	addi	r2,r2,4112
 8000d9c:	10c00035 	stwio	r3,0(r2)
			break;
 8000da0:	00001a06 	br	8000e0c <count+0xa38>
		case 7:
			IOWR_ALTERA_AVALON_PIO_DATA( HEX6_BASE, SEVEN );
 8000da4:	00c01e04 	movi	r3,120
 8000da8:	00840034 	movhi	r2,4096
 8000dac:	10840404 	addi	r2,r2,4112
 8000db0:	10c00035 	stwio	r3,0(r2)
			break;
 8000db4:	00001506 	br	8000e0c <count+0xa38>
		case 8:
			IOWR_ALTERA_AVALON_PIO_DATA( HEX6_BASE, EIGHT );
 8000db8:	0007883a 	mov	r3,zero
 8000dbc:	00840034 	movhi	r2,4096
 8000dc0:	10840404 	addi	r2,r2,4112
 8000dc4:	10c00035 	stwio	r3,0(r2)
			break;
 8000dc8:	00001006 	br	8000e0c <count+0xa38>
		case 9:
			IOWR_ALTERA_AVALON_PIO_DATA( HEX6_BASE, NINE );
 8000dcc:	00c00404 	movi	r3,16
 8000dd0:	00840034 	movhi	r2,4096
 8000dd4:	10840404 	addi	r2,r2,4112
 8000dd8:	10c00035 	stwio	r3,0(r2)
			break;
 8000ddc:	00000b06 	br	8000e0c <count+0xa38>
		case 10:
			hexCount[ 6 ] = 0;
 8000de0:	00820074 	movhi	r2,2049
 8000de4:	10a8b004 	addi	r2,r2,-23872
 8000de8:	10000615 	stw	zero,24(r2)
			hexCount[ 7 ]++;
 8000dec:	00820074 	movhi	r2,2049
 8000df0:	10a8b004 	addi	r2,r2,-23872
 8000df4:	10800717 	ldw	r2,28(r2)
 8000df8:	10c00044 	addi	r3,r2,1
 8000dfc:	00820074 	movhi	r2,2049
 8000e00:	10a8b004 	addi	r2,r2,-23872
 8000e04:	10c00715 	stw	r3,28(r2)
            break;
 8000e08:	0001883a 	nop
	}

	switch ( hexCount[ 7 ] )
 8000e0c:	00820074 	movhi	r2,2049
 8000e10:	10a8b004 	addi	r2,r2,-23872
 8000e14:	10800717 	ldw	r2,28(r2)
 8000e18:	10c002e8 	cmpgeui	r3,r2,11
 8000e1c:	1800471e 	bne	r3,zero,8000f3c <count+0xb68>
 8000e20:	100690ba 	slli	r3,r2,2
 8000e24:	00820034 	movhi	r2,2048
 8000e28:	10838e04 	addi	r2,r2,3640
 8000e2c:	1885883a 	add	r2,r3,r2
 8000e30:	10800017 	ldw	r2,0(r2)
 8000e34:	1000683a 	jmp	r2
 8000e38:	08000e64 	muli	zero,at,57
 8000e3c:	08000e78 	rdprs	zero,at,57
 8000e40:	08000e8c 	andi	zero,at,58
 8000e44:	08000ea0 	cmpeqi	zero,at,58
 8000e48:	08000eb4 	orhi	zero,at,58
 8000e4c:	08000ec8 	cmpgei	zero,at,59
 8000e50:	08000edc 	xori	zero,at,59
 8000e54:	08000ef0 	cmpltui	zero,at,59
 8000e58:	08000f04 	addi	zero,at,60
 8000e5c:	08000f18 	cmpnei	zero,at,60
 8000e60:	08000f2c 	andhi	zero,at,60
	{
		case 0:
			IOWR_ALTERA_AVALON_PIO_DATA( HEX7_BASE, ZERO );
 8000e64:	00c01004 	movi	r3,64
 8000e68:	00840034 	movhi	r2,4096
 8000e6c:	10840004 	addi	r2,r2,4096
 8000e70:	10c00035 	stwio	r3,0(r2)
			break;
 8000e74:	00003106 	br	8000f3c <count+0xb68>
		case 1:
			IOWR_ALTERA_AVALON_PIO_DATA( HEX7_BASE, ONE );
 8000e78:	00c01e44 	movi	r3,121
 8000e7c:	00840034 	movhi	r2,4096
 8000e80:	10840004 	addi	r2,r2,4096
 8000e84:	10c00035 	stwio	r3,0(r2)
			break;
 8000e88:	00002c06 	br	8000f3c <count+0xb68>
		case 2:
			IOWR_ALTERA_AVALON_PIO_DATA( HEX7_BASE, TWO );
 8000e8c:	00c00904 	movi	r3,36
 8000e90:	00840034 	movhi	r2,4096
 8000e94:	10840004 	addi	r2,r2,4096
 8000e98:	10c00035 	stwio	r3,0(r2)
			break;
 8000e9c:	00002706 	br	8000f3c <count+0xb68>
		case 3:
			IOWR_ALTERA_AVALON_PIO_DATA( HEX7_BASE, THREE );
 8000ea0:	00c00c04 	movi	r3,48
 8000ea4:	00840034 	movhi	r2,4096
 8000ea8:	10840004 	addi	r2,r2,4096
 8000eac:	10c00035 	stwio	r3,0(r2)
			break;
 8000eb0:	00002206 	br	8000f3c <count+0xb68>
		case 4:
			IOWR_ALTERA_AVALON_PIO_DATA( HEX7_BASE, FOUR );
 8000eb4:	00c00644 	movi	r3,25
 8000eb8:	00840034 	movhi	r2,4096
 8000ebc:	10840004 	addi	r2,r2,4096
 8000ec0:	10c00035 	stwio	r3,0(r2)
			break;
 8000ec4:	00001d06 	br	8000f3c <count+0xb68>
		case 5:
			IOWR_ALTERA_AVALON_PIO_DATA( HEX7_BASE, FIVE );
 8000ec8:	00c00484 	movi	r3,18
 8000ecc:	00840034 	movhi	r2,4096
 8000ed0:	10840004 	addi	r2,r2,4096
 8000ed4:	10c00035 	stwio	r3,0(r2)
			break;
 8000ed8:	00001806 	br	8000f3c <count+0xb68>
		case 6:
			IOWR_ALTERA_AVALON_PIO_DATA( HEX7_BASE, SIX );
 8000edc:	00c00084 	movi	r3,2
 8000ee0:	00840034 	movhi	r2,4096
 8000ee4:	10840004 	addi	r2,r2,4096
 8000ee8:	10c00035 	stwio	r3,0(r2)
			break;
 8000eec:	00001306 	br	8000f3c <count+0xb68>
		case 7:
			IOWR_ALTERA_AVALON_PIO_DATA( HEX7_BASE, SEVEN );
 8000ef0:	00c01e04 	movi	r3,120
 8000ef4:	00840034 	movhi	r2,4096
 8000ef8:	10840004 	addi	r2,r2,4096
 8000efc:	10c00035 	stwio	r3,0(r2)
			break;
 8000f00:	00000e06 	br	8000f3c <count+0xb68>
		case 8:
			IOWR_ALTERA_AVALON_PIO_DATA( HEX7_BASE, EIGHT );
 8000f04:	0007883a 	mov	r3,zero
 8000f08:	00840034 	movhi	r2,4096
 8000f0c:	10840004 	addi	r2,r2,4096
 8000f10:	10c00035 	stwio	r3,0(r2)
			break;
 8000f14:	00000906 	br	8000f3c <count+0xb68>
		case 9:
			IOWR_ALTERA_AVALON_PIO_DATA( HEX7_BASE, NINE );
 8000f18:	00c00404 	movi	r3,16
 8000f1c:	00840034 	movhi	r2,4096
 8000f20:	10840004 	addi	r2,r2,4096
 8000f24:	10c00035 	stwio	r3,0(r2)
			break;
 8000f28:	00000406 	br	8000f3c <count+0xb68>
		case 10:
			hexCount[ 7 ] = 0;
 8000f2c:	00820074 	movhi	r2,2049
 8000f30:	10a8b004 	addi	r2,r2,-23872
 8000f34:	10000715 	stw	zero,28(r2)
			break;
 8000f38:	0001883a 	nop
	}
}
 8000f3c:	0001883a 	nop
 8000f40:	e037883a 	mov	sp,fp
 8000f44:	df000017 	ldw	fp,0(sp)
 8000f48:	dec00104 	addi	sp,sp,4
 8000f4c:	f800283a 	ret

08000f50 <randLights>:

// Randomly light up the 7-seg displays
void randLights () {
 8000f50:	defffd04 	addi	sp,sp,-12
 8000f54:	dfc00215 	stw	ra,8(sp)
 8000f58:	df000115 	stw	fp,4(sp)
 8000f5c:	df000104 	addi	fp,sp,4
	// Generate a random 7 bit number to correspond to each 7-seg display
	int* rand_config = decToBinary(rand() % 255);
 8000f60:	80018b80 	call	80018b8 <rand>
 8000f64:	01403fc4 	movi	r5,255
 8000f68:	1009883a 	mov	r4,r2
 8000f6c:	800169c0 	call	800169c <__modsi3>
 8000f70:	1009883a 	mov	r4,r2
 8000f74:	80003300 	call	8000330 <decToBinary>
 8000f78:	e0bfff15 	stw	r2,-4(fp)

	// Read each bit and light up positive bits
	IOWR_ALTERA_AVALON_PIO_DATA(HEX0_BASE, rand()%127);
 8000f7c:	80018b80 	call	80018b8 <rand>
 8000f80:	01401fc4 	movi	r5,127
 8000f84:	1009883a 	mov	r4,r2
 8000f88:	800169c0 	call	800169c <__modsi3>
 8000f8c:	1007883a 	mov	r3,r2
 8000f90:	00840034 	movhi	r2,4096
 8000f94:	10841c04 	addi	r2,r2,4208
 8000f98:	10c00035 	stwio	r3,0(r2)
	IOWR_ALTERA_AVALON_PIO_DATA(HEX1_BASE, rand()%127);
 8000f9c:	80018b80 	call	80018b8 <rand>
 8000fa0:	01401fc4 	movi	r5,127
 8000fa4:	1009883a 	mov	r4,r2
 8000fa8:	800169c0 	call	800169c <__modsi3>
 8000fac:	1007883a 	mov	r3,r2
 8000fb0:	00840034 	movhi	r2,4096
 8000fb4:	10841804 	addi	r2,r2,4192
 8000fb8:	10c00035 	stwio	r3,0(r2)
	IOWR_ALTERA_AVALON_PIO_DATA(HEX2_BASE, rand()%127);
 8000fbc:	80018b80 	call	80018b8 <rand>
 8000fc0:	01401fc4 	movi	r5,127
 8000fc4:	1009883a 	mov	r4,r2
 8000fc8:	800169c0 	call	800169c <__modsi3>
 8000fcc:	1007883a 	mov	r3,r2
 8000fd0:	00840034 	movhi	r2,4096
 8000fd4:	10841404 	addi	r2,r2,4176
 8000fd8:	10c00035 	stwio	r3,0(r2)
	IOWR_ALTERA_AVALON_PIO_DATA(HEX3_BASE, rand()%127);
 8000fdc:	80018b80 	call	80018b8 <rand>
 8000fe0:	01401fc4 	movi	r5,127
 8000fe4:	1009883a 	mov	r4,r2
 8000fe8:	800169c0 	call	800169c <__modsi3>
 8000fec:	1007883a 	mov	r3,r2
 8000ff0:	00840034 	movhi	r2,4096
 8000ff4:	10841004 	addi	r2,r2,4160
 8000ff8:	10c00035 	stwio	r3,0(r2)
	IOWR_ALTERA_AVALON_PIO_DATA(HEX4_BASE, rand()%127);
 8000ffc:	80018b80 	call	80018b8 <rand>
 8001000:	01401fc4 	movi	r5,127
 8001004:	1009883a 	mov	r4,r2
 8001008:	800169c0 	call	800169c <__modsi3>
 800100c:	1007883a 	mov	r3,r2
 8001010:	00840034 	movhi	r2,4096
 8001014:	10840c04 	addi	r2,r2,4144
 8001018:	10c00035 	stwio	r3,0(r2)
	IOWR_ALTERA_AVALON_PIO_DATA(HEX5_BASE, rand()%127);
 800101c:	80018b80 	call	80018b8 <rand>
 8001020:	01401fc4 	movi	r5,127
 8001024:	1009883a 	mov	r4,r2
 8001028:	800169c0 	call	800169c <__modsi3>
 800102c:	1007883a 	mov	r3,r2
 8001030:	00840034 	movhi	r2,4096
 8001034:	10840804 	addi	r2,r2,4128
 8001038:	10c00035 	stwio	r3,0(r2)
	IOWR_ALTERA_AVALON_PIO_DATA(HEX6_BASE, rand()%127);
 800103c:	80018b80 	call	80018b8 <rand>
 8001040:	01401fc4 	movi	r5,127
 8001044:	1009883a 	mov	r4,r2
 8001048:	800169c0 	call	800169c <__modsi3>
 800104c:	1007883a 	mov	r3,r2
 8001050:	00840034 	movhi	r2,4096
 8001054:	10840404 	addi	r2,r2,4112
 8001058:	10c00035 	stwio	r3,0(r2)
	IOWR_ALTERA_AVALON_PIO_DATA(HEX7_BASE, rand()%127);
 800105c:	80018b80 	call	80018b8 <rand>
 8001060:	01401fc4 	movi	r5,127
 8001064:	1009883a 	mov	r4,r2
 8001068:	800169c0 	call	800169c <__modsi3>
 800106c:	1007883a 	mov	r3,r2
 8001070:	00840034 	movhi	r2,4096
 8001074:	10840004 	addi	r2,r2,4096
 8001078:	10c00035 	stwio	r3,0(r2)
}
 800107c:	0001883a 	nop
 8001080:	e037883a 	mov	sp,fp
 8001084:	dfc00117 	ldw	ra,4(sp)
 8001088:	df000017 	ldw	fp,0(sp)
 800108c:	dec00204 	addi	sp,sp,8
 8001090:	f800283a 	ret

08001094 <patternLights>:

// Light up
void patternLights (int pos) {
 8001094:	defffe04 	addi	sp,sp,-8
 8001098:	df000115 	stw	fp,4(sp)
 800109c:	df000104 	addi	fp,sp,4
 80010a0:	e13fff15 	stw	r4,-4(fp)
	if (pos == 0) {
 80010a4:	e0bfff17 	ldw	r2,-4(fp)
 80010a8:	1000051e 	bne	r2,zero,80010c0 <patternLights+0x2c>
		IOWR_ALTERA_AVALON_PIO_DATA(HEX0_BASE, 126);
 80010ac:	00c01f84 	movi	r3,126
 80010b0:	00840034 	movhi	r2,4096
 80010b4:	10841c04 	addi	r2,r2,4208
 80010b8:	10c00035 	stwio	r3,0(r2)
		IOWR_ALTERA_AVALON_PIO_DATA(HEX0_BASE, 123);
	}
	else if (pos == 19) {
		IOWR_ALTERA_AVALON_PIO_DATA(HEX0_BASE, 125);
	}
}
 80010bc:	0000cf06 	br	80013fc <patternLights+0x368>
// Light up
void patternLights (int pos) {
	if (pos == 0) {
		IOWR_ALTERA_AVALON_PIO_DATA(HEX0_BASE, 126);
	}
	else if (pos == 1) {
 80010c0:	e0bfff17 	ldw	r2,-4(fp)
 80010c4:	10800058 	cmpnei	r2,r2,1
 80010c8:	1000091e 	bne	r2,zero,80010f0 <patternLights+0x5c>
		IOWR_ALTERA_AVALON_PIO_DATA(HEX0_BASE, 127);
 80010cc:	00c01fc4 	movi	r3,127
 80010d0:	00840034 	movhi	r2,4096
 80010d4:	10841c04 	addi	r2,r2,4208
 80010d8:	10c00035 	stwio	r3,0(r2)
		IOWR_ALTERA_AVALON_PIO_DATA(HEX1_BASE, 126);
 80010dc:	00c01f84 	movi	r3,126
 80010e0:	00840034 	movhi	r2,4096
 80010e4:	10841804 	addi	r2,r2,4192
 80010e8:	10c00035 	stwio	r3,0(r2)
		IOWR_ALTERA_AVALON_PIO_DATA(HEX0_BASE, 123);
	}
	else if (pos == 19) {
		IOWR_ALTERA_AVALON_PIO_DATA(HEX0_BASE, 125);
	}
}
 80010ec:	0000c306 	br	80013fc <patternLights+0x368>
	}
	else if (pos == 1) {
		IOWR_ALTERA_AVALON_PIO_DATA(HEX0_BASE, 127);
		IOWR_ALTERA_AVALON_PIO_DATA(HEX1_BASE, 126);
	}
	else if (pos == 2) {
 80010f0:	e0bfff17 	ldw	r2,-4(fp)
 80010f4:	10800098 	cmpnei	r2,r2,2
 80010f8:	1000091e 	bne	r2,zero,8001120 <patternLights+0x8c>
		IOWR_ALTERA_AVALON_PIO_DATA(HEX1_BASE, 127);
 80010fc:	00c01fc4 	movi	r3,127
 8001100:	00840034 	movhi	r2,4096
 8001104:	10841804 	addi	r2,r2,4192
 8001108:	10c00035 	stwio	r3,0(r2)
		IOWR_ALTERA_AVALON_PIO_DATA(HEX2_BASE, 126);
 800110c:	00c01f84 	movi	r3,126
 8001110:	00840034 	movhi	r2,4096
 8001114:	10841404 	addi	r2,r2,4176
 8001118:	10c00035 	stwio	r3,0(r2)
		IOWR_ALTERA_AVALON_PIO_DATA(HEX0_BASE, 123);
	}
	else if (pos == 19) {
		IOWR_ALTERA_AVALON_PIO_DATA(HEX0_BASE, 125);
	}
}
 800111c:	0000b706 	br	80013fc <patternLights+0x368>
	}
	else if (pos == 2) {
		IOWR_ALTERA_AVALON_PIO_DATA(HEX1_BASE, 127);
		IOWR_ALTERA_AVALON_PIO_DATA(HEX2_BASE, 126);
	}
	else if (pos == 3) {
 8001120:	e0bfff17 	ldw	r2,-4(fp)
 8001124:	108000d8 	cmpnei	r2,r2,3
 8001128:	1000091e 	bne	r2,zero,8001150 <patternLights+0xbc>
		IOWR_ALTERA_AVALON_PIO_DATA(HEX2_BASE, 127);
 800112c:	00c01fc4 	movi	r3,127
 8001130:	00840034 	movhi	r2,4096
 8001134:	10841404 	addi	r2,r2,4176
 8001138:	10c00035 	stwio	r3,0(r2)
		IOWR_ALTERA_AVALON_PIO_DATA(HEX3_BASE, 126);
 800113c:	00c01f84 	movi	r3,126
 8001140:	00840034 	movhi	r2,4096
 8001144:	10841004 	addi	r2,r2,4160
 8001148:	10c00035 	stwio	r3,0(r2)
		IOWR_ALTERA_AVALON_PIO_DATA(HEX0_BASE, 123);
	}
	else if (pos == 19) {
		IOWR_ALTERA_AVALON_PIO_DATA(HEX0_BASE, 125);
	}
}
 800114c:	0000ab06 	br	80013fc <patternLights+0x368>
	}
	else if (pos == 3) {
		IOWR_ALTERA_AVALON_PIO_DATA(HEX2_BASE, 127);
		IOWR_ALTERA_AVALON_PIO_DATA(HEX3_BASE, 126);
	}
	else if (pos == 4) {
 8001150:	e0bfff17 	ldw	r2,-4(fp)
 8001154:	10800118 	cmpnei	r2,r2,4
 8001158:	1000091e 	bne	r2,zero,8001180 <patternLights+0xec>
		IOWR_ALTERA_AVALON_PIO_DATA(HEX3_BASE, 127);
 800115c:	00c01fc4 	movi	r3,127
 8001160:	00840034 	movhi	r2,4096
 8001164:	10841004 	addi	r2,r2,4160
 8001168:	10c00035 	stwio	r3,0(r2)
		IOWR_ALTERA_AVALON_PIO_DATA(HEX4_BASE, 126);
 800116c:	00c01f84 	movi	r3,126
 8001170:	00840034 	movhi	r2,4096
 8001174:	10840c04 	addi	r2,r2,4144
 8001178:	10c00035 	stwio	r3,0(r2)
		IOWR_ALTERA_AVALON_PIO_DATA(HEX0_BASE, 123);
	}
	else if (pos == 19) {
		IOWR_ALTERA_AVALON_PIO_DATA(HEX0_BASE, 125);
	}
}
 800117c:	00009f06 	br	80013fc <patternLights+0x368>
	}
	else if (pos == 4) {
		IOWR_ALTERA_AVALON_PIO_DATA(HEX3_BASE, 127);
		IOWR_ALTERA_AVALON_PIO_DATA(HEX4_BASE, 126);
	}
	else if (pos == 5) {
 8001180:	e0bfff17 	ldw	r2,-4(fp)
 8001184:	10800158 	cmpnei	r2,r2,5
 8001188:	1000091e 	bne	r2,zero,80011b0 <patternLights+0x11c>
		IOWR_ALTERA_AVALON_PIO_DATA(HEX4_BASE, 127);
 800118c:	00c01fc4 	movi	r3,127
 8001190:	00840034 	movhi	r2,4096
 8001194:	10840c04 	addi	r2,r2,4144
 8001198:	10c00035 	stwio	r3,0(r2)
		IOWR_ALTERA_AVALON_PIO_DATA(HEX5_BASE, 126);
 800119c:	00c01f84 	movi	r3,126
 80011a0:	00840034 	movhi	r2,4096
 80011a4:	10840804 	addi	r2,r2,4128
 80011a8:	10c00035 	stwio	r3,0(r2)
		IOWR_ALTERA_AVALON_PIO_DATA(HEX0_BASE, 123);
	}
	else if (pos == 19) {
		IOWR_ALTERA_AVALON_PIO_DATA(HEX0_BASE, 125);
	}
}
 80011ac:	00009306 	br	80013fc <patternLights+0x368>
	}
	else if (pos == 5) {
		IOWR_ALTERA_AVALON_PIO_DATA(HEX4_BASE, 127);
		IOWR_ALTERA_AVALON_PIO_DATA(HEX5_BASE, 126);
	}
	else if (pos == 6) {
 80011b0:	e0bfff17 	ldw	r2,-4(fp)
 80011b4:	10800198 	cmpnei	r2,r2,6
 80011b8:	1000091e 	bne	r2,zero,80011e0 <patternLights+0x14c>
		IOWR_ALTERA_AVALON_PIO_DATA(HEX5_BASE, 127);
 80011bc:	00c01fc4 	movi	r3,127
 80011c0:	00840034 	movhi	r2,4096
 80011c4:	10840804 	addi	r2,r2,4128
 80011c8:	10c00035 	stwio	r3,0(r2)
	    IOWR_ALTERA_AVALON_PIO_DATA(HEX6_BASE, 126);
 80011cc:	00c01f84 	movi	r3,126
 80011d0:	00840034 	movhi	r2,4096
 80011d4:	10840404 	addi	r2,r2,4112
 80011d8:	10c00035 	stwio	r3,0(r2)
		IOWR_ALTERA_AVALON_PIO_DATA(HEX0_BASE, 123);
	}
	else if (pos == 19) {
		IOWR_ALTERA_AVALON_PIO_DATA(HEX0_BASE, 125);
	}
}
 80011dc:	00008706 	br	80013fc <patternLights+0x368>
	}
	else if (pos == 6) {
		IOWR_ALTERA_AVALON_PIO_DATA(HEX5_BASE, 127);
	    IOWR_ALTERA_AVALON_PIO_DATA(HEX6_BASE, 126);
	}
	else if (pos == 7) {
 80011e0:	e0bfff17 	ldw	r2,-4(fp)
 80011e4:	108001d8 	cmpnei	r2,r2,7
 80011e8:	1000091e 	bne	r2,zero,8001210 <patternLights+0x17c>
		IOWR_ALTERA_AVALON_PIO_DATA(HEX6_BASE, 127);
 80011ec:	00c01fc4 	movi	r3,127
 80011f0:	00840034 	movhi	r2,4096
 80011f4:	10840404 	addi	r2,r2,4112
 80011f8:	10c00035 	stwio	r3,0(r2)
		IOWR_ALTERA_AVALON_PIO_DATA(HEX7_BASE, 126);
 80011fc:	00c01f84 	movi	r3,126
 8001200:	00840034 	movhi	r2,4096
 8001204:	10840004 	addi	r2,r2,4096
 8001208:	10c00035 	stwio	r3,0(r2)
		IOWR_ALTERA_AVALON_PIO_DATA(HEX0_BASE, 123);
	}
	else if (pos == 19) {
		IOWR_ALTERA_AVALON_PIO_DATA(HEX0_BASE, 125);
	}
}
 800120c:	00007b06 	br	80013fc <patternLights+0x368>
	}
	else if (pos == 7) {
		IOWR_ALTERA_AVALON_PIO_DATA(HEX6_BASE, 127);
		IOWR_ALTERA_AVALON_PIO_DATA(HEX7_BASE, 126);
	}
	else if (pos == 8) {
 8001210:	e0bfff17 	ldw	r2,-4(fp)
 8001214:	10800218 	cmpnei	r2,r2,8
 8001218:	1000051e 	bne	r2,zero,8001230 <patternLights+0x19c>
		IOWR_ALTERA_AVALON_PIO_DATA(HEX7_BASE, 95);
 800121c:	00c017c4 	movi	r3,95
 8001220:	00840034 	movhi	r2,4096
 8001224:	10840004 	addi	r2,r2,4096
 8001228:	10c00035 	stwio	r3,0(r2)
		IOWR_ALTERA_AVALON_PIO_DATA(HEX0_BASE, 123);
	}
	else if (pos == 19) {
		IOWR_ALTERA_AVALON_PIO_DATA(HEX0_BASE, 125);
	}
}
 800122c:	00007306 	br	80013fc <patternLights+0x368>
		IOWR_ALTERA_AVALON_PIO_DATA(HEX7_BASE, 126);
	}
	else if (pos == 8) {
		IOWR_ALTERA_AVALON_PIO_DATA(HEX7_BASE, 95);
	}
	else if (pos == 9) {
 8001230:	e0bfff17 	ldw	r2,-4(fp)
 8001234:	10800258 	cmpnei	r2,r2,9
 8001238:	1000051e 	bne	r2,zero,8001250 <patternLights+0x1bc>
		IOWR_ALTERA_AVALON_PIO_DATA(HEX7_BASE, 111);
 800123c:	00c01bc4 	movi	r3,111
 8001240:	00840034 	movhi	r2,4096
 8001244:	10840004 	addi	r2,r2,4096
 8001248:	10c00035 	stwio	r3,0(r2)
		IOWR_ALTERA_AVALON_PIO_DATA(HEX0_BASE, 123);
	}
	else if (pos == 19) {
		IOWR_ALTERA_AVALON_PIO_DATA(HEX0_BASE, 125);
	}
}
 800124c:	00006b06 	br	80013fc <patternLights+0x368>
		IOWR_ALTERA_AVALON_PIO_DATA(HEX7_BASE, 95);
	}
	else if (pos == 9) {
		IOWR_ALTERA_AVALON_PIO_DATA(HEX7_BASE, 111);
	}
	else if (pos == 10) {
 8001250:	e0bfff17 	ldw	r2,-4(fp)
 8001254:	10800298 	cmpnei	r2,r2,10
 8001258:	1000051e 	bne	r2,zero,8001270 <patternLights+0x1dc>
		IOWR_ALTERA_AVALON_PIO_DATA(HEX7_BASE, 119);
 800125c:	00c01dc4 	movi	r3,119
 8001260:	00840034 	movhi	r2,4096
 8001264:	10840004 	addi	r2,r2,4096
 8001268:	10c00035 	stwio	r3,0(r2)
		IOWR_ALTERA_AVALON_PIO_DATA(HEX0_BASE, 123);
	}
	else if (pos == 19) {
		IOWR_ALTERA_AVALON_PIO_DATA(HEX0_BASE, 125);
	}
}
 800126c:	00006306 	br	80013fc <patternLights+0x368>
		IOWR_ALTERA_AVALON_PIO_DATA(HEX7_BASE, 111);
	}
	else if (pos == 10) {
		IOWR_ALTERA_AVALON_PIO_DATA(HEX7_BASE, 119);
	}
	else if (pos == 11) {
 8001270:	e0bfff17 	ldw	r2,-4(fp)
 8001274:	108002d8 	cmpnei	r2,r2,11
 8001278:	1000091e 	bne	r2,zero,80012a0 <patternLights+0x20c>
		IOWR_ALTERA_AVALON_PIO_DATA(HEX7_BASE, 127);
 800127c:	00c01fc4 	movi	r3,127
 8001280:	00840034 	movhi	r2,4096
 8001284:	10840004 	addi	r2,r2,4096
 8001288:	10c00035 	stwio	r3,0(r2)
		IOWR_ALTERA_AVALON_PIO_DATA(HEX6_BASE, 119);
 800128c:	00c01dc4 	movi	r3,119
 8001290:	00840034 	movhi	r2,4096
 8001294:	10840404 	addi	r2,r2,4112
 8001298:	10c00035 	stwio	r3,0(r2)
		IOWR_ALTERA_AVALON_PIO_DATA(HEX0_BASE, 123);
	}
	else if (pos == 19) {
		IOWR_ALTERA_AVALON_PIO_DATA(HEX0_BASE, 125);
	}
}
 800129c:	00005706 	br	80013fc <patternLights+0x368>
	}
	else if (pos == 11) {
		IOWR_ALTERA_AVALON_PIO_DATA(HEX7_BASE, 127);
		IOWR_ALTERA_AVALON_PIO_DATA(HEX6_BASE, 119);
	}
	else if (pos == 12) {
 80012a0:	e0bfff17 	ldw	r2,-4(fp)
 80012a4:	10800318 	cmpnei	r2,r2,12
 80012a8:	1000091e 	bne	r2,zero,80012d0 <patternLights+0x23c>
		IOWR_ALTERA_AVALON_PIO_DATA(HEX6_BASE, 127);
 80012ac:	00c01fc4 	movi	r3,127
 80012b0:	00840034 	movhi	r2,4096
 80012b4:	10840404 	addi	r2,r2,4112
 80012b8:	10c00035 	stwio	r3,0(r2)
		IOWR_ALTERA_AVALON_PIO_DATA(HEX5_BASE, 119);
 80012bc:	00c01dc4 	movi	r3,119
 80012c0:	00840034 	movhi	r2,4096
 80012c4:	10840804 	addi	r2,r2,4128
 80012c8:	10c00035 	stwio	r3,0(r2)
		IOWR_ALTERA_AVALON_PIO_DATA(HEX0_BASE, 123);
	}
	else if (pos == 19) {
		IOWR_ALTERA_AVALON_PIO_DATA(HEX0_BASE, 125);
	}
}
 80012cc:	00004b06 	br	80013fc <patternLights+0x368>
	}
	else if (pos == 12) {
		IOWR_ALTERA_AVALON_PIO_DATA(HEX6_BASE, 127);
		IOWR_ALTERA_AVALON_PIO_DATA(HEX5_BASE, 119);
	}
	else if (pos == 13) {
 80012d0:	e0bfff17 	ldw	r2,-4(fp)
 80012d4:	10800358 	cmpnei	r2,r2,13
 80012d8:	1000091e 	bne	r2,zero,8001300 <patternLights+0x26c>
		IOWR_ALTERA_AVALON_PIO_DATA(HEX5_BASE, 127);
 80012dc:	00c01fc4 	movi	r3,127
 80012e0:	00840034 	movhi	r2,4096
 80012e4:	10840804 	addi	r2,r2,4128
 80012e8:	10c00035 	stwio	r3,0(r2)
		IOWR_ALTERA_AVALON_PIO_DATA(HEX4_BASE, 119);
 80012ec:	00c01dc4 	movi	r3,119
 80012f0:	00840034 	movhi	r2,4096
 80012f4:	10840c04 	addi	r2,r2,4144
 80012f8:	10c00035 	stwio	r3,0(r2)
		IOWR_ALTERA_AVALON_PIO_DATA(HEX0_BASE, 123);
	}
	else if (pos == 19) {
		IOWR_ALTERA_AVALON_PIO_DATA(HEX0_BASE, 125);
	}
}
 80012fc:	00003f06 	br	80013fc <patternLights+0x368>
	}
	else if (pos == 13) {
		IOWR_ALTERA_AVALON_PIO_DATA(HEX5_BASE, 127);
		IOWR_ALTERA_AVALON_PIO_DATA(HEX4_BASE, 119);
	}
	else if (pos == 14) {
 8001300:	e0bfff17 	ldw	r2,-4(fp)
 8001304:	10800398 	cmpnei	r2,r2,14
 8001308:	1000091e 	bne	r2,zero,8001330 <patternLights+0x29c>
		IOWR_ALTERA_AVALON_PIO_DATA(HEX4_BASE, 127);
 800130c:	00c01fc4 	movi	r3,127
 8001310:	00840034 	movhi	r2,4096
 8001314:	10840c04 	addi	r2,r2,4144
 8001318:	10c00035 	stwio	r3,0(r2)
		IOWR_ALTERA_AVALON_PIO_DATA(HEX3_BASE, 119);
 800131c:	00c01dc4 	movi	r3,119
 8001320:	00840034 	movhi	r2,4096
 8001324:	10841004 	addi	r2,r2,4160
 8001328:	10c00035 	stwio	r3,0(r2)
		IOWR_ALTERA_AVALON_PIO_DATA(HEX0_BASE, 123);
	}
	else if (pos == 19) {
		IOWR_ALTERA_AVALON_PIO_DATA(HEX0_BASE, 125);
	}
}
 800132c:	00003306 	br	80013fc <patternLights+0x368>
	}
	else if (pos == 14) {
		IOWR_ALTERA_AVALON_PIO_DATA(HEX4_BASE, 127);
		IOWR_ALTERA_AVALON_PIO_DATA(HEX3_BASE, 119);
	}
	else if (pos == 15) {
 8001330:	e0bfff17 	ldw	r2,-4(fp)
 8001334:	108003d8 	cmpnei	r2,r2,15
 8001338:	1000091e 	bne	r2,zero,8001360 <patternLights+0x2cc>
		IOWR_ALTERA_AVALON_PIO_DATA(HEX3_BASE, 127);
 800133c:	00c01fc4 	movi	r3,127
 8001340:	00840034 	movhi	r2,4096
 8001344:	10841004 	addi	r2,r2,4160
 8001348:	10c00035 	stwio	r3,0(r2)
		IOWR_ALTERA_AVALON_PIO_DATA(HEX2_BASE, 119);
 800134c:	00c01dc4 	movi	r3,119
 8001350:	00840034 	movhi	r2,4096
 8001354:	10841404 	addi	r2,r2,4176
 8001358:	10c00035 	stwio	r3,0(r2)
		IOWR_ALTERA_AVALON_PIO_DATA(HEX0_BASE, 123);
	}
	else if (pos == 19) {
		IOWR_ALTERA_AVALON_PIO_DATA(HEX0_BASE, 125);
	}
}
 800135c:	00002706 	br	80013fc <patternLights+0x368>
	}
	else if (pos == 15) {
		IOWR_ALTERA_AVALON_PIO_DATA(HEX3_BASE, 127);
		IOWR_ALTERA_AVALON_PIO_DATA(HEX2_BASE, 119);
	}
	else if (pos == 16) {
 8001360:	e0bfff17 	ldw	r2,-4(fp)
 8001364:	10800418 	cmpnei	r2,r2,16
 8001368:	1000091e 	bne	r2,zero,8001390 <patternLights+0x2fc>
		IOWR_ALTERA_AVALON_PIO_DATA(HEX2_BASE, 127);
 800136c:	00c01fc4 	movi	r3,127
 8001370:	00840034 	movhi	r2,4096
 8001374:	10841404 	addi	r2,r2,4176
 8001378:	10c00035 	stwio	r3,0(r2)
		IOWR_ALTERA_AVALON_PIO_DATA(HEX1_BASE, 119);
 800137c:	00c01dc4 	movi	r3,119
 8001380:	00840034 	movhi	r2,4096
 8001384:	10841804 	addi	r2,r2,4192
 8001388:	10c00035 	stwio	r3,0(r2)
		IOWR_ALTERA_AVALON_PIO_DATA(HEX0_BASE, 123);
	}
	else if (pos == 19) {
		IOWR_ALTERA_AVALON_PIO_DATA(HEX0_BASE, 125);
	}
}
 800138c:	00001b06 	br	80013fc <patternLights+0x368>
	}
	else if (pos == 16) {
		IOWR_ALTERA_AVALON_PIO_DATA(HEX2_BASE, 127);
		IOWR_ALTERA_AVALON_PIO_DATA(HEX1_BASE, 119);
	}
	else if (pos == 17) {
 8001390:	e0bfff17 	ldw	r2,-4(fp)
 8001394:	10800458 	cmpnei	r2,r2,17
 8001398:	1000091e 	bne	r2,zero,80013c0 <patternLights+0x32c>
		IOWR_ALTERA_AVALON_PIO_DATA(HEX1_BASE, 127);
 800139c:	00c01fc4 	movi	r3,127
 80013a0:	00840034 	movhi	r2,4096
 80013a4:	10841804 	addi	r2,r2,4192
 80013a8:	10c00035 	stwio	r3,0(r2)
		IOWR_ALTERA_AVALON_PIO_DATA(HEX0_BASE, 119);
 80013ac:	00c01dc4 	movi	r3,119
 80013b0:	00840034 	movhi	r2,4096
 80013b4:	10841c04 	addi	r2,r2,4208
 80013b8:	10c00035 	stwio	r3,0(r2)
		IOWR_ALTERA_AVALON_PIO_DATA(HEX0_BASE, 123);
	}
	else if (pos == 19) {
		IOWR_ALTERA_AVALON_PIO_DATA(HEX0_BASE, 125);
	}
}
 80013bc:	00000f06 	br	80013fc <patternLights+0x368>
	}
	else if (pos == 17) {
		IOWR_ALTERA_AVALON_PIO_DATA(HEX1_BASE, 127);
		IOWR_ALTERA_AVALON_PIO_DATA(HEX0_BASE, 119);
	}
	else if (pos == 18) {
 80013c0:	e0bfff17 	ldw	r2,-4(fp)
 80013c4:	10800498 	cmpnei	r2,r2,18
 80013c8:	1000051e 	bne	r2,zero,80013e0 <patternLights+0x34c>
		IOWR_ALTERA_AVALON_PIO_DATA(HEX0_BASE, 123);
 80013cc:	00c01ec4 	movi	r3,123
 80013d0:	00840034 	movhi	r2,4096
 80013d4:	10841c04 	addi	r2,r2,4208
 80013d8:	10c00035 	stwio	r3,0(r2)
	}
	else if (pos == 19) {
		IOWR_ALTERA_AVALON_PIO_DATA(HEX0_BASE, 125);
	}
}
 80013dc:	00000706 	br	80013fc <patternLights+0x368>
		IOWR_ALTERA_AVALON_PIO_DATA(HEX0_BASE, 119);
	}
	else if (pos == 18) {
		IOWR_ALTERA_AVALON_PIO_DATA(HEX0_BASE, 123);
	}
	else if (pos == 19) {
 80013e0:	e0bfff17 	ldw	r2,-4(fp)
 80013e4:	108004d8 	cmpnei	r2,r2,19
 80013e8:	1000041e 	bne	r2,zero,80013fc <patternLights+0x368>
		IOWR_ALTERA_AVALON_PIO_DATA(HEX0_BASE, 125);
 80013ec:	00c01f44 	movi	r3,125
 80013f0:	00840034 	movhi	r2,4096
 80013f4:	10841c04 	addi	r2,r2,4208
 80013f8:	10c00035 	stwio	r3,0(r2)
	}
}
 80013fc:	0001883a 	nop
 8001400:	e037883a 	mov	sp,fp
 8001404:	df000017 	ldw	fp,0(sp)
 8001408:	dec00104 	addi	sp,sp,4
 800140c:	f800283a 	ret

08001410 <main>:

int main()
{
 8001410:	defff804 	addi	sp,sp,-32
 8001414:	dfc00715 	stw	ra,28(sp)
 8001418:	df000615 	stw	fp,24(sp)
 800141c:	df000604 	addi	fp,sp,24
	alt_u32 current_value;
	alt_u32 current_state;
	alt_u8 current_direction;
	alt_u32 keys;

	current_state=3;
 8001420:	008000c4 	movi	r2,3
 8001424:	e0bffb15 	stw	r2,-20(fp)
	current_value=1;
 8001428:	00800044 	movi	r2,1
 800142c:	e0bffa15 	stw	r2,-24(fp)
	current_direction=0;
 8001430:	e03ffc05 	stb	zero,-16(fp)

	int pos = 0;
 8001434:	e03ffd15 	stw	zero,-12(fp)

	printf ("Program running (UART)...\n");
 8001438:	01020034 	movhi	r4,2048
 800143c:	211b3904 	addi	r4,r4,27876
 8001440:	800188c0 	call	800188c <puts>

	while (1) {
		// read the current state of the keys
		keys=IORD_ALTERA_AVALON_PIO_DATA(KEYS_BASE);
 8001444:	00840034 	movhi	r2,4096
 8001448:	10842004 	addi	r2,r2,4224
 800144c:	10800037 	ldwio	r2,0(r2)
 8001450:	e0bfff15 	stw	r2,-4(fp)

		// switch speed if necessary
		if ((keys != 7) && (keys != current_state)) {
 8001454:	e0bfff17 	ldw	r2,-4(fp)
 8001458:	108001e0 	cmpeqi	r2,r2,7
 800145c:	10002b1e 	bne	r2,zero,800150c <main+0xfc>
 8001460:	e0ffff17 	ldw	r3,-4(fp)
 8001464:	e0bffb17 	ldw	r2,-20(fp)
 8001468:	18802826 	beq	r3,r2,800150c <main+0xfc>
		if (keys == 3) {  // key 3, 250 ms, rand 7-seg config
 800146c:	e0bfff17 	ldw	r2,-4(fp)
 8001470:	108000d8 	cmpnei	r2,r2,3
 8001474:	1000051e 	bne	r2,zero,800148c <main+0x7c>
			clearDisplays();
 8001478:	80002900 	call	8000290 <clearDisplays>
			printf ("speed set to 250 ms\n");
 800147c:	01020034 	movhi	r4,2048
 8001480:	211b4004 	addi	r4,r4,27904
 8001484:	800188c0 	call	800188c <puts>
 8001488:	00001e06 	br	8001504 <main+0xf4>
		}
		else if (keys == 5) {  // key 2
 800148c:	e0bfff17 	ldw	r2,-4(fp)
 8001490:	10800158 	cmpnei	r2,r2,5
 8001494:	1000051e 	bne	r2,zero,80014ac <main+0x9c>
			clearDisplays();
 8001498:	80002900 	call	8000290 <clearDisplays>
			printf ("speed set to 150 ms\n");
 800149c:	01020034 	movhi	r4,2048
 80014a0:	211b4504 	addi	r4,r4,27924
 80014a4:	800188c0 	call	800188c <puts>
 80014a8:	00001606 	br	8001504 <main+0xf4>
		}
		else if (keys == 6) {  // key 1
 80014ac:	e0bfff17 	ldw	r2,-4(fp)
 80014b0:	10800198 	cmpnei	r2,r2,6
 80014b4:	1000131e 	bne	r2,zero,8001504 <main+0xf4>
			clearDisplays();
 80014b8:	80002900 	call	8000290 <clearDisplays>
			printf ("speed set to 50 ms\n");
 80014bc:	01020034 	movhi	r4,2048
 80014c0:	211b4a04 	addi	r4,r4,27944
 80014c4:	800188c0 	call	800188c <puts>
			for ( int i = 0; i < 9; i++ ) hexCount[ i ] = 0;
 80014c8:	e03ffe15 	stw	zero,-8(fp)
 80014cc:	00000a06 	br	80014f8 <main+0xe8>
 80014d0:	00820074 	movhi	r2,2049
 80014d4:	10a8b004 	addi	r2,r2,-23872
 80014d8:	e0fffe17 	ldw	r3,-8(fp)
 80014dc:	18c7883a 	add	r3,r3,r3
 80014e0:	18c7883a 	add	r3,r3,r3
 80014e4:	10c5883a 	add	r2,r2,r3
 80014e8:	10000015 	stw	zero,0(r2)
 80014ec:	e0bffe17 	ldw	r2,-8(fp)
 80014f0:	10800044 	addi	r2,r2,1
 80014f4:	e0bffe15 	stw	r2,-8(fp)
 80014f8:	e0bffe17 	ldw	r2,-8(fp)
 80014fc:	10800250 	cmplti	r2,r2,9
 8001500:	103ff31e 	bne	r2,zero,80014d0 <main+0xc0>
		}
		current_state=keys;
 8001504:	e0bfff17 	ldw	r2,-4(fp)
 8001508:	e0bffb15 	stw	r2,-20(fp)
		}

		// manage LEDS
		if ((current_direction==0) && (current_value==(1 << 25))) {  // switch direction if necessary
 800150c:	e0bffc03 	ldbu	r2,-16(fp)
 8001510:	1000061e 	bne	r2,zero,800152c <main+0x11c>
 8001514:	e0fffa17 	ldw	r3,-24(fp)
 8001518:	00808034 	movhi	r2,512
 800151c:	1880031e 	bne	r3,r2,800152c <main+0x11c>
			current_direction=1;
 8001520:	00800044 	movi	r2,1
 8001524:	e0bffc05 	stb	r2,-16(fp)
 8001528:	00001106 	br	8001570 <main+0x160>
		}
		else if ((current_direction==1) && (current_value==1)) {
 800152c:	e0bffc03 	ldbu	r2,-16(fp)
 8001530:	10800058 	cmpnei	r2,r2,1
 8001534:	1000051e 	bne	r2,zero,800154c <main+0x13c>
 8001538:	e0bffa17 	ldw	r2,-24(fp)
 800153c:	10800058 	cmpnei	r2,r2,1
 8001540:	1000021e 	bne	r2,zero,800154c <main+0x13c>
			current_direction=0;
 8001544:	e03ffc05 	stb	zero,-16(fp)
 8001548:	00000906 	br	8001570 <main+0x160>
		}
		else if (current_direction==0) {  // move light
 800154c:	e0bffc03 	ldbu	r2,-16(fp)
 8001550:	1000041e 	bne	r2,zero,8001564 <main+0x154>
			current_value = current_value << 1;
 8001554:	e0bffa17 	ldw	r2,-24(fp)
 8001558:	1085883a 	add	r2,r2,r2
 800155c:	e0bffa15 	stw	r2,-24(fp)
 8001560:	00000306 	br	8001570 <main+0x160>
		}
		else {
			current_value = current_value >> 1;
 8001564:	e0bffa17 	ldw	r2,-24(fp)
 8001568:	1004d07a 	srli	r2,r2,1
 800156c:	e0bffa15 	stw	r2,-24(fp)
		}

		// update lights
		if (current_state == 3) randLights();
 8001570:	e0bffb17 	ldw	r2,-20(fp)
 8001574:	108000d8 	cmpnei	r2,r2,3
 8001578:	1000011e 	bne	r2,zero,8001580 <main+0x170>
 800157c:	8000f500 	call	8000f50 <randLights>
		if (current_state == 5) {
 8001580:	e0bffb17 	ldw	r2,-20(fp)
 8001584:	10800158 	cmpnei	r2,r2,5
 8001588:	10000a1e 	bne	r2,zero,80015b4 <main+0x1a4>
			patternLights(pos);
 800158c:	e13ffd17 	ldw	r4,-12(fp)
 8001590:	80010940 	call	8001094 <patternLights>
			if (pos == 19) pos = 0;
 8001594:	e0bffd17 	ldw	r2,-12(fp)
 8001598:	108004d8 	cmpnei	r2,r2,19
 800159c:	1000021e 	bne	r2,zero,80015a8 <main+0x198>
 80015a0:	e03ffd15 	stw	zero,-12(fp)
 80015a4:	00000306 	br	80015b4 <main+0x1a4>
			else pos++;
 80015a8:	e0bffd17 	ldw	r2,-12(fp)
 80015ac:	10800044 	addi	r2,r2,1
 80015b0:	e0bffd15 	stw	r2,-12(fp)
		}
		if (current_state == 6) count( );
 80015b4:	e0bffb17 	ldw	r2,-20(fp)
 80015b8:	10800198 	cmpnei	r2,r2,6
 80015bc:	1000011e 	bne	r2,zero,80015c4 <main+0x1b4>
 80015c0:	80003d40 	call	80003d4 <count>

		IOWR_ALTERA_AVALON_PIO_DATA(LEDS_BASE,current_value);
 80015c4:	e0fffa17 	ldw	r3,-24(fp)
 80015c8:	00840034 	movhi	r2,4096
 80015cc:	10842404 	addi	r2,r2,4240
 80015d0:	10c00035 	stwio	r3,0(r2)

		// wait
		if (current_state==3) usleep (250000);
 80015d4:	e0bffb17 	ldw	r2,-20(fp)
 80015d8:	108000d8 	cmpnei	r2,r2,3
 80015dc:	1000041e 	bne	r2,zero,80015f0 <main+0x1e0>
 80015e0:	01000134 	movhi	r4,4
 80015e4:	21342404 	addi	r4,r4,-12144
 80015e8:	8004ccc0 	call	8004ccc <usleep>
 80015ec:	003f9506 	br	8001444 <main+0x34>
		else if (current_state==5) usleep (125000);
 80015f0:	e0bffb17 	ldw	r2,-20(fp)
 80015f4:	10800158 	cmpnei	r2,r2,5
 80015f8:	1000041e 	bne	r2,zero,800160c <main+0x1fc>
 80015fc:	010000b4 	movhi	r4,2
 8001600:	213a1204 	addi	r4,r4,-6072
 8001604:	8004ccc0 	call	8004ccc <usleep>
 8001608:	003f8e06 	br	8001444 <main+0x34>
		else usleep (50000);
 800160c:	0130d414 	movui	r4,50000
 8001610:	8004ccc0 	call	8004ccc <usleep>
	}
 8001614:	003f8b06 	br	8001444 <main+0x34>

08001618 <__divsi3>:
 8001618:	20001b16 	blt	r4,zero,8001688 <__divsi3+0x70>
 800161c:	000f883a 	mov	r7,zero
 8001620:	28001616 	blt	r5,zero,800167c <__divsi3+0x64>
 8001624:	200d883a 	mov	r6,r4
 8001628:	29001a2e 	bgeu	r5,r4,8001694 <__divsi3+0x7c>
 800162c:	00800804 	movi	r2,32
 8001630:	00c00044 	movi	r3,1
 8001634:	00000106 	br	800163c <__divsi3+0x24>
 8001638:	10000d26 	beq	r2,zero,8001670 <__divsi3+0x58>
 800163c:	294b883a 	add	r5,r5,r5
 8001640:	10bfffc4 	addi	r2,r2,-1
 8001644:	18c7883a 	add	r3,r3,r3
 8001648:	293ffb36 	bltu	r5,r4,8001638 <__divsi3+0x20>
 800164c:	0005883a 	mov	r2,zero
 8001650:	18000726 	beq	r3,zero,8001670 <__divsi3+0x58>
 8001654:	0005883a 	mov	r2,zero
 8001658:	31400236 	bltu	r6,r5,8001664 <__divsi3+0x4c>
 800165c:	314dc83a 	sub	r6,r6,r5
 8001660:	10c4b03a 	or	r2,r2,r3
 8001664:	1806d07a 	srli	r3,r3,1
 8001668:	280ad07a 	srli	r5,r5,1
 800166c:	183ffa1e 	bne	r3,zero,8001658 <__divsi3+0x40>
 8001670:	38000126 	beq	r7,zero,8001678 <__divsi3+0x60>
 8001674:	0085c83a 	sub	r2,zero,r2
 8001678:	f800283a 	ret
 800167c:	014bc83a 	sub	r5,zero,r5
 8001680:	39c0005c 	xori	r7,r7,1
 8001684:	003fe706 	br	8001624 <__divsi3+0xc>
 8001688:	0109c83a 	sub	r4,zero,r4
 800168c:	01c00044 	movi	r7,1
 8001690:	003fe306 	br	8001620 <__divsi3+0x8>
 8001694:	00c00044 	movi	r3,1
 8001698:	003fee06 	br	8001654 <__divsi3+0x3c>

0800169c <__modsi3>:
 800169c:	20001716 	blt	r4,zero,80016fc <__modsi3+0x60>
 80016a0:	000f883a 	mov	r7,zero
 80016a4:	2005883a 	mov	r2,r4
 80016a8:	28001216 	blt	r5,zero,80016f4 <__modsi3+0x58>
 80016ac:	2900162e 	bgeu	r5,r4,8001708 <__modsi3+0x6c>
 80016b0:	01800804 	movi	r6,32
 80016b4:	00c00044 	movi	r3,1
 80016b8:	00000106 	br	80016c0 <__modsi3+0x24>
 80016bc:	30000a26 	beq	r6,zero,80016e8 <__modsi3+0x4c>
 80016c0:	294b883a 	add	r5,r5,r5
 80016c4:	31bfffc4 	addi	r6,r6,-1
 80016c8:	18c7883a 	add	r3,r3,r3
 80016cc:	293ffb36 	bltu	r5,r4,80016bc <__modsi3+0x20>
 80016d0:	18000526 	beq	r3,zero,80016e8 <__modsi3+0x4c>
 80016d4:	1806d07a 	srli	r3,r3,1
 80016d8:	11400136 	bltu	r2,r5,80016e0 <__modsi3+0x44>
 80016dc:	1145c83a 	sub	r2,r2,r5
 80016e0:	280ad07a 	srli	r5,r5,1
 80016e4:	183ffb1e 	bne	r3,zero,80016d4 <__modsi3+0x38>
 80016e8:	38000126 	beq	r7,zero,80016f0 <__modsi3+0x54>
 80016ec:	0085c83a 	sub	r2,zero,r2
 80016f0:	f800283a 	ret
 80016f4:	014bc83a 	sub	r5,zero,r5
 80016f8:	003fec06 	br	80016ac <__modsi3+0x10>
 80016fc:	0109c83a 	sub	r4,zero,r4
 8001700:	01c00044 	movi	r7,1
 8001704:	003fe706 	br	80016a4 <__modsi3+0x8>
 8001708:	00c00044 	movi	r3,1
 800170c:	003ff106 	br	80016d4 <__modsi3+0x38>

08001710 <__udivsi3>:
 8001710:	200d883a 	mov	r6,r4
 8001714:	2900152e 	bgeu	r5,r4,800176c <__udivsi3+0x5c>
 8001718:	28001416 	blt	r5,zero,800176c <__udivsi3+0x5c>
 800171c:	00800804 	movi	r2,32
 8001720:	00c00044 	movi	r3,1
 8001724:	00000206 	br	8001730 <__udivsi3+0x20>
 8001728:	10000e26 	beq	r2,zero,8001764 <__udivsi3+0x54>
 800172c:	28000516 	blt	r5,zero,8001744 <__udivsi3+0x34>
 8001730:	294b883a 	add	r5,r5,r5
 8001734:	10bfffc4 	addi	r2,r2,-1
 8001738:	18c7883a 	add	r3,r3,r3
 800173c:	293ffa36 	bltu	r5,r4,8001728 <__udivsi3+0x18>
 8001740:	18000826 	beq	r3,zero,8001764 <__udivsi3+0x54>
 8001744:	0005883a 	mov	r2,zero
 8001748:	31400236 	bltu	r6,r5,8001754 <__udivsi3+0x44>
 800174c:	314dc83a 	sub	r6,r6,r5
 8001750:	10c4b03a 	or	r2,r2,r3
 8001754:	1806d07a 	srli	r3,r3,1
 8001758:	280ad07a 	srli	r5,r5,1
 800175c:	183ffa1e 	bne	r3,zero,8001748 <__udivsi3+0x38>
 8001760:	f800283a 	ret
 8001764:	0005883a 	mov	r2,zero
 8001768:	f800283a 	ret
 800176c:	00c00044 	movi	r3,1
 8001770:	003ff406 	br	8001744 <__udivsi3+0x34>

08001774 <__umodsi3>:
 8001774:	2005883a 	mov	r2,r4
 8001778:	2900122e 	bgeu	r5,r4,80017c4 <__umodsi3+0x50>
 800177c:	28001116 	blt	r5,zero,80017c4 <__umodsi3+0x50>
 8001780:	01800804 	movi	r6,32
 8001784:	00c00044 	movi	r3,1
 8001788:	00000206 	br	8001794 <__umodsi3+0x20>
 800178c:	30000c26 	beq	r6,zero,80017c0 <__umodsi3+0x4c>
 8001790:	28000516 	blt	r5,zero,80017a8 <__umodsi3+0x34>
 8001794:	294b883a 	add	r5,r5,r5
 8001798:	31bfffc4 	addi	r6,r6,-1
 800179c:	18c7883a 	add	r3,r3,r3
 80017a0:	293ffa36 	bltu	r5,r4,800178c <__umodsi3+0x18>
 80017a4:	18000626 	beq	r3,zero,80017c0 <__umodsi3+0x4c>
 80017a8:	1806d07a 	srli	r3,r3,1
 80017ac:	11400136 	bltu	r2,r5,80017b4 <__umodsi3+0x40>
 80017b0:	1145c83a 	sub	r2,r2,r5
 80017b4:	280ad07a 	srli	r5,r5,1
 80017b8:	183ffb1e 	bne	r3,zero,80017a8 <__umodsi3+0x34>
 80017bc:	f800283a 	ret
 80017c0:	f800283a 	ret
 80017c4:	00c00044 	movi	r3,1
 80017c8:	003ff706 	br	80017a8 <__umodsi3+0x34>

080017cc <_puts_r>:
 80017cc:	defff604 	addi	sp,sp,-40
 80017d0:	dc000715 	stw	r16,28(sp)
 80017d4:	2021883a 	mov	r16,r4
 80017d8:	2809883a 	mov	r4,r5
 80017dc:	dc400815 	stw	r17,32(sp)
 80017e0:	dfc00915 	stw	ra,36(sp)
 80017e4:	2823883a 	mov	r17,r5
 80017e8:	800191c0 	call	800191c <strlen>
 80017ec:	10c00044 	addi	r3,r2,1
 80017f0:	d8800115 	stw	r2,4(sp)
 80017f4:	00820034 	movhi	r2,2048
 80017f8:	109b4f04 	addi	r2,r2,27964
 80017fc:	d8800215 	stw	r2,8(sp)
 8001800:	00800044 	movi	r2,1
 8001804:	d8800315 	stw	r2,12(sp)
 8001808:	00800084 	movi	r2,2
 800180c:	dc400015 	stw	r17,0(sp)
 8001810:	d8c00615 	stw	r3,24(sp)
 8001814:	dec00415 	stw	sp,16(sp)
 8001818:	d8800515 	stw	r2,20(sp)
 800181c:	80000226 	beq	r16,zero,8001828 <_puts_r+0x5c>
 8001820:	80800e17 	ldw	r2,56(r16)
 8001824:	10001426 	beq	r2,zero,8001878 <_puts_r+0xac>
 8001828:	81400217 	ldw	r5,8(r16)
 800182c:	2880030b 	ldhu	r2,12(r5)
 8001830:	10c8000c 	andi	r3,r2,8192
 8001834:	1800061e 	bne	r3,zero,8001850 <_puts_r+0x84>
 8001838:	29001917 	ldw	r4,100(r5)
 800183c:	00f7ffc4 	movi	r3,-8193
 8001840:	10880014 	ori	r2,r2,8192
 8001844:	20c6703a 	and	r3,r4,r3
 8001848:	2880030d 	sth	r2,12(r5)
 800184c:	28c01915 	stw	r3,100(r5)
 8001850:	d9800404 	addi	r6,sp,16
 8001854:	8009883a 	mov	r4,r16
 8001858:	8001d540 	call	8001d54 <__sfvwrite_r>
 800185c:	1000091e 	bne	r2,zero,8001884 <_puts_r+0xb8>
 8001860:	00800284 	movi	r2,10
 8001864:	dfc00917 	ldw	ra,36(sp)
 8001868:	dc400817 	ldw	r17,32(sp)
 800186c:	dc000717 	ldw	r16,28(sp)
 8001870:	dec00a04 	addi	sp,sp,40
 8001874:	f800283a 	ret
 8001878:	8009883a 	mov	r4,r16
 800187c:	8001d040 	call	8001d04 <__sinit>
 8001880:	003fe906 	br	8001828 <_puts_r+0x5c>
 8001884:	00bfffc4 	movi	r2,-1
 8001888:	003ff606 	br	8001864 <_puts_r+0x98>

0800188c <puts>:
 800188c:	00820074 	movhi	r2,2049
 8001890:	10a1ec04 	addi	r2,r2,-30800
 8001894:	200b883a 	mov	r5,r4
 8001898:	11000017 	ldw	r4,0(r2)
 800189c:	80017cc1 	jmpi	80017cc <_puts_r>

080018a0 <srand>:
 80018a0:	00820074 	movhi	r2,2049
 80018a4:	10a1ec04 	addi	r2,r2,-30800
 80018a8:	10800017 	ldw	r2,0(r2)
 80018ac:	11002915 	stw	r4,164(r2)
 80018b0:	10002a15 	stw	zero,168(r2)
 80018b4:	f800283a 	ret

080018b8 <rand>:
 80018b8:	00820074 	movhi	r2,2049
 80018bc:	defffe04 	addi	sp,sp,-8
 80018c0:	10a1ec04 	addi	r2,r2,-30800
 80018c4:	dc000015 	stw	r16,0(sp)
 80018c8:	14000017 	ldw	r16,0(r2)
 80018cc:	dfc00115 	stw	ra,4(sp)
 80018d0:	01932574 	movhi	r6,19605
 80018d4:	81002917 	ldw	r4,164(r16)
 80018d8:	81402a17 	ldw	r5,168(r16)
 80018dc:	01d614b4 	movhi	r7,22610
 80018e0:	319fcb44 	addi	r6,r6,32557
 80018e4:	39fd0b44 	addi	r7,r7,-3027
 80018e8:	800445c0 	call	800445c <__muldi3>
 80018ec:	11000044 	addi	r4,r2,1
 80018f0:	2085803a 	cmpltu	r2,r4,r2
 80018f4:	10c7883a 	add	r3,r2,r3
 80018f8:	00a00034 	movhi	r2,32768
 80018fc:	10bfffc4 	addi	r2,r2,-1
 8001900:	1884703a 	and	r2,r3,r2
 8001904:	81002915 	stw	r4,164(r16)
 8001908:	80c02a15 	stw	r3,168(r16)
 800190c:	dfc00117 	ldw	ra,4(sp)
 8001910:	dc000017 	ldw	r16,0(sp)
 8001914:	dec00204 	addi	sp,sp,8
 8001918:	f800283a 	ret

0800191c <strlen>:
 800191c:	208000cc 	andi	r2,r4,3
 8001920:	10002026 	beq	r2,zero,80019a4 <strlen+0x88>
 8001924:	20800007 	ldb	r2,0(r4)
 8001928:	10002026 	beq	r2,zero,80019ac <strlen+0x90>
 800192c:	2005883a 	mov	r2,r4
 8001930:	00000206 	br	800193c <strlen+0x20>
 8001934:	10c00007 	ldb	r3,0(r2)
 8001938:	18001826 	beq	r3,zero,800199c <strlen+0x80>
 800193c:	10800044 	addi	r2,r2,1
 8001940:	10c000cc 	andi	r3,r2,3
 8001944:	183ffb1e 	bne	r3,zero,8001934 <strlen+0x18>
 8001948:	10c00017 	ldw	r3,0(r2)
 800194c:	01ffbff4 	movhi	r7,65279
 8001950:	39ffbfc4 	addi	r7,r7,-257
 8001954:	00ca303a 	nor	r5,zero,r3
 8001958:	01a02074 	movhi	r6,32897
 800195c:	19c7883a 	add	r3,r3,r7
 8001960:	31a02004 	addi	r6,r6,-32640
 8001964:	1946703a 	and	r3,r3,r5
 8001968:	1986703a 	and	r3,r3,r6
 800196c:	1800091e 	bne	r3,zero,8001994 <strlen+0x78>
 8001970:	10800104 	addi	r2,r2,4
 8001974:	10c00017 	ldw	r3,0(r2)
 8001978:	19cb883a 	add	r5,r3,r7
 800197c:	00c6303a 	nor	r3,zero,r3
 8001980:	28c6703a 	and	r3,r5,r3
 8001984:	1986703a 	and	r3,r3,r6
 8001988:	183ff926 	beq	r3,zero,8001970 <strlen+0x54>
 800198c:	00000106 	br	8001994 <strlen+0x78>
 8001990:	10800044 	addi	r2,r2,1
 8001994:	10c00007 	ldb	r3,0(r2)
 8001998:	183ffd1e 	bne	r3,zero,8001990 <strlen+0x74>
 800199c:	1105c83a 	sub	r2,r2,r4
 80019a0:	f800283a 	ret
 80019a4:	2005883a 	mov	r2,r4
 80019a8:	003fe706 	br	8001948 <strlen+0x2c>
 80019ac:	0005883a 	mov	r2,zero
 80019b0:	f800283a 	ret

080019b4 <__fp_unlock>:
 80019b4:	0005883a 	mov	r2,zero
 80019b8:	f800283a 	ret

080019bc <_cleanup_r>:
 80019bc:	01420034 	movhi	r5,2048
 80019c0:	294e5404 	addi	r5,r5,14672
 80019c4:	80022d41 	jmpi	80022d4 <_fwalk_reent>

080019c8 <__sinit.part.1>:
 80019c8:	defff704 	addi	sp,sp,-36
 80019cc:	00c20034 	movhi	r3,2048
 80019d0:	dfc00815 	stw	ra,32(sp)
 80019d4:	ddc00715 	stw	r23,28(sp)
 80019d8:	dd800615 	stw	r22,24(sp)
 80019dc:	dd400515 	stw	r21,20(sp)
 80019e0:	dd000415 	stw	r20,16(sp)
 80019e4:	dcc00315 	stw	r19,12(sp)
 80019e8:	dc800215 	stw	r18,8(sp)
 80019ec:	dc400115 	stw	r17,4(sp)
 80019f0:	dc000015 	stw	r16,0(sp)
 80019f4:	18c66f04 	addi	r3,r3,6588
 80019f8:	24000117 	ldw	r16,4(r4)
 80019fc:	20c00f15 	stw	r3,60(r4)
 8001a00:	2080bb04 	addi	r2,r4,748
 8001a04:	00c000c4 	movi	r3,3
 8001a08:	20c0b915 	stw	r3,740(r4)
 8001a0c:	2080ba15 	stw	r2,744(r4)
 8001a10:	2000b815 	stw	zero,736(r4)
 8001a14:	05c00204 	movi	r23,8
 8001a18:	00800104 	movi	r2,4
 8001a1c:	2025883a 	mov	r18,r4
 8001a20:	b80d883a 	mov	r6,r23
 8001a24:	81001704 	addi	r4,r16,92
 8001a28:	000b883a 	mov	r5,zero
 8001a2c:	80000015 	stw	zero,0(r16)
 8001a30:	80000115 	stw	zero,4(r16)
 8001a34:	80000215 	stw	zero,8(r16)
 8001a38:	8080030d 	sth	r2,12(r16)
 8001a3c:	80001915 	stw	zero,100(r16)
 8001a40:	8000038d 	sth	zero,14(r16)
 8001a44:	80000415 	stw	zero,16(r16)
 8001a48:	80000515 	stw	zero,20(r16)
 8001a4c:	80000615 	stw	zero,24(r16)
 8001a50:	8002f2c0 	call	8002f2c <memset>
 8001a54:	05820034 	movhi	r22,2048
 8001a58:	94400217 	ldw	r17,8(r18)
 8001a5c:	05420034 	movhi	r21,2048
 8001a60:	05020034 	movhi	r20,2048
 8001a64:	04c20034 	movhi	r19,2048
 8001a68:	b58d8304 	addi	r22,r22,13836
 8001a6c:	ad4d9a04 	addi	r21,r21,13928
 8001a70:	a50db904 	addi	r20,r20,14052
 8001a74:	9ccdd004 	addi	r19,r19,14144
 8001a78:	85800815 	stw	r22,32(r16)
 8001a7c:	85400915 	stw	r21,36(r16)
 8001a80:	85000a15 	stw	r20,40(r16)
 8001a84:	84c00b15 	stw	r19,44(r16)
 8001a88:	84000715 	stw	r16,28(r16)
 8001a8c:	00800284 	movi	r2,10
 8001a90:	8880030d 	sth	r2,12(r17)
 8001a94:	00800044 	movi	r2,1
 8001a98:	b80d883a 	mov	r6,r23
 8001a9c:	89001704 	addi	r4,r17,92
 8001aa0:	000b883a 	mov	r5,zero
 8001aa4:	88000015 	stw	zero,0(r17)
 8001aa8:	88000115 	stw	zero,4(r17)
 8001aac:	88000215 	stw	zero,8(r17)
 8001ab0:	88001915 	stw	zero,100(r17)
 8001ab4:	8880038d 	sth	r2,14(r17)
 8001ab8:	88000415 	stw	zero,16(r17)
 8001abc:	88000515 	stw	zero,20(r17)
 8001ac0:	88000615 	stw	zero,24(r17)
 8001ac4:	8002f2c0 	call	8002f2c <memset>
 8001ac8:	94000317 	ldw	r16,12(r18)
 8001acc:	00800484 	movi	r2,18
 8001ad0:	8c400715 	stw	r17,28(r17)
 8001ad4:	8d800815 	stw	r22,32(r17)
 8001ad8:	8d400915 	stw	r21,36(r17)
 8001adc:	8d000a15 	stw	r20,40(r17)
 8001ae0:	8cc00b15 	stw	r19,44(r17)
 8001ae4:	8080030d 	sth	r2,12(r16)
 8001ae8:	00800084 	movi	r2,2
 8001aec:	80000015 	stw	zero,0(r16)
 8001af0:	80000115 	stw	zero,4(r16)
 8001af4:	80000215 	stw	zero,8(r16)
 8001af8:	80001915 	stw	zero,100(r16)
 8001afc:	8080038d 	sth	r2,14(r16)
 8001b00:	80000415 	stw	zero,16(r16)
 8001b04:	80000515 	stw	zero,20(r16)
 8001b08:	80000615 	stw	zero,24(r16)
 8001b0c:	b80d883a 	mov	r6,r23
 8001b10:	000b883a 	mov	r5,zero
 8001b14:	81001704 	addi	r4,r16,92
 8001b18:	8002f2c0 	call	8002f2c <memset>
 8001b1c:	00800044 	movi	r2,1
 8001b20:	84000715 	stw	r16,28(r16)
 8001b24:	85800815 	stw	r22,32(r16)
 8001b28:	85400915 	stw	r21,36(r16)
 8001b2c:	85000a15 	stw	r20,40(r16)
 8001b30:	84c00b15 	stw	r19,44(r16)
 8001b34:	90800e15 	stw	r2,56(r18)
 8001b38:	dfc00817 	ldw	ra,32(sp)
 8001b3c:	ddc00717 	ldw	r23,28(sp)
 8001b40:	dd800617 	ldw	r22,24(sp)
 8001b44:	dd400517 	ldw	r21,20(sp)
 8001b48:	dd000417 	ldw	r20,16(sp)
 8001b4c:	dcc00317 	ldw	r19,12(sp)
 8001b50:	dc800217 	ldw	r18,8(sp)
 8001b54:	dc400117 	ldw	r17,4(sp)
 8001b58:	dc000017 	ldw	r16,0(sp)
 8001b5c:	dec00904 	addi	sp,sp,36
 8001b60:	f800283a 	ret

08001b64 <__fp_lock>:
 8001b64:	0005883a 	mov	r2,zero
 8001b68:	f800283a 	ret

08001b6c <__sfmoreglue>:
 8001b6c:	defffc04 	addi	sp,sp,-16
 8001b70:	dc400115 	stw	r17,4(sp)
 8001b74:	2c7fffc4 	addi	r17,r5,-1
 8001b78:	8c401a24 	muli	r17,r17,104
 8001b7c:	dc800215 	stw	r18,8(sp)
 8001b80:	2825883a 	mov	r18,r5
 8001b84:	89401d04 	addi	r5,r17,116
 8001b88:	dc000015 	stw	r16,0(sp)
 8001b8c:	dfc00315 	stw	ra,12(sp)
 8001b90:	80023980 	call	8002398 <_malloc_r>
 8001b94:	1021883a 	mov	r16,r2
 8001b98:	10000726 	beq	r2,zero,8001bb8 <__sfmoreglue+0x4c>
 8001b9c:	11000304 	addi	r4,r2,12
 8001ba0:	10000015 	stw	zero,0(r2)
 8001ba4:	14800115 	stw	r18,4(r2)
 8001ba8:	11000215 	stw	r4,8(r2)
 8001bac:	89801a04 	addi	r6,r17,104
 8001bb0:	000b883a 	mov	r5,zero
 8001bb4:	8002f2c0 	call	8002f2c <memset>
 8001bb8:	8005883a 	mov	r2,r16
 8001bbc:	dfc00317 	ldw	ra,12(sp)
 8001bc0:	dc800217 	ldw	r18,8(sp)
 8001bc4:	dc400117 	ldw	r17,4(sp)
 8001bc8:	dc000017 	ldw	r16,0(sp)
 8001bcc:	dec00404 	addi	sp,sp,16
 8001bd0:	f800283a 	ret

08001bd4 <__sfp>:
 8001bd4:	defffb04 	addi	sp,sp,-20
 8001bd8:	dc000015 	stw	r16,0(sp)
 8001bdc:	04020074 	movhi	r16,2049
 8001be0:	8421eb04 	addi	r16,r16,-30804
 8001be4:	dcc00315 	stw	r19,12(sp)
 8001be8:	2027883a 	mov	r19,r4
 8001bec:	81000017 	ldw	r4,0(r16)
 8001bf0:	dfc00415 	stw	ra,16(sp)
 8001bf4:	dc800215 	stw	r18,8(sp)
 8001bf8:	20800e17 	ldw	r2,56(r4)
 8001bfc:	dc400115 	stw	r17,4(sp)
 8001c00:	1000021e 	bne	r2,zero,8001c0c <__sfp+0x38>
 8001c04:	80019c80 	call	80019c8 <__sinit.part.1>
 8001c08:	81000017 	ldw	r4,0(r16)
 8001c0c:	2480b804 	addi	r18,r4,736
 8001c10:	047fffc4 	movi	r17,-1
 8001c14:	91000117 	ldw	r4,4(r18)
 8001c18:	94000217 	ldw	r16,8(r18)
 8001c1c:	213fffc4 	addi	r4,r4,-1
 8001c20:	20000a16 	blt	r4,zero,8001c4c <__sfp+0x78>
 8001c24:	8080030f 	ldh	r2,12(r16)
 8001c28:	10000c26 	beq	r2,zero,8001c5c <__sfp+0x88>
 8001c2c:	80c01d04 	addi	r3,r16,116
 8001c30:	00000206 	br	8001c3c <__sfp+0x68>
 8001c34:	18bfe60f 	ldh	r2,-104(r3)
 8001c38:	10000826 	beq	r2,zero,8001c5c <__sfp+0x88>
 8001c3c:	213fffc4 	addi	r4,r4,-1
 8001c40:	1c3ffd04 	addi	r16,r3,-12
 8001c44:	18c01a04 	addi	r3,r3,104
 8001c48:	247ffa1e 	bne	r4,r17,8001c34 <__sfp+0x60>
 8001c4c:	90800017 	ldw	r2,0(r18)
 8001c50:	10001d26 	beq	r2,zero,8001cc8 <__sfp+0xf4>
 8001c54:	1025883a 	mov	r18,r2
 8001c58:	003fee06 	br	8001c14 <__sfp+0x40>
 8001c5c:	00bfffc4 	movi	r2,-1
 8001c60:	8080038d 	sth	r2,14(r16)
 8001c64:	00800044 	movi	r2,1
 8001c68:	8080030d 	sth	r2,12(r16)
 8001c6c:	80001915 	stw	zero,100(r16)
 8001c70:	80000015 	stw	zero,0(r16)
 8001c74:	80000215 	stw	zero,8(r16)
 8001c78:	80000115 	stw	zero,4(r16)
 8001c7c:	80000415 	stw	zero,16(r16)
 8001c80:	80000515 	stw	zero,20(r16)
 8001c84:	80000615 	stw	zero,24(r16)
 8001c88:	01800204 	movi	r6,8
 8001c8c:	000b883a 	mov	r5,zero
 8001c90:	81001704 	addi	r4,r16,92
 8001c94:	8002f2c0 	call	8002f2c <memset>
 8001c98:	8005883a 	mov	r2,r16
 8001c9c:	80000c15 	stw	zero,48(r16)
 8001ca0:	80000d15 	stw	zero,52(r16)
 8001ca4:	80001115 	stw	zero,68(r16)
 8001ca8:	80001215 	stw	zero,72(r16)
 8001cac:	dfc00417 	ldw	ra,16(sp)
 8001cb0:	dcc00317 	ldw	r19,12(sp)
 8001cb4:	dc800217 	ldw	r18,8(sp)
 8001cb8:	dc400117 	ldw	r17,4(sp)
 8001cbc:	dc000017 	ldw	r16,0(sp)
 8001cc0:	dec00504 	addi	sp,sp,20
 8001cc4:	f800283a 	ret
 8001cc8:	01400104 	movi	r5,4
 8001ccc:	9809883a 	mov	r4,r19
 8001cd0:	8001b6c0 	call	8001b6c <__sfmoreglue>
 8001cd4:	90800015 	stw	r2,0(r18)
 8001cd8:	103fde1e 	bne	r2,zero,8001c54 <__sfp+0x80>
 8001cdc:	00800304 	movi	r2,12
 8001ce0:	98800015 	stw	r2,0(r19)
 8001ce4:	0005883a 	mov	r2,zero
 8001ce8:	003ff006 	br	8001cac <__sfp+0xd8>

08001cec <_cleanup>:
 8001cec:	00820074 	movhi	r2,2049
 8001cf0:	10a1eb04 	addi	r2,r2,-30804
 8001cf4:	11000017 	ldw	r4,0(r2)
 8001cf8:	01420034 	movhi	r5,2048
 8001cfc:	294e5404 	addi	r5,r5,14672
 8001d00:	80022d41 	jmpi	80022d4 <_fwalk_reent>

08001d04 <__sinit>:
 8001d04:	20800e17 	ldw	r2,56(r4)
 8001d08:	10000126 	beq	r2,zero,8001d10 <__sinit+0xc>
 8001d0c:	f800283a 	ret
 8001d10:	80019c81 	jmpi	80019c8 <__sinit.part.1>

08001d14 <__sfp_lock_acquire>:
 8001d14:	f800283a 	ret

08001d18 <__sfp_lock_release>:
 8001d18:	f800283a 	ret

08001d1c <__sinit_lock_acquire>:
 8001d1c:	f800283a 	ret

08001d20 <__sinit_lock_release>:
 8001d20:	f800283a 	ret

08001d24 <__fp_lock_all>:
 8001d24:	00820074 	movhi	r2,2049
 8001d28:	10a1ec04 	addi	r2,r2,-30800
 8001d2c:	11000017 	ldw	r4,0(r2)
 8001d30:	01420034 	movhi	r5,2048
 8001d34:	2946d904 	addi	r5,r5,7012
 8001d38:	80022101 	jmpi	8002210 <_fwalk>

08001d3c <__fp_unlock_all>:
 8001d3c:	00820074 	movhi	r2,2049
 8001d40:	10a1ec04 	addi	r2,r2,-30800
 8001d44:	11000017 	ldw	r4,0(r2)
 8001d48:	01420034 	movhi	r5,2048
 8001d4c:	29466d04 	addi	r5,r5,6580
 8001d50:	80022101 	jmpi	8002210 <_fwalk>

08001d54 <__sfvwrite_r>:
 8001d54:	30800217 	ldw	r2,8(r6)
 8001d58:	10006726 	beq	r2,zero,8001ef8 <__sfvwrite_r+0x1a4>
 8001d5c:	28c0030b 	ldhu	r3,12(r5)
 8001d60:	defff404 	addi	sp,sp,-48
 8001d64:	dd400715 	stw	r21,28(sp)
 8001d68:	dd000615 	stw	r20,24(sp)
 8001d6c:	dc000215 	stw	r16,8(sp)
 8001d70:	dfc00b15 	stw	ra,44(sp)
 8001d74:	df000a15 	stw	fp,40(sp)
 8001d78:	ddc00915 	stw	r23,36(sp)
 8001d7c:	dd800815 	stw	r22,32(sp)
 8001d80:	dcc00515 	stw	r19,20(sp)
 8001d84:	dc800415 	stw	r18,16(sp)
 8001d88:	dc400315 	stw	r17,12(sp)
 8001d8c:	1880020c 	andi	r2,r3,8
 8001d90:	2821883a 	mov	r16,r5
 8001d94:	202b883a 	mov	r21,r4
 8001d98:	3029883a 	mov	r20,r6
 8001d9c:	10002726 	beq	r2,zero,8001e3c <__sfvwrite_r+0xe8>
 8001da0:	28800417 	ldw	r2,16(r5)
 8001da4:	10002526 	beq	r2,zero,8001e3c <__sfvwrite_r+0xe8>
 8001da8:	1880008c 	andi	r2,r3,2
 8001dac:	a4400017 	ldw	r17,0(r20)
 8001db0:	10002a26 	beq	r2,zero,8001e5c <__sfvwrite_r+0x108>
 8001db4:	05a00034 	movhi	r22,32768
 8001db8:	0027883a 	mov	r19,zero
 8001dbc:	0025883a 	mov	r18,zero
 8001dc0:	b5bf0004 	addi	r22,r22,-1024
 8001dc4:	980d883a 	mov	r6,r19
 8001dc8:	a809883a 	mov	r4,r21
 8001dcc:	90004626 	beq	r18,zero,8001ee8 <__sfvwrite_r+0x194>
 8001dd0:	900f883a 	mov	r7,r18
 8001dd4:	b480022e 	bgeu	r22,r18,8001de0 <__sfvwrite_r+0x8c>
 8001dd8:	01e00034 	movhi	r7,32768
 8001ddc:	39ff0004 	addi	r7,r7,-1024
 8001de0:	80800917 	ldw	r2,36(r16)
 8001de4:	81400717 	ldw	r5,28(r16)
 8001de8:	103ee83a 	callr	r2
 8001dec:	0080570e 	bge	zero,r2,8001f4c <__sfvwrite_r+0x1f8>
 8001df0:	a0c00217 	ldw	r3,8(r20)
 8001df4:	98a7883a 	add	r19,r19,r2
 8001df8:	90a5c83a 	sub	r18,r18,r2
 8001dfc:	1885c83a 	sub	r2,r3,r2
 8001e00:	a0800215 	stw	r2,8(r20)
 8001e04:	103fef1e 	bne	r2,zero,8001dc4 <__sfvwrite_r+0x70>
 8001e08:	0005883a 	mov	r2,zero
 8001e0c:	dfc00b17 	ldw	ra,44(sp)
 8001e10:	df000a17 	ldw	fp,40(sp)
 8001e14:	ddc00917 	ldw	r23,36(sp)
 8001e18:	dd800817 	ldw	r22,32(sp)
 8001e1c:	dd400717 	ldw	r21,28(sp)
 8001e20:	dd000617 	ldw	r20,24(sp)
 8001e24:	dcc00517 	ldw	r19,20(sp)
 8001e28:	dc800417 	ldw	r18,16(sp)
 8001e2c:	dc400317 	ldw	r17,12(sp)
 8001e30:	dc000217 	ldw	r16,8(sp)
 8001e34:	dec00c04 	addi	sp,sp,48
 8001e38:	f800283a 	ret
 8001e3c:	800b883a 	mov	r5,r16
 8001e40:	a809883a 	mov	r4,r21
 8001e44:	80037a80 	call	80037a8 <__swsetup_r>
 8001e48:	1000eb1e 	bne	r2,zero,80021f8 <__sfvwrite_r+0x4a4>
 8001e4c:	80c0030b 	ldhu	r3,12(r16)
 8001e50:	a4400017 	ldw	r17,0(r20)
 8001e54:	1880008c 	andi	r2,r3,2
 8001e58:	103fd61e 	bne	r2,zero,8001db4 <__sfvwrite_r+0x60>
 8001e5c:	1880004c 	andi	r2,r3,1
 8001e60:	10003f1e 	bne	r2,zero,8001f60 <__sfvwrite_r+0x20c>
 8001e64:	0039883a 	mov	fp,zero
 8001e68:	0025883a 	mov	r18,zero
 8001e6c:	90001a26 	beq	r18,zero,8001ed8 <__sfvwrite_r+0x184>
 8001e70:	1880800c 	andi	r2,r3,512
 8001e74:	84c00217 	ldw	r19,8(r16)
 8001e78:	10002126 	beq	r2,zero,8001f00 <__sfvwrite_r+0x1ac>
 8001e7c:	982f883a 	mov	r23,r19
 8001e80:	94c09336 	bltu	r18,r19,80020d0 <__sfvwrite_r+0x37c>
 8001e84:	1881200c 	andi	r2,r3,1152
 8001e88:	10009e1e 	bne	r2,zero,8002104 <__sfvwrite_r+0x3b0>
 8001e8c:	81000017 	ldw	r4,0(r16)
 8001e90:	b80d883a 	mov	r6,r23
 8001e94:	e00b883a 	mov	r5,fp
 8001e98:	8002dd00 	call	8002dd0 <memmove>
 8001e9c:	80c00217 	ldw	r3,8(r16)
 8001ea0:	81000017 	ldw	r4,0(r16)
 8001ea4:	9005883a 	mov	r2,r18
 8001ea8:	1ce7c83a 	sub	r19,r3,r19
 8001eac:	25cf883a 	add	r7,r4,r23
 8001eb0:	84c00215 	stw	r19,8(r16)
 8001eb4:	81c00015 	stw	r7,0(r16)
 8001eb8:	a0c00217 	ldw	r3,8(r20)
 8001ebc:	e0b9883a 	add	fp,fp,r2
 8001ec0:	90a5c83a 	sub	r18,r18,r2
 8001ec4:	18a7c83a 	sub	r19,r3,r2
 8001ec8:	a4c00215 	stw	r19,8(r20)
 8001ecc:	983fce26 	beq	r19,zero,8001e08 <__sfvwrite_r+0xb4>
 8001ed0:	80c0030b 	ldhu	r3,12(r16)
 8001ed4:	903fe61e 	bne	r18,zero,8001e70 <__sfvwrite_r+0x11c>
 8001ed8:	8f000017 	ldw	fp,0(r17)
 8001edc:	8c800117 	ldw	r18,4(r17)
 8001ee0:	8c400204 	addi	r17,r17,8
 8001ee4:	003fe106 	br	8001e6c <__sfvwrite_r+0x118>
 8001ee8:	8cc00017 	ldw	r19,0(r17)
 8001eec:	8c800117 	ldw	r18,4(r17)
 8001ef0:	8c400204 	addi	r17,r17,8
 8001ef4:	003fb306 	br	8001dc4 <__sfvwrite_r+0x70>
 8001ef8:	0005883a 	mov	r2,zero
 8001efc:	f800283a 	ret
 8001f00:	81000017 	ldw	r4,0(r16)
 8001f04:	80800417 	ldw	r2,16(r16)
 8001f08:	11005736 	bltu	r2,r4,8002068 <__sfvwrite_r+0x314>
 8001f0c:	85c00517 	ldw	r23,20(r16)
 8001f10:	95c05536 	bltu	r18,r23,8002068 <__sfvwrite_r+0x314>
 8001f14:	00a00034 	movhi	r2,32768
 8001f18:	10bfffc4 	addi	r2,r2,-1
 8001f1c:	9009883a 	mov	r4,r18
 8001f20:	1480012e 	bgeu	r2,r18,8001f28 <__sfvwrite_r+0x1d4>
 8001f24:	1009883a 	mov	r4,r2
 8001f28:	b80b883a 	mov	r5,r23
 8001f2c:	80016180 	call	8001618 <__divsi3>
 8001f30:	15cf383a 	mul	r7,r2,r23
 8001f34:	81400717 	ldw	r5,28(r16)
 8001f38:	80800917 	ldw	r2,36(r16)
 8001f3c:	e00d883a 	mov	r6,fp
 8001f40:	a809883a 	mov	r4,r21
 8001f44:	103ee83a 	callr	r2
 8001f48:	00bfdb16 	blt	zero,r2,8001eb8 <__sfvwrite_r+0x164>
 8001f4c:	8080030b 	ldhu	r2,12(r16)
 8001f50:	10801014 	ori	r2,r2,64
 8001f54:	8080030d 	sth	r2,12(r16)
 8001f58:	00bfffc4 	movi	r2,-1
 8001f5c:	003fab06 	br	8001e0c <__sfvwrite_r+0xb8>
 8001f60:	0027883a 	mov	r19,zero
 8001f64:	0011883a 	mov	r8,zero
 8001f68:	0039883a 	mov	fp,zero
 8001f6c:	0025883a 	mov	r18,zero
 8001f70:	90001f26 	beq	r18,zero,8001ff0 <__sfvwrite_r+0x29c>
 8001f74:	40005a26 	beq	r8,zero,80020e0 <__sfvwrite_r+0x38c>
 8001f78:	982d883a 	mov	r22,r19
 8001f7c:	94c0012e 	bgeu	r18,r19,8001f84 <__sfvwrite_r+0x230>
 8001f80:	902d883a 	mov	r22,r18
 8001f84:	81000017 	ldw	r4,0(r16)
 8001f88:	80800417 	ldw	r2,16(r16)
 8001f8c:	b02f883a 	mov	r23,r22
 8001f90:	81c00517 	ldw	r7,20(r16)
 8001f94:	1100032e 	bgeu	r2,r4,8001fa4 <__sfvwrite_r+0x250>
 8001f98:	80c00217 	ldw	r3,8(r16)
 8001f9c:	38c7883a 	add	r3,r7,r3
 8001fa0:	1d801816 	blt	r3,r22,8002004 <__sfvwrite_r+0x2b0>
 8001fa4:	b1c03e16 	blt	r22,r7,80020a0 <__sfvwrite_r+0x34c>
 8001fa8:	80800917 	ldw	r2,36(r16)
 8001fac:	81400717 	ldw	r5,28(r16)
 8001fb0:	e00d883a 	mov	r6,fp
 8001fb4:	da000115 	stw	r8,4(sp)
 8001fb8:	a809883a 	mov	r4,r21
 8001fbc:	103ee83a 	callr	r2
 8001fc0:	102f883a 	mov	r23,r2
 8001fc4:	da000117 	ldw	r8,4(sp)
 8001fc8:	00bfe00e 	bge	zero,r2,8001f4c <__sfvwrite_r+0x1f8>
 8001fcc:	9de7c83a 	sub	r19,r19,r23
 8001fd0:	98001f26 	beq	r19,zero,8002050 <__sfvwrite_r+0x2fc>
 8001fd4:	a0800217 	ldw	r2,8(r20)
 8001fd8:	e5f9883a 	add	fp,fp,r23
 8001fdc:	95e5c83a 	sub	r18,r18,r23
 8001fe0:	15efc83a 	sub	r23,r2,r23
 8001fe4:	a5c00215 	stw	r23,8(r20)
 8001fe8:	b83f8726 	beq	r23,zero,8001e08 <__sfvwrite_r+0xb4>
 8001fec:	903fe11e 	bne	r18,zero,8001f74 <__sfvwrite_r+0x220>
 8001ff0:	8f000017 	ldw	fp,0(r17)
 8001ff4:	8c800117 	ldw	r18,4(r17)
 8001ff8:	0011883a 	mov	r8,zero
 8001ffc:	8c400204 	addi	r17,r17,8
 8002000:	003fdb06 	br	8001f70 <__sfvwrite_r+0x21c>
 8002004:	180d883a 	mov	r6,r3
 8002008:	e00b883a 	mov	r5,fp
 800200c:	da000115 	stw	r8,4(sp)
 8002010:	d8c00015 	stw	r3,0(sp)
 8002014:	8002dd00 	call	8002dd0 <memmove>
 8002018:	d8c00017 	ldw	r3,0(sp)
 800201c:	80800017 	ldw	r2,0(r16)
 8002020:	800b883a 	mov	r5,r16
 8002024:	a809883a 	mov	r4,r21
 8002028:	10c5883a 	add	r2,r2,r3
 800202c:	80800015 	stw	r2,0(r16)
 8002030:	d8c00015 	stw	r3,0(sp)
 8002034:	8003c700 	call	8003c70 <_fflush_r>
 8002038:	d8c00017 	ldw	r3,0(sp)
 800203c:	da000117 	ldw	r8,4(sp)
 8002040:	103fc21e 	bne	r2,zero,8001f4c <__sfvwrite_r+0x1f8>
 8002044:	182f883a 	mov	r23,r3
 8002048:	9de7c83a 	sub	r19,r19,r23
 800204c:	983fe11e 	bne	r19,zero,8001fd4 <__sfvwrite_r+0x280>
 8002050:	800b883a 	mov	r5,r16
 8002054:	a809883a 	mov	r4,r21
 8002058:	8003c700 	call	8003c70 <_fflush_r>
 800205c:	103fbb1e 	bne	r2,zero,8001f4c <__sfvwrite_r+0x1f8>
 8002060:	0011883a 	mov	r8,zero
 8002064:	003fdb06 	br	8001fd4 <__sfvwrite_r+0x280>
 8002068:	94c0012e 	bgeu	r18,r19,8002070 <__sfvwrite_r+0x31c>
 800206c:	9027883a 	mov	r19,r18
 8002070:	980d883a 	mov	r6,r19
 8002074:	e00b883a 	mov	r5,fp
 8002078:	8002dd00 	call	8002dd0 <memmove>
 800207c:	80800217 	ldw	r2,8(r16)
 8002080:	80c00017 	ldw	r3,0(r16)
 8002084:	14c5c83a 	sub	r2,r2,r19
 8002088:	1cc7883a 	add	r3,r3,r19
 800208c:	80800215 	stw	r2,8(r16)
 8002090:	80c00015 	stw	r3,0(r16)
 8002094:	10004326 	beq	r2,zero,80021a4 <__sfvwrite_r+0x450>
 8002098:	9805883a 	mov	r2,r19
 800209c:	003f8606 	br	8001eb8 <__sfvwrite_r+0x164>
 80020a0:	b00d883a 	mov	r6,r22
 80020a4:	e00b883a 	mov	r5,fp
 80020a8:	da000115 	stw	r8,4(sp)
 80020ac:	8002dd00 	call	8002dd0 <memmove>
 80020b0:	80800217 	ldw	r2,8(r16)
 80020b4:	80c00017 	ldw	r3,0(r16)
 80020b8:	da000117 	ldw	r8,4(sp)
 80020bc:	1585c83a 	sub	r2,r2,r22
 80020c0:	1dad883a 	add	r22,r3,r22
 80020c4:	80800215 	stw	r2,8(r16)
 80020c8:	85800015 	stw	r22,0(r16)
 80020cc:	003fbf06 	br	8001fcc <__sfvwrite_r+0x278>
 80020d0:	81000017 	ldw	r4,0(r16)
 80020d4:	9027883a 	mov	r19,r18
 80020d8:	902f883a 	mov	r23,r18
 80020dc:	003f6c06 	br	8001e90 <__sfvwrite_r+0x13c>
 80020e0:	900d883a 	mov	r6,r18
 80020e4:	01400284 	movi	r5,10
 80020e8:	e009883a 	mov	r4,fp
 80020ec:	8002ba40 	call	8002ba4 <memchr>
 80020f0:	10003e26 	beq	r2,zero,80021ec <__sfvwrite_r+0x498>
 80020f4:	10800044 	addi	r2,r2,1
 80020f8:	1727c83a 	sub	r19,r2,fp
 80020fc:	02000044 	movi	r8,1
 8002100:	003f9d06 	br	8001f78 <__sfvwrite_r+0x224>
 8002104:	80800517 	ldw	r2,20(r16)
 8002108:	81400417 	ldw	r5,16(r16)
 800210c:	81c00017 	ldw	r7,0(r16)
 8002110:	10a7883a 	add	r19,r2,r2
 8002114:	9885883a 	add	r2,r19,r2
 8002118:	1026d7fa 	srli	r19,r2,31
 800211c:	396dc83a 	sub	r22,r7,r5
 8002120:	b1000044 	addi	r4,r22,1
 8002124:	9885883a 	add	r2,r19,r2
 8002128:	1027d07a 	srai	r19,r2,1
 800212c:	2485883a 	add	r2,r4,r18
 8002130:	980d883a 	mov	r6,r19
 8002134:	9880022e 	bgeu	r19,r2,8002140 <__sfvwrite_r+0x3ec>
 8002138:	1027883a 	mov	r19,r2
 800213c:	100d883a 	mov	r6,r2
 8002140:	18c1000c 	andi	r3,r3,1024
 8002144:	18001c26 	beq	r3,zero,80021b8 <__sfvwrite_r+0x464>
 8002148:	300b883a 	mov	r5,r6
 800214c:	a809883a 	mov	r4,r21
 8002150:	80023980 	call	8002398 <_malloc_r>
 8002154:	102f883a 	mov	r23,r2
 8002158:	10002926 	beq	r2,zero,8002200 <__sfvwrite_r+0x4ac>
 800215c:	81400417 	ldw	r5,16(r16)
 8002160:	b00d883a 	mov	r6,r22
 8002164:	1009883a 	mov	r4,r2
 8002168:	8002c880 	call	8002c88 <memcpy>
 800216c:	8080030b 	ldhu	r2,12(r16)
 8002170:	00fedfc4 	movi	r3,-1153
 8002174:	10c4703a 	and	r2,r2,r3
 8002178:	10802014 	ori	r2,r2,128
 800217c:	8080030d 	sth	r2,12(r16)
 8002180:	bd89883a 	add	r4,r23,r22
 8002184:	9d8fc83a 	sub	r7,r19,r22
 8002188:	85c00415 	stw	r23,16(r16)
 800218c:	84c00515 	stw	r19,20(r16)
 8002190:	81000015 	stw	r4,0(r16)
 8002194:	9027883a 	mov	r19,r18
 8002198:	81c00215 	stw	r7,8(r16)
 800219c:	902f883a 	mov	r23,r18
 80021a0:	003f3b06 	br	8001e90 <__sfvwrite_r+0x13c>
 80021a4:	800b883a 	mov	r5,r16
 80021a8:	a809883a 	mov	r4,r21
 80021ac:	8003c700 	call	8003c70 <_fflush_r>
 80021b0:	103fb926 	beq	r2,zero,8002098 <__sfvwrite_r+0x344>
 80021b4:	003f6506 	br	8001f4c <__sfvwrite_r+0x1f8>
 80021b8:	a809883a 	mov	r4,r21
 80021bc:	80030540 	call	8003054 <_realloc_r>
 80021c0:	102f883a 	mov	r23,r2
 80021c4:	103fee1e 	bne	r2,zero,8002180 <__sfvwrite_r+0x42c>
 80021c8:	81400417 	ldw	r5,16(r16)
 80021cc:	a809883a 	mov	r4,r21
 80021d0:	8003e200 	call	8003e20 <_free_r>
 80021d4:	8080030b 	ldhu	r2,12(r16)
 80021d8:	00ffdfc4 	movi	r3,-129
 80021dc:	1884703a 	and	r2,r3,r2
 80021e0:	00c00304 	movi	r3,12
 80021e4:	a8c00015 	stw	r3,0(r21)
 80021e8:	003f5906 	br	8001f50 <__sfvwrite_r+0x1fc>
 80021ec:	94c00044 	addi	r19,r18,1
 80021f0:	02000044 	movi	r8,1
 80021f4:	003f6006 	br	8001f78 <__sfvwrite_r+0x224>
 80021f8:	00bfffc4 	movi	r2,-1
 80021fc:	003f0306 	br	8001e0c <__sfvwrite_r+0xb8>
 8002200:	00800304 	movi	r2,12
 8002204:	a8800015 	stw	r2,0(r21)
 8002208:	8080030b 	ldhu	r2,12(r16)
 800220c:	003f5006 	br	8001f50 <__sfvwrite_r+0x1fc>

08002210 <_fwalk>:
 8002210:	defff704 	addi	sp,sp,-36
 8002214:	dd000415 	stw	r20,16(sp)
 8002218:	dfc00815 	stw	ra,32(sp)
 800221c:	ddc00715 	stw	r23,28(sp)
 8002220:	dd800615 	stw	r22,24(sp)
 8002224:	dd400515 	stw	r21,20(sp)
 8002228:	dcc00315 	stw	r19,12(sp)
 800222c:	dc800215 	stw	r18,8(sp)
 8002230:	dc400115 	stw	r17,4(sp)
 8002234:	dc000015 	stw	r16,0(sp)
 8002238:	2500b804 	addi	r20,r4,736
 800223c:	a0002326 	beq	r20,zero,80022cc <_fwalk+0xbc>
 8002240:	282b883a 	mov	r21,r5
 8002244:	002f883a 	mov	r23,zero
 8002248:	05800044 	movi	r22,1
 800224c:	04ffffc4 	movi	r19,-1
 8002250:	a4400117 	ldw	r17,4(r20)
 8002254:	a4800217 	ldw	r18,8(r20)
 8002258:	8c7fffc4 	addi	r17,r17,-1
 800225c:	88000d16 	blt	r17,zero,8002294 <_fwalk+0x84>
 8002260:	94000304 	addi	r16,r18,12
 8002264:	94800384 	addi	r18,r18,14
 8002268:	8080000b 	ldhu	r2,0(r16)
 800226c:	8c7fffc4 	addi	r17,r17,-1
 8002270:	813ffd04 	addi	r4,r16,-12
 8002274:	b080042e 	bgeu	r22,r2,8002288 <_fwalk+0x78>
 8002278:	9080000f 	ldh	r2,0(r18)
 800227c:	14c00226 	beq	r2,r19,8002288 <_fwalk+0x78>
 8002280:	a83ee83a 	callr	r21
 8002284:	b8aeb03a 	or	r23,r23,r2
 8002288:	84001a04 	addi	r16,r16,104
 800228c:	94801a04 	addi	r18,r18,104
 8002290:	8cfff51e 	bne	r17,r19,8002268 <_fwalk+0x58>
 8002294:	a5000017 	ldw	r20,0(r20)
 8002298:	a03fed1e 	bne	r20,zero,8002250 <_fwalk+0x40>
 800229c:	b805883a 	mov	r2,r23
 80022a0:	dfc00817 	ldw	ra,32(sp)
 80022a4:	ddc00717 	ldw	r23,28(sp)
 80022a8:	dd800617 	ldw	r22,24(sp)
 80022ac:	dd400517 	ldw	r21,20(sp)
 80022b0:	dd000417 	ldw	r20,16(sp)
 80022b4:	dcc00317 	ldw	r19,12(sp)
 80022b8:	dc800217 	ldw	r18,8(sp)
 80022bc:	dc400117 	ldw	r17,4(sp)
 80022c0:	dc000017 	ldw	r16,0(sp)
 80022c4:	dec00904 	addi	sp,sp,36
 80022c8:	f800283a 	ret
 80022cc:	002f883a 	mov	r23,zero
 80022d0:	003ff206 	br	800229c <_fwalk+0x8c>

080022d4 <_fwalk_reent>:
 80022d4:	defff704 	addi	sp,sp,-36
 80022d8:	dd000415 	stw	r20,16(sp)
 80022dc:	dfc00815 	stw	ra,32(sp)
 80022e0:	ddc00715 	stw	r23,28(sp)
 80022e4:	dd800615 	stw	r22,24(sp)
 80022e8:	dd400515 	stw	r21,20(sp)
 80022ec:	dcc00315 	stw	r19,12(sp)
 80022f0:	dc800215 	stw	r18,8(sp)
 80022f4:	dc400115 	stw	r17,4(sp)
 80022f8:	dc000015 	stw	r16,0(sp)
 80022fc:	2500b804 	addi	r20,r4,736
 8002300:	a0002326 	beq	r20,zero,8002390 <_fwalk_reent+0xbc>
 8002304:	282b883a 	mov	r21,r5
 8002308:	2027883a 	mov	r19,r4
 800230c:	002f883a 	mov	r23,zero
 8002310:	05800044 	movi	r22,1
 8002314:	04bfffc4 	movi	r18,-1
 8002318:	a4400117 	ldw	r17,4(r20)
 800231c:	a4000217 	ldw	r16,8(r20)
 8002320:	8c7fffc4 	addi	r17,r17,-1
 8002324:	88000c16 	blt	r17,zero,8002358 <_fwalk_reent+0x84>
 8002328:	84000304 	addi	r16,r16,12
 800232c:	8080000b 	ldhu	r2,0(r16)
 8002330:	8c7fffc4 	addi	r17,r17,-1
 8002334:	817ffd04 	addi	r5,r16,-12
 8002338:	b080052e 	bgeu	r22,r2,8002350 <_fwalk_reent+0x7c>
 800233c:	8080008f 	ldh	r2,2(r16)
 8002340:	9809883a 	mov	r4,r19
 8002344:	14800226 	beq	r2,r18,8002350 <_fwalk_reent+0x7c>
 8002348:	a83ee83a 	callr	r21
 800234c:	b8aeb03a 	or	r23,r23,r2
 8002350:	84001a04 	addi	r16,r16,104
 8002354:	8cbff51e 	bne	r17,r18,800232c <_fwalk_reent+0x58>
 8002358:	a5000017 	ldw	r20,0(r20)
 800235c:	a03fee1e 	bne	r20,zero,8002318 <_fwalk_reent+0x44>
 8002360:	b805883a 	mov	r2,r23
 8002364:	dfc00817 	ldw	ra,32(sp)
 8002368:	ddc00717 	ldw	r23,28(sp)
 800236c:	dd800617 	ldw	r22,24(sp)
 8002370:	dd400517 	ldw	r21,20(sp)
 8002374:	dd000417 	ldw	r20,16(sp)
 8002378:	dcc00317 	ldw	r19,12(sp)
 800237c:	dc800217 	ldw	r18,8(sp)
 8002380:	dc400117 	ldw	r17,4(sp)
 8002384:	dc000017 	ldw	r16,0(sp)
 8002388:	dec00904 	addi	sp,sp,36
 800238c:	f800283a 	ret
 8002390:	002f883a 	mov	r23,zero
 8002394:	003ff206 	br	8002360 <_fwalk_reent+0x8c>

08002398 <_malloc_r>:
 8002398:	defff504 	addi	sp,sp,-44
 800239c:	dc800315 	stw	r18,12(sp)
 80023a0:	dfc00a15 	stw	ra,40(sp)
 80023a4:	df000915 	stw	fp,36(sp)
 80023a8:	ddc00815 	stw	r23,32(sp)
 80023ac:	dd800715 	stw	r22,28(sp)
 80023b0:	dd400615 	stw	r21,24(sp)
 80023b4:	dd000515 	stw	r20,20(sp)
 80023b8:	dcc00415 	stw	r19,16(sp)
 80023bc:	dc400215 	stw	r17,8(sp)
 80023c0:	dc000115 	stw	r16,4(sp)
 80023c4:	288002c4 	addi	r2,r5,11
 80023c8:	00c00584 	movi	r3,22
 80023cc:	2025883a 	mov	r18,r4
 80023d0:	18807f2e 	bgeu	r3,r2,80025d0 <_malloc_r+0x238>
 80023d4:	047ffe04 	movi	r17,-8
 80023d8:	1462703a 	and	r17,r2,r17
 80023dc:	8800a316 	blt	r17,zero,800266c <_malloc_r+0x2d4>
 80023e0:	8940a236 	bltu	r17,r5,800266c <_malloc_r+0x2d4>
 80023e4:	8004a380 	call	8004a38 <__malloc_lock>
 80023e8:	00807dc4 	movi	r2,503
 80023ec:	1441e92e 	bgeu	r2,r17,8002b94 <_malloc_r+0x7fc>
 80023f0:	8804d27a 	srli	r2,r17,9
 80023f4:	1000a126 	beq	r2,zero,800267c <_malloc_r+0x2e4>
 80023f8:	00c00104 	movi	r3,4
 80023fc:	18811e36 	bltu	r3,r2,8002878 <_malloc_r+0x4e0>
 8002400:	8804d1ba 	srli	r2,r17,6
 8002404:	12000e44 	addi	r8,r2,57
 8002408:	11c00e04 	addi	r7,r2,56
 800240c:	4209883a 	add	r4,r8,r8
 8002410:	04c20034 	movhi	r19,2048
 8002414:	2109883a 	add	r4,r4,r4
 8002418:	9cdc6704 	addi	r19,r19,29084
 800241c:	2109883a 	add	r4,r4,r4
 8002420:	9909883a 	add	r4,r19,r4
 8002424:	24000117 	ldw	r16,4(r4)
 8002428:	213ffe04 	addi	r4,r4,-8
 800242c:	24009726 	beq	r4,r16,800268c <_malloc_r+0x2f4>
 8002430:	80800117 	ldw	r2,4(r16)
 8002434:	01bfff04 	movi	r6,-4
 8002438:	014003c4 	movi	r5,15
 800243c:	1184703a 	and	r2,r2,r6
 8002440:	1447c83a 	sub	r3,r2,r17
 8002444:	28c00716 	blt	r5,r3,8002464 <_malloc_r+0xcc>
 8002448:	1800920e 	bge	r3,zero,8002694 <_malloc_r+0x2fc>
 800244c:	84000317 	ldw	r16,12(r16)
 8002450:	24008e26 	beq	r4,r16,800268c <_malloc_r+0x2f4>
 8002454:	80800117 	ldw	r2,4(r16)
 8002458:	1184703a 	and	r2,r2,r6
 800245c:	1447c83a 	sub	r3,r2,r17
 8002460:	28fff90e 	bge	r5,r3,8002448 <_malloc_r+0xb0>
 8002464:	3809883a 	mov	r4,r7
 8002468:	01820034 	movhi	r6,2048
 800246c:	9c000417 	ldw	r16,16(r19)
 8002470:	319c6704 	addi	r6,r6,29084
 8002474:	32000204 	addi	r8,r6,8
 8002478:	82013426 	beq	r16,r8,800294c <_malloc_r+0x5b4>
 800247c:	80c00117 	ldw	r3,4(r16)
 8002480:	00bfff04 	movi	r2,-4
 8002484:	188e703a 	and	r7,r3,r2
 8002488:	3c45c83a 	sub	r2,r7,r17
 800248c:	00c003c4 	movi	r3,15
 8002490:	18811f16 	blt	r3,r2,8002910 <_malloc_r+0x578>
 8002494:	32000515 	stw	r8,20(r6)
 8002498:	32000415 	stw	r8,16(r6)
 800249c:	10007f0e 	bge	r2,zero,800269c <_malloc_r+0x304>
 80024a0:	00807fc4 	movi	r2,511
 80024a4:	11c0fd36 	bltu	r2,r7,800289c <_malloc_r+0x504>
 80024a8:	3806d0fa 	srli	r3,r7,3
 80024ac:	01c00044 	movi	r7,1
 80024b0:	30800117 	ldw	r2,4(r6)
 80024b4:	19400044 	addi	r5,r3,1
 80024b8:	294b883a 	add	r5,r5,r5
 80024bc:	1807d0ba 	srai	r3,r3,2
 80024c0:	294b883a 	add	r5,r5,r5
 80024c4:	294b883a 	add	r5,r5,r5
 80024c8:	298b883a 	add	r5,r5,r6
 80024cc:	38c6983a 	sll	r3,r7,r3
 80024d0:	29c00017 	ldw	r7,0(r5)
 80024d4:	2a7ffe04 	addi	r9,r5,-8
 80024d8:	1886b03a 	or	r3,r3,r2
 80024dc:	82400315 	stw	r9,12(r16)
 80024e0:	81c00215 	stw	r7,8(r16)
 80024e4:	30c00115 	stw	r3,4(r6)
 80024e8:	2c000015 	stw	r16,0(r5)
 80024ec:	3c000315 	stw	r16,12(r7)
 80024f0:	2005d0ba 	srai	r2,r4,2
 80024f4:	01400044 	movi	r5,1
 80024f8:	288a983a 	sll	r5,r5,r2
 80024fc:	19406f36 	bltu	r3,r5,80026bc <_malloc_r+0x324>
 8002500:	28c4703a 	and	r2,r5,r3
 8002504:	10000a1e 	bne	r2,zero,8002530 <_malloc_r+0x198>
 8002508:	00bfff04 	movi	r2,-4
 800250c:	294b883a 	add	r5,r5,r5
 8002510:	2088703a 	and	r4,r4,r2
 8002514:	28c4703a 	and	r2,r5,r3
 8002518:	21000104 	addi	r4,r4,4
 800251c:	1000041e 	bne	r2,zero,8002530 <_malloc_r+0x198>
 8002520:	294b883a 	add	r5,r5,r5
 8002524:	28c4703a 	and	r2,r5,r3
 8002528:	21000104 	addi	r4,r4,4
 800252c:	103ffc26 	beq	r2,zero,8002520 <_malloc_r+0x188>
 8002530:	02bfff04 	movi	r10,-4
 8002534:	024003c4 	movi	r9,15
 8002538:	21800044 	addi	r6,r4,1
 800253c:	318d883a 	add	r6,r6,r6
 8002540:	318d883a 	add	r6,r6,r6
 8002544:	318d883a 	add	r6,r6,r6
 8002548:	998d883a 	add	r6,r19,r6
 800254c:	333ffe04 	addi	r12,r6,-8
 8002550:	2017883a 	mov	r11,r4
 8002554:	31800104 	addi	r6,r6,4
 8002558:	34000017 	ldw	r16,0(r6)
 800255c:	31fffd04 	addi	r7,r6,-12
 8002560:	81c0041e 	bne	r16,r7,8002574 <_malloc_r+0x1dc>
 8002564:	0000fb06 	br	8002954 <_malloc_r+0x5bc>
 8002568:	1801030e 	bge	r3,zero,8002978 <_malloc_r+0x5e0>
 800256c:	84000317 	ldw	r16,12(r16)
 8002570:	81c0f826 	beq	r16,r7,8002954 <_malloc_r+0x5bc>
 8002574:	80800117 	ldw	r2,4(r16)
 8002578:	1284703a 	and	r2,r2,r10
 800257c:	1447c83a 	sub	r3,r2,r17
 8002580:	48fff90e 	bge	r9,r3,8002568 <_malloc_r+0x1d0>
 8002584:	80800317 	ldw	r2,12(r16)
 8002588:	81000217 	ldw	r4,8(r16)
 800258c:	89400054 	ori	r5,r17,1
 8002590:	81400115 	stw	r5,4(r16)
 8002594:	20800315 	stw	r2,12(r4)
 8002598:	11000215 	stw	r4,8(r2)
 800259c:	8463883a 	add	r17,r16,r17
 80025a0:	9c400515 	stw	r17,20(r19)
 80025a4:	9c400415 	stw	r17,16(r19)
 80025a8:	18800054 	ori	r2,r3,1
 80025ac:	88800115 	stw	r2,4(r17)
 80025b0:	8a000315 	stw	r8,12(r17)
 80025b4:	8a000215 	stw	r8,8(r17)
 80025b8:	88e3883a 	add	r17,r17,r3
 80025bc:	88c00015 	stw	r3,0(r17)
 80025c0:	9009883a 	mov	r4,r18
 80025c4:	8004a5c0 	call	8004a5c <__malloc_unlock>
 80025c8:	80800204 	addi	r2,r16,8
 80025cc:	00001b06 	br	800263c <_malloc_r+0x2a4>
 80025d0:	04400404 	movi	r17,16
 80025d4:	89402536 	bltu	r17,r5,800266c <_malloc_r+0x2d4>
 80025d8:	8004a380 	call	8004a38 <__malloc_lock>
 80025dc:	00800184 	movi	r2,6
 80025e0:	01000084 	movi	r4,2
 80025e4:	04c20034 	movhi	r19,2048
 80025e8:	1085883a 	add	r2,r2,r2
 80025ec:	9cdc6704 	addi	r19,r19,29084
 80025f0:	1085883a 	add	r2,r2,r2
 80025f4:	9885883a 	add	r2,r19,r2
 80025f8:	14000117 	ldw	r16,4(r2)
 80025fc:	10fffe04 	addi	r3,r2,-8
 8002600:	80c0d926 	beq	r16,r3,8002968 <_malloc_r+0x5d0>
 8002604:	80c00117 	ldw	r3,4(r16)
 8002608:	81000317 	ldw	r4,12(r16)
 800260c:	00bfff04 	movi	r2,-4
 8002610:	1884703a 	and	r2,r3,r2
 8002614:	81400217 	ldw	r5,8(r16)
 8002618:	8085883a 	add	r2,r16,r2
 800261c:	10c00117 	ldw	r3,4(r2)
 8002620:	29000315 	stw	r4,12(r5)
 8002624:	21400215 	stw	r5,8(r4)
 8002628:	18c00054 	ori	r3,r3,1
 800262c:	10c00115 	stw	r3,4(r2)
 8002630:	9009883a 	mov	r4,r18
 8002634:	8004a5c0 	call	8004a5c <__malloc_unlock>
 8002638:	80800204 	addi	r2,r16,8
 800263c:	dfc00a17 	ldw	ra,40(sp)
 8002640:	df000917 	ldw	fp,36(sp)
 8002644:	ddc00817 	ldw	r23,32(sp)
 8002648:	dd800717 	ldw	r22,28(sp)
 800264c:	dd400617 	ldw	r21,24(sp)
 8002650:	dd000517 	ldw	r20,20(sp)
 8002654:	dcc00417 	ldw	r19,16(sp)
 8002658:	dc800317 	ldw	r18,12(sp)
 800265c:	dc400217 	ldw	r17,8(sp)
 8002660:	dc000117 	ldw	r16,4(sp)
 8002664:	dec00b04 	addi	sp,sp,44
 8002668:	f800283a 	ret
 800266c:	00800304 	movi	r2,12
 8002670:	90800015 	stw	r2,0(r18)
 8002674:	0005883a 	mov	r2,zero
 8002678:	003ff006 	br	800263c <_malloc_r+0x2a4>
 800267c:	01002004 	movi	r4,128
 8002680:	02001004 	movi	r8,64
 8002684:	01c00fc4 	movi	r7,63
 8002688:	003f6106 	br	8002410 <_malloc_r+0x78>
 800268c:	4009883a 	mov	r4,r8
 8002690:	003f7506 	br	8002468 <_malloc_r+0xd0>
 8002694:	81000317 	ldw	r4,12(r16)
 8002698:	003fde06 	br	8002614 <_malloc_r+0x27c>
 800269c:	81c5883a 	add	r2,r16,r7
 80026a0:	11400117 	ldw	r5,4(r2)
 80026a4:	9009883a 	mov	r4,r18
 80026a8:	29400054 	ori	r5,r5,1
 80026ac:	11400115 	stw	r5,4(r2)
 80026b0:	8004a5c0 	call	8004a5c <__malloc_unlock>
 80026b4:	80800204 	addi	r2,r16,8
 80026b8:	003fe006 	br	800263c <_malloc_r+0x2a4>
 80026bc:	9c000217 	ldw	r16,8(r19)
 80026c0:	00bfff04 	movi	r2,-4
 80026c4:	85800117 	ldw	r22,4(r16)
 80026c8:	b0ac703a 	and	r22,r22,r2
 80026cc:	b4400336 	bltu	r22,r17,80026dc <_malloc_r+0x344>
 80026d0:	b445c83a 	sub	r2,r22,r17
 80026d4:	00c003c4 	movi	r3,15
 80026d8:	18805d16 	blt	r3,r2,8002850 <_malloc_r+0x4b8>
 80026dc:	05c20074 	movhi	r23,2049
 80026e0:	00820074 	movhi	r2,2049
 80026e4:	10a89604 	addi	r2,r2,-23976
 80026e8:	bde1ed04 	addi	r23,r23,-30796
 80026ec:	15400017 	ldw	r21,0(r2)
 80026f0:	b8c00017 	ldw	r3,0(r23)
 80026f4:	00bfffc4 	movi	r2,-1
 80026f8:	858d883a 	add	r6,r16,r22
 80026fc:	8d6b883a 	add	r21,r17,r21
 8002700:	1880ea26 	beq	r3,r2,8002aac <_malloc_r+0x714>
 8002704:	ad4403c4 	addi	r21,r21,4111
 8002708:	00bc0004 	movi	r2,-4096
 800270c:	a8aa703a 	and	r21,r21,r2
 8002710:	a80b883a 	mov	r5,r21
 8002714:	9009883a 	mov	r4,r18
 8002718:	d9800015 	stw	r6,0(sp)
 800271c:	80035b80 	call	80035b8 <_sbrk_r>
 8002720:	1029883a 	mov	r20,r2
 8002724:	00bfffc4 	movi	r2,-1
 8002728:	d9800017 	ldw	r6,0(sp)
 800272c:	a080e826 	beq	r20,r2,8002ad0 <_malloc_r+0x738>
 8002730:	a180a636 	bltu	r20,r6,80029cc <_malloc_r+0x634>
 8002734:	07020074 	movhi	fp,2049
 8002738:	e728a604 	addi	fp,fp,-23912
 800273c:	e0800017 	ldw	r2,0(fp)
 8002740:	a887883a 	add	r3,r21,r2
 8002744:	e0c00015 	stw	r3,0(fp)
 8002748:	3500e626 	beq	r6,r20,8002ae4 <_malloc_r+0x74c>
 800274c:	b9000017 	ldw	r4,0(r23)
 8002750:	00bfffc4 	movi	r2,-1
 8002754:	2080ee26 	beq	r4,r2,8002b10 <_malloc_r+0x778>
 8002758:	a185c83a 	sub	r2,r20,r6
 800275c:	10c5883a 	add	r2,r2,r3
 8002760:	e0800015 	stw	r2,0(fp)
 8002764:	a0c001cc 	andi	r3,r20,7
 8002768:	1800bc26 	beq	r3,zero,8002a5c <_malloc_r+0x6c4>
 800276c:	a0e9c83a 	sub	r20,r20,r3
 8002770:	00840204 	movi	r2,4104
 8002774:	a5000204 	addi	r20,r20,8
 8002778:	10c7c83a 	sub	r3,r2,r3
 800277c:	a545883a 	add	r2,r20,r21
 8002780:	1083ffcc 	andi	r2,r2,4095
 8002784:	18abc83a 	sub	r21,r3,r2
 8002788:	a80b883a 	mov	r5,r21
 800278c:	9009883a 	mov	r4,r18
 8002790:	80035b80 	call	80035b8 <_sbrk_r>
 8002794:	00ffffc4 	movi	r3,-1
 8002798:	10c0e126 	beq	r2,r3,8002b20 <_malloc_r+0x788>
 800279c:	1505c83a 	sub	r2,r2,r20
 80027a0:	1545883a 	add	r2,r2,r21
 80027a4:	10800054 	ori	r2,r2,1
 80027a8:	e0c00017 	ldw	r3,0(fp)
 80027ac:	9d000215 	stw	r20,8(r19)
 80027b0:	a0800115 	stw	r2,4(r20)
 80027b4:	a8c7883a 	add	r3,r21,r3
 80027b8:	e0c00015 	stw	r3,0(fp)
 80027bc:	84c00e26 	beq	r16,r19,80027f8 <_malloc_r+0x460>
 80027c0:	018003c4 	movi	r6,15
 80027c4:	3580a72e 	bgeu	r6,r22,8002a64 <_malloc_r+0x6cc>
 80027c8:	81400117 	ldw	r5,4(r16)
 80027cc:	013ffe04 	movi	r4,-8
 80027d0:	b0bffd04 	addi	r2,r22,-12
 80027d4:	1104703a 	and	r2,r2,r4
 80027d8:	2900004c 	andi	r4,r5,1
 80027dc:	2088b03a 	or	r4,r4,r2
 80027e0:	81000115 	stw	r4,4(r16)
 80027e4:	01400144 	movi	r5,5
 80027e8:	8089883a 	add	r4,r16,r2
 80027ec:	21400115 	stw	r5,4(r4)
 80027f0:	21400215 	stw	r5,8(r4)
 80027f4:	3080cd36 	bltu	r6,r2,8002b2c <_malloc_r+0x794>
 80027f8:	00820074 	movhi	r2,2049
 80027fc:	10a89504 	addi	r2,r2,-23980
 8002800:	11000017 	ldw	r4,0(r2)
 8002804:	20c0012e 	bgeu	r4,r3,800280c <_malloc_r+0x474>
 8002808:	10c00015 	stw	r3,0(r2)
 800280c:	00820074 	movhi	r2,2049
 8002810:	10a89404 	addi	r2,r2,-23984
 8002814:	11000017 	ldw	r4,0(r2)
 8002818:	9c000217 	ldw	r16,8(r19)
 800281c:	20c0012e 	bgeu	r4,r3,8002824 <_malloc_r+0x48c>
 8002820:	10c00015 	stw	r3,0(r2)
 8002824:	80c00117 	ldw	r3,4(r16)
 8002828:	00bfff04 	movi	r2,-4
 800282c:	1886703a 	and	r3,r3,r2
 8002830:	1c45c83a 	sub	r2,r3,r17
 8002834:	1c400236 	bltu	r3,r17,8002840 <_malloc_r+0x4a8>
 8002838:	00c003c4 	movi	r3,15
 800283c:	18800416 	blt	r3,r2,8002850 <_malloc_r+0x4b8>
 8002840:	9009883a 	mov	r4,r18
 8002844:	8004a5c0 	call	8004a5c <__malloc_unlock>
 8002848:	0005883a 	mov	r2,zero
 800284c:	003f7b06 	br	800263c <_malloc_r+0x2a4>
 8002850:	88c00054 	ori	r3,r17,1
 8002854:	80c00115 	stw	r3,4(r16)
 8002858:	8463883a 	add	r17,r16,r17
 800285c:	10800054 	ori	r2,r2,1
 8002860:	9c400215 	stw	r17,8(r19)
 8002864:	88800115 	stw	r2,4(r17)
 8002868:	9009883a 	mov	r4,r18
 800286c:	8004a5c0 	call	8004a5c <__malloc_unlock>
 8002870:	80800204 	addi	r2,r16,8
 8002874:	003f7106 	br	800263c <_malloc_r+0x2a4>
 8002878:	00c00504 	movi	r3,20
 800287c:	18804a2e 	bgeu	r3,r2,80029a8 <_malloc_r+0x610>
 8002880:	00c01504 	movi	r3,84
 8002884:	18806e36 	bltu	r3,r2,8002a40 <_malloc_r+0x6a8>
 8002888:	8804d33a 	srli	r2,r17,12
 800288c:	12001bc4 	addi	r8,r2,111
 8002890:	11c01b84 	addi	r7,r2,110
 8002894:	4209883a 	add	r4,r8,r8
 8002898:	003edd06 	br	8002410 <_malloc_r+0x78>
 800289c:	3804d27a 	srli	r2,r7,9
 80028a0:	00c00104 	movi	r3,4
 80028a4:	1880442e 	bgeu	r3,r2,80029b8 <_malloc_r+0x620>
 80028a8:	00c00504 	movi	r3,20
 80028ac:	18808136 	bltu	r3,r2,8002ab4 <_malloc_r+0x71c>
 80028b0:	11401704 	addi	r5,r2,92
 80028b4:	10c016c4 	addi	r3,r2,91
 80028b8:	294b883a 	add	r5,r5,r5
 80028bc:	294b883a 	add	r5,r5,r5
 80028c0:	294b883a 	add	r5,r5,r5
 80028c4:	994b883a 	add	r5,r19,r5
 80028c8:	28800017 	ldw	r2,0(r5)
 80028cc:	01820034 	movhi	r6,2048
 80028d0:	297ffe04 	addi	r5,r5,-8
 80028d4:	319c6704 	addi	r6,r6,29084
 80028d8:	28806526 	beq	r5,r2,8002a70 <_malloc_r+0x6d8>
 80028dc:	01bfff04 	movi	r6,-4
 80028e0:	10c00117 	ldw	r3,4(r2)
 80028e4:	1986703a 	and	r3,r3,r6
 80028e8:	38c0022e 	bgeu	r7,r3,80028f4 <_malloc_r+0x55c>
 80028ec:	10800217 	ldw	r2,8(r2)
 80028f0:	28bffb1e 	bne	r5,r2,80028e0 <_malloc_r+0x548>
 80028f4:	11400317 	ldw	r5,12(r2)
 80028f8:	98c00117 	ldw	r3,4(r19)
 80028fc:	81400315 	stw	r5,12(r16)
 8002900:	80800215 	stw	r2,8(r16)
 8002904:	2c000215 	stw	r16,8(r5)
 8002908:	14000315 	stw	r16,12(r2)
 800290c:	003ef806 	br	80024f0 <_malloc_r+0x158>
 8002910:	88c00054 	ori	r3,r17,1
 8002914:	80c00115 	stw	r3,4(r16)
 8002918:	8463883a 	add	r17,r16,r17
 800291c:	34400515 	stw	r17,20(r6)
 8002920:	34400415 	stw	r17,16(r6)
 8002924:	10c00054 	ori	r3,r2,1
 8002928:	8a000315 	stw	r8,12(r17)
 800292c:	8a000215 	stw	r8,8(r17)
 8002930:	88c00115 	stw	r3,4(r17)
 8002934:	88a3883a 	add	r17,r17,r2
 8002938:	88800015 	stw	r2,0(r17)
 800293c:	9009883a 	mov	r4,r18
 8002940:	8004a5c0 	call	8004a5c <__malloc_unlock>
 8002944:	80800204 	addi	r2,r16,8
 8002948:	003f3c06 	br	800263c <_malloc_r+0x2a4>
 800294c:	30c00117 	ldw	r3,4(r6)
 8002950:	003ee706 	br	80024f0 <_malloc_r+0x158>
 8002954:	5ac00044 	addi	r11,r11,1
 8002958:	588000cc 	andi	r2,r11,3
 800295c:	31800204 	addi	r6,r6,8
 8002960:	103efd1e 	bne	r2,zero,8002558 <_malloc_r+0x1c0>
 8002964:	00002406 	br	80029f8 <_malloc_r+0x660>
 8002968:	14000317 	ldw	r16,12(r2)
 800296c:	143f251e 	bne	r2,r16,8002604 <_malloc_r+0x26c>
 8002970:	21000084 	addi	r4,r4,2
 8002974:	003ebc06 	br	8002468 <_malloc_r+0xd0>
 8002978:	8085883a 	add	r2,r16,r2
 800297c:	10c00117 	ldw	r3,4(r2)
 8002980:	81000317 	ldw	r4,12(r16)
 8002984:	81400217 	ldw	r5,8(r16)
 8002988:	18c00054 	ori	r3,r3,1
 800298c:	10c00115 	stw	r3,4(r2)
 8002990:	29000315 	stw	r4,12(r5)
 8002994:	21400215 	stw	r5,8(r4)
 8002998:	9009883a 	mov	r4,r18
 800299c:	8004a5c0 	call	8004a5c <__malloc_unlock>
 80029a0:	80800204 	addi	r2,r16,8
 80029a4:	003f2506 	br	800263c <_malloc_r+0x2a4>
 80029a8:	12001704 	addi	r8,r2,92
 80029ac:	11c016c4 	addi	r7,r2,91
 80029b0:	4209883a 	add	r4,r8,r8
 80029b4:	003e9606 	br	8002410 <_malloc_r+0x78>
 80029b8:	3804d1ba 	srli	r2,r7,6
 80029bc:	11400e44 	addi	r5,r2,57
 80029c0:	10c00e04 	addi	r3,r2,56
 80029c4:	294b883a 	add	r5,r5,r5
 80029c8:	003fbc06 	br	80028bc <_malloc_r+0x524>
 80029cc:	84ff5926 	beq	r16,r19,8002734 <_malloc_r+0x39c>
 80029d0:	00820034 	movhi	r2,2048
 80029d4:	109c6704 	addi	r2,r2,29084
 80029d8:	14000217 	ldw	r16,8(r2)
 80029dc:	00bfff04 	movi	r2,-4
 80029e0:	80c00117 	ldw	r3,4(r16)
 80029e4:	1886703a 	and	r3,r3,r2
 80029e8:	003f9106 	br	8002830 <_malloc_r+0x498>
 80029ec:	60800217 	ldw	r2,8(r12)
 80029f0:	213fffc4 	addi	r4,r4,-1
 80029f4:	1300651e 	bne	r2,r12,8002b8c <_malloc_r+0x7f4>
 80029f8:	208000cc 	andi	r2,r4,3
 80029fc:	633ffe04 	addi	r12,r12,-8
 8002a00:	103ffa1e 	bne	r2,zero,80029ec <_malloc_r+0x654>
 8002a04:	98800117 	ldw	r2,4(r19)
 8002a08:	0146303a 	nor	r3,zero,r5
 8002a0c:	1884703a 	and	r2,r3,r2
 8002a10:	98800115 	stw	r2,4(r19)
 8002a14:	294b883a 	add	r5,r5,r5
 8002a18:	117f2836 	bltu	r2,r5,80026bc <_malloc_r+0x324>
 8002a1c:	283f2726 	beq	r5,zero,80026bc <_malloc_r+0x324>
 8002a20:	2886703a 	and	r3,r5,r2
 8002a24:	5809883a 	mov	r4,r11
 8002a28:	183ec31e 	bne	r3,zero,8002538 <_malloc_r+0x1a0>
 8002a2c:	294b883a 	add	r5,r5,r5
 8002a30:	2886703a 	and	r3,r5,r2
 8002a34:	21000104 	addi	r4,r4,4
 8002a38:	183ffc26 	beq	r3,zero,8002a2c <_malloc_r+0x694>
 8002a3c:	003ebe06 	br	8002538 <_malloc_r+0x1a0>
 8002a40:	00c05504 	movi	r3,340
 8002a44:	18801236 	bltu	r3,r2,8002a90 <_malloc_r+0x6f8>
 8002a48:	8804d3fa 	srli	r2,r17,15
 8002a4c:	12001e04 	addi	r8,r2,120
 8002a50:	11c01dc4 	addi	r7,r2,119
 8002a54:	4209883a 	add	r4,r8,r8
 8002a58:	003e6d06 	br	8002410 <_malloc_r+0x78>
 8002a5c:	00c40004 	movi	r3,4096
 8002a60:	003f4606 	br	800277c <_malloc_r+0x3e4>
 8002a64:	00800044 	movi	r2,1
 8002a68:	a0800115 	stw	r2,4(r20)
 8002a6c:	003f7406 	br	8002840 <_malloc_r+0x4a8>
 8002a70:	1805d0ba 	srai	r2,r3,2
 8002a74:	01c00044 	movi	r7,1
 8002a78:	30c00117 	ldw	r3,4(r6)
 8002a7c:	388e983a 	sll	r7,r7,r2
 8002a80:	2805883a 	mov	r2,r5
 8002a84:	38c6b03a 	or	r3,r7,r3
 8002a88:	30c00115 	stw	r3,4(r6)
 8002a8c:	003f9b06 	br	80028fc <_malloc_r+0x564>
 8002a90:	00c15504 	movi	r3,1364
 8002a94:	18801a36 	bltu	r3,r2,8002b00 <_malloc_r+0x768>
 8002a98:	8804d4ba 	srli	r2,r17,18
 8002a9c:	12001f44 	addi	r8,r2,125
 8002aa0:	11c01f04 	addi	r7,r2,124
 8002aa4:	4209883a 	add	r4,r8,r8
 8002aa8:	003e5906 	br	8002410 <_malloc_r+0x78>
 8002aac:	ad400404 	addi	r21,r21,16
 8002ab0:	003f1706 	br	8002710 <_malloc_r+0x378>
 8002ab4:	00c01504 	movi	r3,84
 8002ab8:	18802336 	bltu	r3,r2,8002b48 <_malloc_r+0x7b0>
 8002abc:	3804d33a 	srli	r2,r7,12
 8002ac0:	11401bc4 	addi	r5,r2,111
 8002ac4:	10c01b84 	addi	r3,r2,110
 8002ac8:	294b883a 	add	r5,r5,r5
 8002acc:	003f7b06 	br	80028bc <_malloc_r+0x524>
 8002ad0:	9c000217 	ldw	r16,8(r19)
 8002ad4:	00bfff04 	movi	r2,-4
 8002ad8:	80c00117 	ldw	r3,4(r16)
 8002adc:	1886703a 	and	r3,r3,r2
 8002ae0:	003f5306 	br	8002830 <_malloc_r+0x498>
 8002ae4:	3083ffcc 	andi	r2,r6,4095
 8002ae8:	103f181e 	bne	r2,zero,800274c <_malloc_r+0x3b4>
 8002aec:	99000217 	ldw	r4,8(r19)
 8002af0:	b545883a 	add	r2,r22,r21
 8002af4:	10800054 	ori	r2,r2,1
 8002af8:	20800115 	stw	r2,4(r4)
 8002afc:	003f3e06 	br	80027f8 <_malloc_r+0x460>
 8002b00:	01003f84 	movi	r4,254
 8002b04:	02001fc4 	movi	r8,127
 8002b08:	01c01f84 	movi	r7,126
 8002b0c:	003e4006 	br	8002410 <_malloc_r+0x78>
 8002b10:	00820074 	movhi	r2,2049
 8002b14:	10a1ed04 	addi	r2,r2,-30796
 8002b18:	15000015 	stw	r20,0(r2)
 8002b1c:	003f1106 	br	8002764 <_malloc_r+0x3cc>
 8002b20:	00800044 	movi	r2,1
 8002b24:	002b883a 	mov	r21,zero
 8002b28:	003f1f06 	br	80027a8 <_malloc_r+0x410>
 8002b2c:	81400204 	addi	r5,r16,8
 8002b30:	9009883a 	mov	r4,r18
 8002b34:	8003e200 	call	8003e20 <_free_r>
 8002b38:	00820074 	movhi	r2,2049
 8002b3c:	10a8a604 	addi	r2,r2,-23912
 8002b40:	10c00017 	ldw	r3,0(r2)
 8002b44:	003f2c06 	br	80027f8 <_malloc_r+0x460>
 8002b48:	00c05504 	movi	r3,340
 8002b4c:	18800536 	bltu	r3,r2,8002b64 <_malloc_r+0x7cc>
 8002b50:	3804d3fa 	srli	r2,r7,15
 8002b54:	11401e04 	addi	r5,r2,120
 8002b58:	10c01dc4 	addi	r3,r2,119
 8002b5c:	294b883a 	add	r5,r5,r5
 8002b60:	003f5606 	br	80028bc <_malloc_r+0x524>
 8002b64:	00c15504 	movi	r3,1364
 8002b68:	18800536 	bltu	r3,r2,8002b80 <_malloc_r+0x7e8>
 8002b6c:	3804d4ba 	srli	r2,r7,18
 8002b70:	11401f44 	addi	r5,r2,125
 8002b74:	10c01f04 	addi	r3,r2,124
 8002b78:	294b883a 	add	r5,r5,r5
 8002b7c:	003f4f06 	br	80028bc <_malloc_r+0x524>
 8002b80:	01403f84 	movi	r5,254
 8002b84:	00c01f84 	movi	r3,126
 8002b88:	003f4c06 	br	80028bc <_malloc_r+0x524>
 8002b8c:	98800117 	ldw	r2,4(r19)
 8002b90:	003fa006 	br	8002a14 <_malloc_r+0x67c>
 8002b94:	8808d0fa 	srli	r4,r17,3
 8002b98:	20800044 	addi	r2,r4,1
 8002b9c:	1085883a 	add	r2,r2,r2
 8002ba0:	003e9006 	br	80025e4 <_malloc_r+0x24c>

08002ba4 <memchr>:
 8002ba4:	208000cc 	andi	r2,r4,3
 8002ba8:	280f883a 	mov	r7,r5
 8002bac:	10003426 	beq	r2,zero,8002c80 <memchr+0xdc>
 8002bb0:	30bfffc4 	addi	r2,r6,-1
 8002bb4:	30001a26 	beq	r6,zero,8002c20 <memchr+0x7c>
 8002bb8:	20c00003 	ldbu	r3,0(r4)
 8002bbc:	29803fcc 	andi	r6,r5,255
 8002bc0:	30c0051e 	bne	r6,r3,8002bd8 <memchr+0x34>
 8002bc4:	00001806 	br	8002c28 <memchr+0x84>
 8002bc8:	10001526 	beq	r2,zero,8002c20 <memchr+0x7c>
 8002bcc:	20c00003 	ldbu	r3,0(r4)
 8002bd0:	10bfffc4 	addi	r2,r2,-1
 8002bd4:	30c01426 	beq	r6,r3,8002c28 <memchr+0x84>
 8002bd8:	21000044 	addi	r4,r4,1
 8002bdc:	20c000cc 	andi	r3,r4,3
 8002be0:	183ff91e 	bne	r3,zero,8002bc8 <memchr+0x24>
 8002be4:	020000c4 	movi	r8,3
 8002be8:	40801136 	bltu	r8,r2,8002c30 <memchr+0x8c>
 8002bec:	10000c26 	beq	r2,zero,8002c20 <memchr+0x7c>
 8002bf0:	20c00003 	ldbu	r3,0(r4)
 8002bf4:	29403fcc 	andi	r5,r5,255
 8002bf8:	28c00b26 	beq	r5,r3,8002c28 <memchr+0x84>
 8002bfc:	20c00044 	addi	r3,r4,1
 8002c00:	39803fcc 	andi	r6,r7,255
 8002c04:	2089883a 	add	r4,r4,r2
 8002c08:	00000306 	br	8002c18 <memchr+0x74>
 8002c0c:	18c00044 	addi	r3,r3,1
 8002c10:	197fffc3 	ldbu	r5,-1(r3)
 8002c14:	31400526 	beq	r6,r5,8002c2c <memchr+0x88>
 8002c18:	1805883a 	mov	r2,r3
 8002c1c:	20fffb1e 	bne	r4,r3,8002c0c <memchr+0x68>
 8002c20:	0005883a 	mov	r2,zero
 8002c24:	f800283a 	ret
 8002c28:	2005883a 	mov	r2,r4
 8002c2c:	f800283a 	ret
 8002c30:	28c03fcc 	andi	r3,r5,255
 8002c34:	1812923a 	slli	r9,r3,8
 8002c38:	02ffbff4 	movhi	r11,65279
 8002c3c:	02a02074 	movhi	r10,32897
 8002c40:	48d2b03a 	or	r9,r9,r3
 8002c44:	4806943a 	slli	r3,r9,16
 8002c48:	5affbfc4 	addi	r11,r11,-257
 8002c4c:	52a02004 	addi	r10,r10,-32640
 8002c50:	48d2b03a 	or	r9,r9,r3
 8002c54:	20c00017 	ldw	r3,0(r4)
 8002c58:	48c6f03a 	xor	r3,r9,r3
 8002c5c:	1acd883a 	add	r6,r3,r11
 8002c60:	00c6303a 	nor	r3,zero,r3
 8002c64:	30c6703a 	and	r3,r6,r3
 8002c68:	1a86703a 	and	r3,r3,r10
 8002c6c:	183fe01e 	bne	r3,zero,8002bf0 <memchr+0x4c>
 8002c70:	10bfff04 	addi	r2,r2,-4
 8002c74:	21000104 	addi	r4,r4,4
 8002c78:	40bff636 	bltu	r8,r2,8002c54 <memchr+0xb0>
 8002c7c:	003fdb06 	br	8002bec <memchr+0x48>
 8002c80:	3005883a 	mov	r2,r6
 8002c84:	003fd706 	br	8002be4 <memchr+0x40>

08002c88 <memcpy>:
 8002c88:	defffd04 	addi	sp,sp,-12
 8002c8c:	dfc00215 	stw	ra,8(sp)
 8002c90:	dc400115 	stw	r17,4(sp)
 8002c94:	dc000015 	stw	r16,0(sp)
 8002c98:	00c003c4 	movi	r3,15
 8002c9c:	2005883a 	mov	r2,r4
 8002ca0:	1980452e 	bgeu	r3,r6,8002db8 <memcpy+0x130>
 8002ca4:	2906b03a 	or	r3,r5,r4
 8002ca8:	18c000cc 	andi	r3,r3,3
 8002cac:	1800441e 	bne	r3,zero,8002dc0 <memcpy+0x138>
 8002cb0:	347ffc04 	addi	r17,r6,-16
 8002cb4:	8822d13a 	srli	r17,r17,4
 8002cb8:	28c00104 	addi	r3,r5,4
 8002cbc:	23400104 	addi	r13,r4,4
 8002cc0:	8820913a 	slli	r16,r17,4
 8002cc4:	2b000204 	addi	r12,r5,8
 8002cc8:	22c00204 	addi	r11,r4,8
 8002ccc:	84000504 	addi	r16,r16,20
 8002cd0:	2a800304 	addi	r10,r5,12
 8002cd4:	22400304 	addi	r9,r4,12
 8002cd8:	2c21883a 	add	r16,r5,r16
 8002cdc:	2811883a 	mov	r8,r5
 8002ce0:	200f883a 	mov	r7,r4
 8002ce4:	41000017 	ldw	r4,0(r8)
 8002ce8:	1fc00017 	ldw	ra,0(r3)
 8002cec:	63c00017 	ldw	r15,0(r12)
 8002cf0:	39000015 	stw	r4,0(r7)
 8002cf4:	53800017 	ldw	r14,0(r10)
 8002cf8:	6fc00015 	stw	ra,0(r13)
 8002cfc:	5bc00015 	stw	r15,0(r11)
 8002d00:	4b800015 	stw	r14,0(r9)
 8002d04:	18c00404 	addi	r3,r3,16
 8002d08:	39c00404 	addi	r7,r7,16
 8002d0c:	42000404 	addi	r8,r8,16
 8002d10:	6b400404 	addi	r13,r13,16
 8002d14:	63000404 	addi	r12,r12,16
 8002d18:	5ac00404 	addi	r11,r11,16
 8002d1c:	52800404 	addi	r10,r10,16
 8002d20:	4a400404 	addi	r9,r9,16
 8002d24:	1c3fef1e 	bne	r3,r16,8002ce4 <memcpy+0x5c>
 8002d28:	89c00044 	addi	r7,r17,1
 8002d2c:	380e913a 	slli	r7,r7,4
 8002d30:	310003cc 	andi	r4,r6,15
 8002d34:	02c000c4 	movi	r11,3
 8002d38:	11c7883a 	add	r3,r2,r7
 8002d3c:	29cb883a 	add	r5,r5,r7
 8002d40:	5900212e 	bgeu	r11,r4,8002dc8 <memcpy+0x140>
 8002d44:	1813883a 	mov	r9,r3
 8002d48:	2811883a 	mov	r8,r5
 8002d4c:	200f883a 	mov	r7,r4
 8002d50:	42800017 	ldw	r10,0(r8)
 8002d54:	4a400104 	addi	r9,r9,4
 8002d58:	39ffff04 	addi	r7,r7,-4
 8002d5c:	4abfff15 	stw	r10,-4(r9)
 8002d60:	42000104 	addi	r8,r8,4
 8002d64:	59fffa36 	bltu	r11,r7,8002d50 <memcpy+0xc8>
 8002d68:	213fff04 	addi	r4,r4,-4
 8002d6c:	2008d0ba 	srli	r4,r4,2
 8002d70:	318000cc 	andi	r6,r6,3
 8002d74:	21000044 	addi	r4,r4,1
 8002d78:	2109883a 	add	r4,r4,r4
 8002d7c:	2109883a 	add	r4,r4,r4
 8002d80:	1907883a 	add	r3,r3,r4
 8002d84:	290b883a 	add	r5,r5,r4
 8002d88:	30000626 	beq	r6,zero,8002da4 <memcpy+0x11c>
 8002d8c:	198d883a 	add	r6,r3,r6
 8002d90:	29c00003 	ldbu	r7,0(r5)
 8002d94:	18c00044 	addi	r3,r3,1
 8002d98:	29400044 	addi	r5,r5,1
 8002d9c:	19ffffc5 	stb	r7,-1(r3)
 8002da0:	19bffb1e 	bne	r3,r6,8002d90 <memcpy+0x108>
 8002da4:	dfc00217 	ldw	ra,8(sp)
 8002da8:	dc400117 	ldw	r17,4(sp)
 8002dac:	dc000017 	ldw	r16,0(sp)
 8002db0:	dec00304 	addi	sp,sp,12
 8002db4:	f800283a 	ret
 8002db8:	2007883a 	mov	r3,r4
 8002dbc:	003ff206 	br	8002d88 <memcpy+0x100>
 8002dc0:	2007883a 	mov	r3,r4
 8002dc4:	003ff106 	br	8002d8c <memcpy+0x104>
 8002dc8:	200d883a 	mov	r6,r4
 8002dcc:	003fee06 	br	8002d88 <memcpy+0x100>

08002dd0 <memmove>:
 8002dd0:	2005883a 	mov	r2,r4
 8002dd4:	29000b2e 	bgeu	r5,r4,8002e04 <memmove+0x34>
 8002dd8:	298f883a 	add	r7,r5,r6
 8002ddc:	21c0092e 	bgeu	r4,r7,8002e04 <memmove+0x34>
 8002de0:	2187883a 	add	r3,r4,r6
 8002de4:	198bc83a 	sub	r5,r3,r6
 8002de8:	30004826 	beq	r6,zero,8002f0c <memmove+0x13c>
 8002dec:	39ffffc4 	addi	r7,r7,-1
 8002df0:	39000003 	ldbu	r4,0(r7)
 8002df4:	18ffffc4 	addi	r3,r3,-1
 8002df8:	19000005 	stb	r4,0(r3)
 8002dfc:	28fffb1e 	bne	r5,r3,8002dec <memmove+0x1c>
 8002e00:	f800283a 	ret
 8002e04:	00c003c4 	movi	r3,15
 8002e08:	1980412e 	bgeu	r3,r6,8002f10 <memmove+0x140>
 8002e0c:	2886b03a 	or	r3,r5,r2
 8002e10:	18c000cc 	andi	r3,r3,3
 8002e14:	1800401e 	bne	r3,zero,8002f18 <memmove+0x148>
 8002e18:	33fffc04 	addi	r15,r6,-16
 8002e1c:	781ed13a 	srli	r15,r15,4
 8002e20:	28c00104 	addi	r3,r5,4
 8002e24:	13400104 	addi	r13,r2,4
 8002e28:	781c913a 	slli	r14,r15,4
 8002e2c:	2b000204 	addi	r12,r5,8
 8002e30:	12c00204 	addi	r11,r2,8
 8002e34:	73800504 	addi	r14,r14,20
 8002e38:	2a800304 	addi	r10,r5,12
 8002e3c:	12400304 	addi	r9,r2,12
 8002e40:	2b9d883a 	add	r14,r5,r14
 8002e44:	2811883a 	mov	r8,r5
 8002e48:	100f883a 	mov	r7,r2
 8002e4c:	41000017 	ldw	r4,0(r8)
 8002e50:	39c00404 	addi	r7,r7,16
 8002e54:	18c00404 	addi	r3,r3,16
 8002e58:	393ffc15 	stw	r4,-16(r7)
 8002e5c:	193ffc17 	ldw	r4,-16(r3)
 8002e60:	6b400404 	addi	r13,r13,16
 8002e64:	5ac00404 	addi	r11,r11,16
 8002e68:	693ffc15 	stw	r4,-16(r13)
 8002e6c:	61000017 	ldw	r4,0(r12)
 8002e70:	4a400404 	addi	r9,r9,16
 8002e74:	42000404 	addi	r8,r8,16
 8002e78:	593ffc15 	stw	r4,-16(r11)
 8002e7c:	51000017 	ldw	r4,0(r10)
 8002e80:	63000404 	addi	r12,r12,16
 8002e84:	52800404 	addi	r10,r10,16
 8002e88:	493ffc15 	stw	r4,-16(r9)
 8002e8c:	1bbfef1e 	bne	r3,r14,8002e4c <memmove+0x7c>
 8002e90:	79000044 	addi	r4,r15,1
 8002e94:	2008913a 	slli	r4,r4,4
 8002e98:	328003cc 	andi	r10,r6,15
 8002e9c:	02c000c4 	movi	r11,3
 8002ea0:	1107883a 	add	r3,r2,r4
 8002ea4:	290b883a 	add	r5,r5,r4
 8002ea8:	5a801e2e 	bgeu	r11,r10,8002f24 <memmove+0x154>
 8002eac:	1813883a 	mov	r9,r3
 8002eb0:	2811883a 	mov	r8,r5
 8002eb4:	500f883a 	mov	r7,r10
 8002eb8:	41000017 	ldw	r4,0(r8)
 8002ebc:	4a400104 	addi	r9,r9,4
 8002ec0:	39ffff04 	addi	r7,r7,-4
 8002ec4:	493fff15 	stw	r4,-4(r9)
 8002ec8:	42000104 	addi	r8,r8,4
 8002ecc:	59fffa36 	bltu	r11,r7,8002eb8 <memmove+0xe8>
 8002ed0:	513fff04 	addi	r4,r10,-4
 8002ed4:	2008d0ba 	srli	r4,r4,2
 8002ed8:	318000cc 	andi	r6,r6,3
 8002edc:	21000044 	addi	r4,r4,1
 8002ee0:	2109883a 	add	r4,r4,r4
 8002ee4:	2109883a 	add	r4,r4,r4
 8002ee8:	1907883a 	add	r3,r3,r4
 8002eec:	290b883a 	add	r5,r5,r4
 8002ef0:	30000b26 	beq	r6,zero,8002f20 <memmove+0x150>
 8002ef4:	198d883a 	add	r6,r3,r6
 8002ef8:	29c00003 	ldbu	r7,0(r5)
 8002efc:	18c00044 	addi	r3,r3,1
 8002f00:	29400044 	addi	r5,r5,1
 8002f04:	19ffffc5 	stb	r7,-1(r3)
 8002f08:	19bffb1e 	bne	r3,r6,8002ef8 <memmove+0x128>
 8002f0c:	f800283a 	ret
 8002f10:	1007883a 	mov	r3,r2
 8002f14:	003ff606 	br	8002ef0 <memmove+0x120>
 8002f18:	1007883a 	mov	r3,r2
 8002f1c:	003ff506 	br	8002ef4 <memmove+0x124>
 8002f20:	f800283a 	ret
 8002f24:	500d883a 	mov	r6,r10
 8002f28:	003ff106 	br	8002ef0 <memmove+0x120>

08002f2c <memset>:
 8002f2c:	20c000cc 	andi	r3,r4,3
 8002f30:	2005883a 	mov	r2,r4
 8002f34:	18004426 	beq	r3,zero,8003048 <memset+0x11c>
 8002f38:	31ffffc4 	addi	r7,r6,-1
 8002f3c:	30004026 	beq	r6,zero,8003040 <memset+0x114>
 8002f40:	2813883a 	mov	r9,r5
 8002f44:	200d883a 	mov	r6,r4
 8002f48:	2007883a 	mov	r3,r4
 8002f4c:	00000406 	br	8002f60 <memset+0x34>
 8002f50:	3a3fffc4 	addi	r8,r7,-1
 8002f54:	31800044 	addi	r6,r6,1
 8002f58:	38003926 	beq	r7,zero,8003040 <memset+0x114>
 8002f5c:	400f883a 	mov	r7,r8
 8002f60:	18c00044 	addi	r3,r3,1
 8002f64:	32400005 	stb	r9,0(r6)
 8002f68:	1a0000cc 	andi	r8,r3,3
 8002f6c:	403ff81e 	bne	r8,zero,8002f50 <memset+0x24>
 8002f70:	010000c4 	movi	r4,3
 8002f74:	21c02d2e 	bgeu	r4,r7,800302c <memset+0x100>
 8002f78:	29003fcc 	andi	r4,r5,255
 8002f7c:	200c923a 	slli	r6,r4,8
 8002f80:	3108b03a 	or	r4,r6,r4
 8002f84:	200c943a 	slli	r6,r4,16
 8002f88:	218cb03a 	or	r6,r4,r6
 8002f8c:	010003c4 	movi	r4,15
 8002f90:	21c0182e 	bgeu	r4,r7,8002ff4 <memset+0xc8>
 8002f94:	3b3ffc04 	addi	r12,r7,-16
 8002f98:	6018d13a 	srli	r12,r12,4
 8002f9c:	1a000104 	addi	r8,r3,4
 8002fa0:	1ac00204 	addi	r11,r3,8
 8002fa4:	6008913a 	slli	r4,r12,4
 8002fa8:	1a800304 	addi	r10,r3,12
 8002fac:	1813883a 	mov	r9,r3
 8002fb0:	21000504 	addi	r4,r4,20
 8002fb4:	1909883a 	add	r4,r3,r4
 8002fb8:	49800015 	stw	r6,0(r9)
 8002fbc:	41800015 	stw	r6,0(r8)
 8002fc0:	59800015 	stw	r6,0(r11)
 8002fc4:	51800015 	stw	r6,0(r10)
 8002fc8:	42000404 	addi	r8,r8,16
 8002fcc:	4a400404 	addi	r9,r9,16
 8002fd0:	5ac00404 	addi	r11,r11,16
 8002fd4:	52800404 	addi	r10,r10,16
 8002fd8:	413ff71e 	bne	r8,r4,8002fb8 <memset+0x8c>
 8002fdc:	63000044 	addi	r12,r12,1
 8002fe0:	6018913a 	slli	r12,r12,4
 8002fe4:	39c003cc 	andi	r7,r7,15
 8002fe8:	010000c4 	movi	r4,3
 8002fec:	1b07883a 	add	r3,r3,r12
 8002ff0:	21c00e2e 	bgeu	r4,r7,800302c <memset+0x100>
 8002ff4:	1813883a 	mov	r9,r3
 8002ff8:	3811883a 	mov	r8,r7
 8002ffc:	010000c4 	movi	r4,3
 8003000:	49800015 	stw	r6,0(r9)
 8003004:	423fff04 	addi	r8,r8,-4
 8003008:	4a400104 	addi	r9,r9,4
 800300c:	223ffc36 	bltu	r4,r8,8003000 <memset+0xd4>
 8003010:	393fff04 	addi	r4,r7,-4
 8003014:	2008d0ba 	srli	r4,r4,2
 8003018:	39c000cc 	andi	r7,r7,3
 800301c:	21000044 	addi	r4,r4,1
 8003020:	2109883a 	add	r4,r4,r4
 8003024:	2109883a 	add	r4,r4,r4
 8003028:	1907883a 	add	r3,r3,r4
 800302c:	38000526 	beq	r7,zero,8003044 <memset+0x118>
 8003030:	19cf883a 	add	r7,r3,r7
 8003034:	19400005 	stb	r5,0(r3)
 8003038:	18c00044 	addi	r3,r3,1
 800303c:	38fffd1e 	bne	r7,r3,8003034 <memset+0x108>
 8003040:	f800283a 	ret
 8003044:	f800283a 	ret
 8003048:	2007883a 	mov	r3,r4
 800304c:	300f883a 	mov	r7,r6
 8003050:	003fc706 	br	8002f70 <memset+0x44>

08003054 <_realloc_r>:
 8003054:	defff604 	addi	sp,sp,-40
 8003058:	dc800215 	stw	r18,8(sp)
 800305c:	dfc00915 	stw	ra,36(sp)
 8003060:	df000815 	stw	fp,32(sp)
 8003064:	ddc00715 	stw	r23,28(sp)
 8003068:	dd800615 	stw	r22,24(sp)
 800306c:	dd400515 	stw	r21,20(sp)
 8003070:	dd000415 	stw	r20,16(sp)
 8003074:	dcc00315 	stw	r19,12(sp)
 8003078:	dc400115 	stw	r17,4(sp)
 800307c:	dc000015 	stw	r16,0(sp)
 8003080:	3025883a 	mov	r18,r6
 8003084:	2800b726 	beq	r5,zero,8003364 <_realloc_r+0x310>
 8003088:	282b883a 	mov	r21,r5
 800308c:	2029883a 	mov	r20,r4
 8003090:	8004a380 	call	8004a38 <__malloc_lock>
 8003094:	a8bfff17 	ldw	r2,-4(r21)
 8003098:	043fff04 	movi	r16,-4
 800309c:	90c002c4 	addi	r3,r18,11
 80030a0:	01000584 	movi	r4,22
 80030a4:	acfffe04 	addi	r19,r21,-8
 80030a8:	1420703a 	and	r16,r2,r16
 80030ac:	20c0332e 	bgeu	r4,r3,800317c <_realloc_r+0x128>
 80030b0:	047ffe04 	movi	r17,-8
 80030b4:	1c62703a 	and	r17,r3,r17
 80030b8:	8807883a 	mov	r3,r17
 80030bc:	88005816 	blt	r17,zero,8003220 <_realloc_r+0x1cc>
 80030c0:	8c805736 	bltu	r17,r18,8003220 <_realloc_r+0x1cc>
 80030c4:	80c0300e 	bge	r16,r3,8003188 <_realloc_r+0x134>
 80030c8:	07020034 	movhi	fp,2048
 80030cc:	e71c6704 	addi	fp,fp,29084
 80030d0:	e1c00217 	ldw	r7,8(fp)
 80030d4:	9c09883a 	add	r4,r19,r16
 80030d8:	22000117 	ldw	r8,4(r4)
 80030dc:	21c06326 	beq	r4,r7,800326c <_realloc_r+0x218>
 80030e0:	017fff84 	movi	r5,-2
 80030e4:	414a703a 	and	r5,r8,r5
 80030e8:	214b883a 	add	r5,r4,r5
 80030ec:	29800117 	ldw	r6,4(r5)
 80030f0:	3180004c 	andi	r6,r6,1
 80030f4:	30003f26 	beq	r6,zero,80031f4 <_realloc_r+0x1a0>
 80030f8:	1080004c 	andi	r2,r2,1
 80030fc:	10008326 	beq	r2,zero,800330c <_realloc_r+0x2b8>
 8003100:	900b883a 	mov	r5,r18
 8003104:	a009883a 	mov	r4,r20
 8003108:	80023980 	call	8002398 <_malloc_r>
 800310c:	1025883a 	mov	r18,r2
 8003110:	10011e26 	beq	r2,zero,800358c <_realloc_r+0x538>
 8003114:	a93fff17 	ldw	r4,-4(r21)
 8003118:	10fffe04 	addi	r3,r2,-8
 800311c:	00bfff84 	movi	r2,-2
 8003120:	2084703a 	and	r2,r4,r2
 8003124:	9885883a 	add	r2,r19,r2
 8003128:	1880ee26 	beq	r3,r2,80034e4 <_realloc_r+0x490>
 800312c:	81bfff04 	addi	r6,r16,-4
 8003130:	00800904 	movi	r2,36
 8003134:	1180b836 	bltu	r2,r6,8003418 <_realloc_r+0x3c4>
 8003138:	00c004c4 	movi	r3,19
 800313c:	19809636 	bltu	r3,r6,8003398 <_realloc_r+0x344>
 8003140:	9005883a 	mov	r2,r18
 8003144:	a807883a 	mov	r3,r21
 8003148:	19000017 	ldw	r4,0(r3)
 800314c:	11000015 	stw	r4,0(r2)
 8003150:	19000117 	ldw	r4,4(r3)
 8003154:	11000115 	stw	r4,4(r2)
 8003158:	18c00217 	ldw	r3,8(r3)
 800315c:	10c00215 	stw	r3,8(r2)
 8003160:	a80b883a 	mov	r5,r21
 8003164:	a009883a 	mov	r4,r20
 8003168:	8003e200 	call	8003e20 <_free_r>
 800316c:	a009883a 	mov	r4,r20
 8003170:	8004a5c0 	call	8004a5c <__malloc_unlock>
 8003174:	9005883a 	mov	r2,r18
 8003178:	00001206 	br	80031c4 <_realloc_r+0x170>
 800317c:	00c00404 	movi	r3,16
 8003180:	1823883a 	mov	r17,r3
 8003184:	003fce06 	br	80030c0 <_realloc_r+0x6c>
 8003188:	a825883a 	mov	r18,r21
 800318c:	8445c83a 	sub	r2,r16,r17
 8003190:	00c003c4 	movi	r3,15
 8003194:	18802636 	bltu	r3,r2,8003230 <_realloc_r+0x1dc>
 8003198:	99800117 	ldw	r6,4(r19)
 800319c:	9c07883a 	add	r3,r19,r16
 80031a0:	3180004c 	andi	r6,r6,1
 80031a4:	3420b03a 	or	r16,r6,r16
 80031a8:	9c000115 	stw	r16,4(r19)
 80031ac:	18800117 	ldw	r2,4(r3)
 80031b0:	10800054 	ori	r2,r2,1
 80031b4:	18800115 	stw	r2,4(r3)
 80031b8:	a009883a 	mov	r4,r20
 80031bc:	8004a5c0 	call	8004a5c <__malloc_unlock>
 80031c0:	9005883a 	mov	r2,r18
 80031c4:	dfc00917 	ldw	ra,36(sp)
 80031c8:	df000817 	ldw	fp,32(sp)
 80031cc:	ddc00717 	ldw	r23,28(sp)
 80031d0:	dd800617 	ldw	r22,24(sp)
 80031d4:	dd400517 	ldw	r21,20(sp)
 80031d8:	dd000417 	ldw	r20,16(sp)
 80031dc:	dcc00317 	ldw	r19,12(sp)
 80031e0:	dc800217 	ldw	r18,8(sp)
 80031e4:	dc400117 	ldw	r17,4(sp)
 80031e8:	dc000017 	ldw	r16,0(sp)
 80031ec:	dec00a04 	addi	sp,sp,40
 80031f0:	f800283a 	ret
 80031f4:	017fff04 	movi	r5,-4
 80031f8:	414a703a 	and	r5,r8,r5
 80031fc:	814d883a 	add	r6,r16,r5
 8003200:	30c01f16 	blt	r6,r3,8003280 <_realloc_r+0x22c>
 8003204:	20800317 	ldw	r2,12(r4)
 8003208:	20c00217 	ldw	r3,8(r4)
 800320c:	a825883a 	mov	r18,r21
 8003210:	3021883a 	mov	r16,r6
 8003214:	18800315 	stw	r2,12(r3)
 8003218:	10c00215 	stw	r3,8(r2)
 800321c:	003fdb06 	br	800318c <_realloc_r+0x138>
 8003220:	00800304 	movi	r2,12
 8003224:	a0800015 	stw	r2,0(r20)
 8003228:	0005883a 	mov	r2,zero
 800322c:	003fe506 	br	80031c4 <_realloc_r+0x170>
 8003230:	98c00117 	ldw	r3,4(r19)
 8003234:	9c4b883a 	add	r5,r19,r17
 8003238:	11000054 	ori	r4,r2,1
 800323c:	18c0004c 	andi	r3,r3,1
 8003240:	1c62b03a 	or	r17,r3,r17
 8003244:	9c400115 	stw	r17,4(r19)
 8003248:	29000115 	stw	r4,4(r5)
 800324c:	2885883a 	add	r2,r5,r2
 8003250:	10c00117 	ldw	r3,4(r2)
 8003254:	29400204 	addi	r5,r5,8
 8003258:	a009883a 	mov	r4,r20
 800325c:	18c00054 	ori	r3,r3,1
 8003260:	10c00115 	stw	r3,4(r2)
 8003264:	8003e200 	call	8003e20 <_free_r>
 8003268:	003fd306 	br	80031b8 <_realloc_r+0x164>
 800326c:	017fff04 	movi	r5,-4
 8003270:	414a703a 	and	r5,r8,r5
 8003274:	89800404 	addi	r6,r17,16
 8003278:	8151883a 	add	r8,r16,r5
 800327c:	4180590e 	bge	r8,r6,80033e4 <_realloc_r+0x390>
 8003280:	1080004c 	andi	r2,r2,1
 8003284:	103f9e1e 	bne	r2,zero,8003100 <_realloc_r+0xac>
 8003288:	adbffe17 	ldw	r22,-8(r21)
 800328c:	00bfff04 	movi	r2,-4
 8003290:	9dadc83a 	sub	r22,r19,r22
 8003294:	b1800117 	ldw	r6,4(r22)
 8003298:	3084703a 	and	r2,r6,r2
 800329c:	20002026 	beq	r4,zero,8003320 <_realloc_r+0x2cc>
 80032a0:	80af883a 	add	r23,r16,r2
 80032a4:	b96f883a 	add	r23,r23,r5
 80032a8:	21c05f26 	beq	r4,r7,8003428 <_realloc_r+0x3d4>
 80032ac:	b8c01c16 	blt	r23,r3,8003320 <_realloc_r+0x2cc>
 80032b0:	20800317 	ldw	r2,12(r4)
 80032b4:	20c00217 	ldw	r3,8(r4)
 80032b8:	81bfff04 	addi	r6,r16,-4
 80032bc:	01000904 	movi	r4,36
 80032c0:	18800315 	stw	r2,12(r3)
 80032c4:	10c00215 	stw	r3,8(r2)
 80032c8:	b0c00217 	ldw	r3,8(r22)
 80032cc:	b0800317 	ldw	r2,12(r22)
 80032d0:	b4800204 	addi	r18,r22,8
 80032d4:	18800315 	stw	r2,12(r3)
 80032d8:	10c00215 	stw	r3,8(r2)
 80032dc:	21801b36 	bltu	r4,r6,800334c <_realloc_r+0x2f8>
 80032e0:	008004c4 	movi	r2,19
 80032e4:	1180352e 	bgeu	r2,r6,80033bc <_realloc_r+0x368>
 80032e8:	a8800017 	ldw	r2,0(r21)
 80032ec:	b0800215 	stw	r2,8(r22)
 80032f0:	a8800117 	ldw	r2,4(r21)
 80032f4:	b0800315 	stw	r2,12(r22)
 80032f8:	008006c4 	movi	r2,27
 80032fc:	11807f36 	bltu	r2,r6,80034fc <_realloc_r+0x4a8>
 8003300:	b0800404 	addi	r2,r22,16
 8003304:	ad400204 	addi	r21,r21,8
 8003308:	00002d06 	br	80033c0 <_realloc_r+0x36c>
 800330c:	adbffe17 	ldw	r22,-8(r21)
 8003310:	00bfff04 	movi	r2,-4
 8003314:	9dadc83a 	sub	r22,r19,r22
 8003318:	b1000117 	ldw	r4,4(r22)
 800331c:	2084703a 	and	r2,r4,r2
 8003320:	b03f7726 	beq	r22,zero,8003100 <_realloc_r+0xac>
 8003324:	80af883a 	add	r23,r16,r2
 8003328:	b8ff7516 	blt	r23,r3,8003100 <_realloc_r+0xac>
 800332c:	b0800317 	ldw	r2,12(r22)
 8003330:	b0c00217 	ldw	r3,8(r22)
 8003334:	81bfff04 	addi	r6,r16,-4
 8003338:	01000904 	movi	r4,36
 800333c:	18800315 	stw	r2,12(r3)
 8003340:	10c00215 	stw	r3,8(r2)
 8003344:	b4800204 	addi	r18,r22,8
 8003348:	21bfe52e 	bgeu	r4,r6,80032e0 <_realloc_r+0x28c>
 800334c:	a80b883a 	mov	r5,r21
 8003350:	9009883a 	mov	r4,r18
 8003354:	8002dd00 	call	8002dd0 <memmove>
 8003358:	b821883a 	mov	r16,r23
 800335c:	b027883a 	mov	r19,r22
 8003360:	003f8a06 	br	800318c <_realloc_r+0x138>
 8003364:	300b883a 	mov	r5,r6
 8003368:	dfc00917 	ldw	ra,36(sp)
 800336c:	df000817 	ldw	fp,32(sp)
 8003370:	ddc00717 	ldw	r23,28(sp)
 8003374:	dd800617 	ldw	r22,24(sp)
 8003378:	dd400517 	ldw	r21,20(sp)
 800337c:	dd000417 	ldw	r20,16(sp)
 8003380:	dcc00317 	ldw	r19,12(sp)
 8003384:	dc800217 	ldw	r18,8(sp)
 8003388:	dc400117 	ldw	r17,4(sp)
 800338c:	dc000017 	ldw	r16,0(sp)
 8003390:	dec00a04 	addi	sp,sp,40
 8003394:	80023981 	jmpi	8002398 <_malloc_r>
 8003398:	a8c00017 	ldw	r3,0(r21)
 800339c:	90c00015 	stw	r3,0(r18)
 80033a0:	a8c00117 	ldw	r3,4(r21)
 80033a4:	90c00115 	stw	r3,4(r18)
 80033a8:	00c006c4 	movi	r3,27
 80033ac:	19804536 	bltu	r3,r6,80034c4 <_realloc_r+0x470>
 80033b0:	90800204 	addi	r2,r18,8
 80033b4:	a8c00204 	addi	r3,r21,8
 80033b8:	003f6306 	br	8003148 <_realloc_r+0xf4>
 80033bc:	9005883a 	mov	r2,r18
 80033c0:	a8c00017 	ldw	r3,0(r21)
 80033c4:	b821883a 	mov	r16,r23
 80033c8:	b027883a 	mov	r19,r22
 80033cc:	10c00015 	stw	r3,0(r2)
 80033d0:	a8c00117 	ldw	r3,4(r21)
 80033d4:	10c00115 	stw	r3,4(r2)
 80033d8:	a8c00217 	ldw	r3,8(r21)
 80033dc:	10c00215 	stw	r3,8(r2)
 80033e0:	003f6a06 	br	800318c <_realloc_r+0x138>
 80033e4:	9c67883a 	add	r19,r19,r17
 80033e8:	4445c83a 	sub	r2,r8,r17
 80033ec:	e4c00215 	stw	r19,8(fp)
 80033f0:	10800054 	ori	r2,r2,1
 80033f4:	98800115 	stw	r2,4(r19)
 80033f8:	a8bfff17 	ldw	r2,-4(r21)
 80033fc:	a009883a 	mov	r4,r20
 8003400:	1080004c 	andi	r2,r2,1
 8003404:	1462b03a 	or	r17,r2,r17
 8003408:	ac7fff15 	stw	r17,-4(r21)
 800340c:	8004a5c0 	call	8004a5c <__malloc_unlock>
 8003410:	a805883a 	mov	r2,r21
 8003414:	003f6b06 	br	80031c4 <_realloc_r+0x170>
 8003418:	a80b883a 	mov	r5,r21
 800341c:	9009883a 	mov	r4,r18
 8003420:	8002dd00 	call	8002dd0 <memmove>
 8003424:	003f4e06 	br	8003160 <_realloc_r+0x10c>
 8003428:	89000404 	addi	r4,r17,16
 800342c:	b93fbc16 	blt	r23,r4,8003320 <_realloc_r+0x2cc>
 8003430:	b0800317 	ldw	r2,12(r22)
 8003434:	b0c00217 	ldw	r3,8(r22)
 8003438:	81bfff04 	addi	r6,r16,-4
 800343c:	01000904 	movi	r4,36
 8003440:	18800315 	stw	r2,12(r3)
 8003444:	10c00215 	stw	r3,8(r2)
 8003448:	b4800204 	addi	r18,r22,8
 800344c:	21804336 	bltu	r4,r6,800355c <_realloc_r+0x508>
 8003450:	008004c4 	movi	r2,19
 8003454:	11803f2e 	bgeu	r2,r6,8003554 <_realloc_r+0x500>
 8003458:	a8800017 	ldw	r2,0(r21)
 800345c:	b0800215 	stw	r2,8(r22)
 8003460:	a8800117 	ldw	r2,4(r21)
 8003464:	b0800315 	stw	r2,12(r22)
 8003468:	008006c4 	movi	r2,27
 800346c:	11803f36 	bltu	r2,r6,800356c <_realloc_r+0x518>
 8003470:	b0800404 	addi	r2,r22,16
 8003474:	ad400204 	addi	r21,r21,8
 8003478:	a8c00017 	ldw	r3,0(r21)
 800347c:	10c00015 	stw	r3,0(r2)
 8003480:	a8c00117 	ldw	r3,4(r21)
 8003484:	10c00115 	stw	r3,4(r2)
 8003488:	a8c00217 	ldw	r3,8(r21)
 800348c:	10c00215 	stw	r3,8(r2)
 8003490:	b447883a 	add	r3,r22,r17
 8003494:	bc45c83a 	sub	r2,r23,r17
 8003498:	e0c00215 	stw	r3,8(fp)
 800349c:	10800054 	ori	r2,r2,1
 80034a0:	18800115 	stw	r2,4(r3)
 80034a4:	b0800117 	ldw	r2,4(r22)
 80034a8:	a009883a 	mov	r4,r20
 80034ac:	1080004c 	andi	r2,r2,1
 80034b0:	1462b03a 	or	r17,r2,r17
 80034b4:	b4400115 	stw	r17,4(r22)
 80034b8:	8004a5c0 	call	8004a5c <__malloc_unlock>
 80034bc:	9005883a 	mov	r2,r18
 80034c0:	003f4006 	br	80031c4 <_realloc_r+0x170>
 80034c4:	a8c00217 	ldw	r3,8(r21)
 80034c8:	90c00215 	stw	r3,8(r18)
 80034cc:	a8c00317 	ldw	r3,12(r21)
 80034d0:	90c00315 	stw	r3,12(r18)
 80034d4:	30801126 	beq	r6,r2,800351c <_realloc_r+0x4c8>
 80034d8:	90800404 	addi	r2,r18,16
 80034dc:	a8c00404 	addi	r3,r21,16
 80034e0:	003f1906 	br	8003148 <_realloc_r+0xf4>
 80034e4:	90ffff17 	ldw	r3,-4(r18)
 80034e8:	00bfff04 	movi	r2,-4
 80034ec:	a825883a 	mov	r18,r21
 80034f0:	1884703a 	and	r2,r3,r2
 80034f4:	80a1883a 	add	r16,r16,r2
 80034f8:	003f2406 	br	800318c <_realloc_r+0x138>
 80034fc:	a8800217 	ldw	r2,8(r21)
 8003500:	b0800415 	stw	r2,16(r22)
 8003504:	a8800317 	ldw	r2,12(r21)
 8003508:	b0800515 	stw	r2,20(r22)
 800350c:	31000a26 	beq	r6,r4,8003538 <_realloc_r+0x4e4>
 8003510:	b0800604 	addi	r2,r22,24
 8003514:	ad400404 	addi	r21,r21,16
 8003518:	003fa906 	br	80033c0 <_realloc_r+0x36c>
 800351c:	a9000417 	ldw	r4,16(r21)
 8003520:	90800604 	addi	r2,r18,24
 8003524:	a8c00604 	addi	r3,r21,24
 8003528:	91000415 	stw	r4,16(r18)
 800352c:	a9000517 	ldw	r4,20(r21)
 8003530:	91000515 	stw	r4,20(r18)
 8003534:	003f0406 	br	8003148 <_realloc_r+0xf4>
 8003538:	a8c00417 	ldw	r3,16(r21)
 800353c:	ad400604 	addi	r21,r21,24
 8003540:	b0800804 	addi	r2,r22,32
 8003544:	b0c00615 	stw	r3,24(r22)
 8003548:	a8ffff17 	ldw	r3,-4(r21)
 800354c:	b0c00715 	stw	r3,28(r22)
 8003550:	003f9b06 	br	80033c0 <_realloc_r+0x36c>
 8003554:	9005883a 	mov	r2,r18
 8003558:	003fc706 	br	8003478 <_realloc_r+0x424>
 800355c:	a80b883a 	mov	r5,r21
 8003560:	9009883a 	mov	r4,r18
 8003564:	8002dd00 	call	8002dd0 <memmove>
 8003568:	003fc906 	br	8003490 <_realloc_r+0x43c>
 800356c:	a8800217 	ldw	r2,8(r21)
 8003570:	b0800415 	stw	r2,16(r22)
 8003574:	a8800317 	ldw	r2,12(r21)
 8003578:	b0800515 	stw	r2,20(r22)
 800357c:	31000726 	beq	r6,r4,800359c <_realloc_r+0x548>
 8003580:	b0800604 	addi	r2,r22,24
 8003584:	ad400404 	addi	r21,r21,16
 8003588:	003fbb06 	br	8003478 <_realloc_r+0x424>
 800358c:	a009883a 	mov	r4,r20
 8003590:	8004a5c0 	call	8004a5c <__malloc_unlock>
 8003594:	0005883a 	mov	r2,zero
 8003598:	003f0a06 	br	80031c4 <_realloc_r+0x170>
 800359c:	a8c00417 	ldw	r3,16(r21)
 80035a0:	ad400604 	addi	r21,r21,24
 80035a4:	b0800804 	addi	r2,r22,32
 80035a8:	b0c00615 	stw	r3,24(r22)
 80035ac:	a8ffff17 	ldw	r3,-4(r21)
 80035b0:	b0c00715 	stw	r3,28(r22)
 80035b4:	003fb006 	br	8003478 <_realloc_r+0x424>

080035b8 <_sbrk_r>:
 80035b8:	defffd04 	addi	sp,sp,-12
 80035bc:	dc000015 	stw	r16,0(sp)
 80035c0:	04020074 	movhi	r16,2049
 80035c4:	dc400115 	stw	r17,4(sp)
 80035c8:	84289704 	addi	r16,r16,-23972
 80035cc:	2023883a 	mov	r17,r4
 80035d0:	2809883a 	mov	r4,r5
 80035d4:	dfc00215 	stw	ra,8(sp)
 80035d8:	80000015 	stw	zero,0(r16)
 80035dc:	8004c1c0 	call	8004c1c <sbrk>
 80035e0:	00ffffc4 	movi	r3,-1
 80035e4:	10c00526 	beq	r2,r3,80035fc <_sbrk_r+0x44>
 80035e8:	dfc00217 	ldw	ra,8(sp)
 80035ec:	dc400117 	ldw	r17,4(sp)
 80035f0:	dc000017 	ldw	r16,0(sp)
 80035f4:	dec00304 	addi	sp,sp,12
 80035f8:	f800283a 	ret
 80035fc:	80c00017 	ldw	r3,0(r16)
 8003600:	183ff926 	beq	r3,zero,80035e8 <_sbrk_r+0x30>
 8003604:	88c00015 	stw	r3,0(r17)
 8003608:	003ff706 	br	80035e8 <_sbrk_r+0x30>

0800360c <__sread>:
 800360c:	defffe04 	addi	sp,sp,-8
 8003610:	dc000015 	stw	r16,0(sp)
 8003614:	2821883a 	mov	r16,r5
 8003618:	2940038f 	ldh	r5,14(r5)
 800361c:	dfc00115 	stw	ra,4(sp)
 8003620:	800434c0 	call	800434c <_read_r>
 8003624:	10000716 	blt	r2,zero,8003644 <__sread+0x38>
 8003628:	80c01417 	ldw	r3,80(r16)
 800362c:	1887883a 	add	r3,r3,r2
 8003630:	80c01415 	stw	r3,80(r16)
 8003634:	dfc00117 	ldw	ra,4(sp)
 8003638:	dc000017 	ldw	r16,0(sp)
 800363c:	dec00204 	addi	sp,sp,8
 8003640:	f800283a 	ret
 8003644:	80c0030b 	ldhu	r3,12(r16)
 8003648:	18fbffcc 	andi	r3,r3,61439
 800364c:	80c0030d 	sth	r3,12(r16)
 8003650:	dfc00117 	ldw	ra,4(sp)
 8003654:	dc000017 	ldw	r16,0(sp)
 8003658:	dec00204 	addi	sp,sp,8
 800365c:	f800283a 	ret

08003660 <__seofread>:
 8003660:	0005883a 	mov	r2,zero
 8003664:	f800283a 	ret

08003668 <__swrite>:
 8003668:	2880030b 	ldhu	r2,12(r5)
 800366c:	defffb04 	addi	sp,sp,-20
 8003670:	dcc00315 	stw	r19,12(sp)
 8003674:	dc800215 	stw	r18,8(sp)
 8003678:	dc400115 	stw	r17,4(sp)
 800367c:	dc000015 	stw	r16,0(sp)
 8003680:	dfc00415 	stw	ra,16(sp)
 8003684:	10c0400c 	andi	r3,r2,256
 8003688:	2821883a 	mov	r16,r5
 800368c:	2023883a 	mov	r17,r4
 8003690:	3025883a 	mov	r18,r6
 8003694:	3827883a 	mov	r19,r7
 8003698:	18000526 	beq	r3,zero,80036b0 <__swrite+0x48>
 800369c:	2940038f 	ldh	r5,14(r5)
 80036a0:	01c00084 	movi	r7,2
 80036a4:	000d883a 	mov	r6,zero
 80036a8:	80041300 	call	8004130 <_lseek_r>
 80036ac:	8080030b 	ldhu	r2,12(r16)
 80036b0:	8140038f 	ldh	r5,14(r16)
 80036b4:	10bbffcc 	andi	r2,r2,61439
 80036b8:	980f883a 	mov	r7,r19
 80036bc:	900d883a 	mov	r6,r18
 80036c0:	8809883a 	mov	r4,r17
 80036c4:	8080030d 	sth	r2,12(r16)
 80036c8:	dfc00417 	ldw	ra,16(sp)
 80036cc:	dcc00317 	ldw	r19,12(sp)
 80036d0:	dc800217 	ldw	r18,8(sp)
 80036d4:	dc400117 	ldw	r17,4(sp)
 80036d8:	dc000017 	ldw	r16,0(sp)
 80036dc:	dec00504 	addi	sp,sp,20
 80036e0:	80037481 	jmpi	8003748 <_write_r>

080036e4 <__sseek>:
 80036e4:	defffe04 	addi	sp,sp,-8
 80036e8:	dc000015 	stw	r16,0(sp)
 80036ec:	2821883a 	mov	r16,r5
 80036f0:	2940038f 	ldh	r5,14(r5)
 80036f4:	dfc00115 	stw	ra,4(sp)
 80036f8:	80041300 	call	8004130 <_lseek_r>
 80036fc:	00ffffc4 	movi	r3,-1
 8003700:	10c00826 	beq	r2,r3,8003724 <__sseek+0x40>
 8003704:	80c0030b 	ldhu	r3,12(r16)
 8003708:	80801415 	stw	r2,80(r16)
 800370c:	18c40014 	ori	r3,r3,4096
 8003710:	80c0030d 	sth	r3,12(r16)
 8003714:	dfc00117 	ldw	ra,4(sp)
 8003718:	dc000017 	ldw	r16,0(sp)
 800371c:	dec00204 	addi	sp,sp,8
 8003720:	f800283a 	ret
 8003724:	80c0030b 	ldhu	r3,12(r16)
 8003728:	18fbffcc 	andi	r3,r3,61439
 800372c:	80c0030d 	sth	r3,12(r16)
 8003730:	dfc00117 	ldw	ra,4(sp)
 8003734:	dc000017 	ldw	r16,0(sp)
 8003738:	dec00204 	addi	sp,sp,8
 800373c:	f800283a 	ret

08003740 <__sclose>:
 8003740:	2940038f 	ldh	r5,14(r5)
 8003744:	80038fc1 	jmpi	80038fc <_close_r>

08003748 <_write_r>:
 8003748:	defffd04 	addi	sp,sp,-12
 800374c:	2805883a 	mov	r2,r5
 8003750:	dc000015 	stw	r16,0(sp)
 8003754:	04020074 	movhi	r16,2049
 8003758:	dc400115 	stw	r17,4(sp)
 800375c:	300b883a 	mov	r5,r6
 8003760:	84289704 	addi	r16,r16,-23972
 8003764:	2023883a 	mov	r17,r4
 8003768:	380d883a 	mov	r6,r7
 800376c:	1009883a 	mov	r4,r2
 8003770:	dfc00215 	stw	ra,8(sp)
 8003774:	80000015 	stw	zero,0(r16)
 8003778:	8004d380 	call	8004d38 <write>
 800377c:	00ffffc4 	movi	r3,-1
 8003780:	10c00526 	beq	r2,r3,8003798 <_write_r+0x50>
 8003784:	dfc00217 	ldw	ra,8(sp)
 8003788:	dc400117 	ldw	r17,4(sp)
 800378c:	dc000017 	ldw	r16,0(sp)
 8003790:	dec00304 	addi	sp,sp,12
 8003794:	f800283a 	ret
 8003798:	80c00017 	ldw	r3,0(r16)
 800379c:	183ff926 	beq	r3,zero,8003784 <_write_r+0x3c>
 80037a0:	88c00015 	stw	r3,0(r17)
 80037a4:	003ff706 	br	8003784 <_write_r+0x3c>

080037a8 <__swsetup_r>:
 80037a8:	00820074 	movhi	r2,2049
 80037ac:	defffd04 	addi	sp,sp,-12
 80037b0:	10a1ec04 	addi	r2,r2,-30800
 80037b4:	dc400115 	stw	r17,4(sp)
 80037b8:	2023883a 	mov	r17,r4
 80037bc:	11000017 	ldw	r4,0(r2)
 80037c0:	dc000015 	stw	r16,0(sp)
 80037c4:	dfc00215 	stw	ra,8(sp)
 80037c8:	2821883a 	mov	r16,r5
 80037cc:	20000226 	beq	r4,zero,80037d8 <__swsetup_r+0x30>
 80037d0:	20800e17 	ldw	r2,56(r4)
 80037d4:	10003126 	beq	r2,zero,800389c <__swsetup_r+0xf4>
 80037d8:	8080030b 	ldhu	r2,12(r16)
 80037dc:	10c0020c 	andi	r3,r2,8
 80037e0:	1009883a 	mov	r4,r2
 80037e4:	18000f26 	beq	r3,zero,8003824 <__swsetup_r+0x7c>
 80037e8:	80c00417 	ldw	r3,16(r16)
 80037ec:	18001526 	beq	r3,zero,8003844 <__swsetup_r+0x9c>
 80037f0:	1100004c 	andi	r4,r2,1
 80037f4:	20001c1e 	bne	r4,zero,8003868 <__swsetup_r+0xc0>
 80037f8:	1080008c 	andi	r2,r2,2
 80037fc:	1000291e 	bne	r2,zero,80038a4 <__swsetup_r+0xfc>
 8003800:	80800517 	ldw	r2,20(r16)
 8003804:	80800215 	stw	r2,8(r16)
 8003808:	18001c26 	beq	r3,zero,800387c <__swsetup_r+0xd4>
 800380c:	0005883a 	mov	r2,zero
 8003810:	dfc00217 	ldw	ra,8(sp)
 8003814:	dc400117 	ldw	r17,4(sp)
 8003818:	dc000017 	ldw	r16,0(sp)
 800381c:	dec00304 	addi	sp,sp,12
 8003820:	f800283a 	ret
 8003824:	2080040c 	andi	r2,r4,16
 8003828:	10002e26 	beq	r2,zero,80038e4 <__swsetup_r+0x13c>
 800382c:	2080010c 	andi	r2,r4,4
 8003830:	10001e1e 	bne	r2,zero,80038ac <__swsetup_r+0x104>
 8003834:	80c00417 	ldw	r3,16(r16)
 8003838:	20800214 	ori	r2,r4,8
 800383c:	8080030d 	sth	r2,12(r16)
 8003840:	183feb1e 	bne	r3,zero,80037f0 <__swsetup_r+0x48>
 8003844:	1100a00c 	andi	r4,r2,640
 8003848:	01408004 	movi	r5,512
 800384c:	217fe826 	beq	r4,r5,80037f0 <__swsetup_r+0x48>
 8003850:	800b883a 	mov	r5,r16
 8003854:	8809883a 	mov	r4,r17
 8003858:	80041900 	call	8004190 <__smakebuf_r>
 800385c:	8080030b 	ldhu	r2,12(r16)
 8003860:	80c00417 	ldw	r3,16(r16)
 8003864:	003fe206 	br	80037f0 <__swsetup_r+0x48>
 8003868:	80800517 	ldw	r2,20(r16)
 800386c:	80000215 	stw	zero,8(r16)
 8003870:	0085c83a 	sub	r2,zero,r2
 8003874:	80800615 	stw	r2,24(r16)
 8003878:	183fe41e 	bne	r3,zero,800380c <__swsetup_r+0x64>
 800387c:	80c0030b 	ldhu	r3,12(r16)
 8003880:	0005883a 	mov	r2,zero
 8003884:	1900200c 	andi	r4,r3,128
 8003888:	203fe126 	beq	r4,zero,8003810 <__swsetup_r+0x68>
 800388c:	18c01014 	ori	r3,r3,64
 8003890:	80c0030d 	sth	r3,12(r16)
 8003894:	00bfffc4 	movi	r2,-1
 8003898:	003fdd06 	br	8003810 <__swsetup_r+0x68>
 800389c:	8001d040 	call	8001d04 <__sinit>
 80038a0:	003fcd06 	br	80037d8 <__swsetup_r+0x30>
 80038a4:	0005883a 	mov	r2,zero
 80038a8:	003fd606 	br	8003804 <__swsetup_r+0x5c>
 80038ac:	81400c17 	ldw	r5,48(r16)
 80038b0:	28000626 	beq	r5,zero,80038cc <__swsetup_r+0x124>
 80038b4:	80801004 	addi	r2,r16,64
 80038b8:	28800326 	beq	r5,r2,80038c8 <__swsetup_r+0x120>
 80038bc:	8809883a 	mov	r4,r17
 80038c0:	8003e200 	call	8003e20 <_free_r>
 80038c4:	8100030b 	ldhu	r4,12(r16)
 80038c8:	80000c15 	stw	zero,48(r16)
 80038cc:	80c00417 	ldw	r3,16(r16)
 80038d0:	00bff6c4 	movi	r2,-37
 80038d4:	1108703a 	and	r4,r2,r4
 80038d8:	80000115 	stw	zero,4(r16)
 80038dc:	80c00015 	stw	r3,0(r16)
 80038e0:	003fd506 	br	8003838 <__swsetup_r+0x90>
 80038e4:	00800244 	movi	r2,9
 80038e8:	88800015 	stw	r2,0(r17)
 80038ec:	20801014 	ori	r2,r4,64
 80038f0:	8080030d 	sth	r2,12(r16)
 80038f4:	00bfffc4 	movi	r2,-1
 80038f8:	003fc506 	br	8003810 <__swsetup_r+0x68>

080038fc <_close_r>:
 80038fc:	defffd04 	addi	sp,sp,-12
 8003900:	dc000015 	stw	r16,0(sp)
 8003904:	04020074 	movhi	r16,2049
 8003908:	dc400115 	stw	r17,4(sp)
 800390c:	84289704 	addi	r16,r16,-23972
 8003910:	2023883a 	mov	r17,r4
 8003914:	2809883a 	mov	r4,r5
 8003918:	dfc00215 	stw	ra,8(sp)
 800391c:	80000015 	stw	zero,0(r16)
 8003920:	80044f80 	call	80044f8 <close>
 8003924:	00ffffc4 	movi	r3,-1
 8003928:	10c00526 	beq	r2,r3,8003940 <_close_r+0x44>
 800392c:	dfc00217 	ldw	ra,8(sp)
 8003930:	dc400117 	ldw	r17,4(sp)
 8003934:	dc000017 	ldw	r16,0(sp)
 8003938:	dec00304 	addi	sp,sp,12
 800393c:	f800283a 	ret
 8003940:	80c00017 	ldw	r3,0(r16)
 8003944:	183ff926 	beq	r3,zero,800392c <_close_r+0x30>
 8003948:	88c00015 	stw	r3,0(r17)
 800394c:	003ff706 	br	800392c <_close_r+0x30>

08003950 <_fclose_r>:
 8003950:	28003926 	beq	r5,zero,8003a38 <_fclose_r+0xe8>
 8003954:	defffc04 	addi	sp,sp,-16
 8003958:	dc400115 	stw	r17,4(sp)
 800395c:	dc000015 	stw	r16,0(sp)
 8003960:	dfc00315 	stw	ra,12(sp)
 8003964:	dc800215 	stw	r18,8(sp)
 8003968:	2023883a 	mov	r17,r4
 800396c:	2821883a 	mov	r16,r5
 8003970:	20000226 	beq	r4,zero,800397c <_fclose_r+0x2c>
 8003974:	20800e17 	ldw	r2,56(r4)
 8003978:	10002726 	beq	r2,zero,8003a18 <_fclose_r+0xc8>
 800397c:	8080030f 	ldh	r2,12(r16)
 8003980:	1000071e 	bne	r2,zero,80039a0 <_fclose_r+0x50>
 8003984:	0005883a 	mov	r2,zero
 8003988:	dfc00317 	ldw	ra,12(sp)
 800398c:	dc800217 	ldw	r18,8(sp)
 8003990:	dc400117 	ldw	r17,4(sp)
 8003994:	dc000017 	ldw	r16,0(sp)
 8003998:	dec00404 	addi	sp,sp,16
 800399c:	f800283a 	ret
 80039a0:	800b883a 	mov	r5,r16
 80039a4:	8809883a 	mov	r4,r17
 80039a8:	8003a540 	call	8003a54 <__sflush_r>
 80039ac:	1025883a 	mov	r18,r2
 80039b0:	80800b17 	ldw	r2,44(r16)
 80039b4:	10000426 	beq	r2,zero,80039c8 <_fclose_r+0x78>
 80039b8:	81400717 	ldw	r5,28(r16)
 80039bc:	8809883a 	mov	r4,r17
 80039c0:	103ee83a 	callr	r2
 80039c4:	10001616 	blt	r2,zero,8003a20 <_fclose_r+0xd0>
 80039c8:	8080030b 	ldhu	r2,12(r16)
 80039cc:	1080200c 	andi	r2,r2,128
 80039d0:	1000151e 	bne	r2,zero,8003a28 <_fclose_r+0xd8>
 80039d4:	81400c17 	ldw	r5,48(r16)
 80039d8:	28000526 	beq	r5,zero,80039f0 <_fclose_r+0xa0>
 80039dc:	80801004 	addi	r2,r16,64
 80039e0:	28800226 	beq	r5,r2,80039ec <_fclose_r+0x9c>
 80039e4:	8809883a 	mov	r4,r17
 80039e8:	8003e200 	call	8003e20 <_free_r>
 80039ec:	80000c15 	stw	zero,48(r16)
 80039f0:	81401117 	ldw	r5,68(r16)
 80039f4:	28000326 	beq	r5,zero,8003a04 <_fclose_r+0xb4>
 80039f8:	8809883a 	mov	r4,r17
 80039fc:	8003e200 	call	8003e20 <_free_r>
 8003a00:	80001115 	stw	zero,68(r16)
 8003a04:	8001d140 	call	8001d14 <__sfp_lock_acquire>
 8003a08:	8000030d 	sth	zero,12(r16)
 8003a0c:	8001d180 	call	8001d18 <__sfp_lock_release>
 8003a10:	9005883a 	mov	r2,r18
 8003a14:	003fdc06 	br	8003988 <_fclose_r+0x38>
 8003a18:	8001d040 	call	8001d04 <__sinit>
 8003a1c:	003fd706 	br	800397c <_fclose_r+0x2c>
 8003a20:	04bfffc4 	movi	r18,-1
 8003a24:	003fe806 	br	80039c8 <_fclose_r+0x78>
 8003a28:	81400417 	ldw	r5,16(r16)
 8003a2c:	8809883a 	mov	r4,r17
 8003a30:	8003e200 	call	8003e20 <_free_r>
 8003a34:	003fe706 	br	80039d4 <_fclose_r+0x84>
 8003a38:	0005883a 	mov	r2,zero
 8003a3c:	f800283a 	ret

08003a40 <fclose>:
 8003a40:	00820074 	movhi	r2,2049
 8003a44:	10a1ec04 	addi	r2,r2,-30800
 8003a48:	200b883a 	mov	r5,r4
 8003a4c:	11000017 	ldw	r4,0(r2)
 8003a50:	80039501 	jmpi	8003950 <_fclose_r>

08003a54 <__sflush_r>:
 8003a54:	2880030b 	ldhu	r2,12(r5)
 8003a58:	defffb04 	addi	sp,sp,-20
 8003a5c:	dcc00315 	stw	r19,12(sp)
 8003a60:	dc400115 	stw	r17,4(sp)
 8003a64:	dfc00415 	stw	ra,16(sp)
 8003a68:	dc800215 	stw	r18,8(sp)
 8003a6c:	dc000015 	stw	r16,0(sp)
 8003a70:	10c0020c 	andi	r3,r2,8
 8003a74:	2823883a 	mov	r17,r5
 8003a78:	2027883a 	mov	r19,r4
 8003a7c:	1800311e 	bne	r3,zero,8003b44 <__sflush_r+0xf0>
 8003a80:	28c00117 	ldw	r3,4(r5)
 8003a84:	10820014 	ori	r2,r2,2048
 8003a88:	2880030d 	sth	r2,12(r5)
 8003a8c:	00c04b0e 	bge	zero,r3,8003bbc <__sflush_r+0x168>
 8003a90:	8a000a17 	ldw	r8,40(r17)
 8003a94:	40002326 	beq	r8,zero,8003b24 <__sflush_r+0xd0>
 8003a98:	9c000017 	ldw	r16,0(r19)
 8003a9c:	10c4000c 	andi	r3,r2,4096
 8003aa0:	98000015 	stw	zero,0(r19)
 8003aa4:	18004826 	beq	r3,zero,8003bc8 <__sflush_r+0x174>
 8003aa8:	89801417 	ldw	r6,80(r17)
 8003aac:	10c0010c 	andi	r3,r2,4
 8003ab0:	18000626 	beq	r3,zero,8003acc <__sflush_r+0x78>
 8003ab4:	88c00117 	ldw	r3,4(r17)
 8003ab8:	88800c17 	ldw	r2,48(r17)
 8003abc:	30cdc83a 	sub	r6,r6,r3
 8003ac0:	10000226 	beq	r2,zero,8003acc <__sflush_r+0x78>
 8003ac4:	88800f17 	ldw	r2,60(r17)
 8003ac8:	308dc83a 	sub	r6,r6,r2
 8003acc:	89400717 	ldw	r5,28(r17)
 8003ad0:	000f883a 	mov	r7,zero
 8003ad4:	9809883a 	mov	r4,r19
 8003ad8:	403ee83a 	callr	r8
 8003adc:	00ffffc4 	movi	r3,-1
 8003ae0:	10c04426 	beq	r2,r3,8003bf4 <__sflush_r+0x1a0>
 8003ae4:	88c0030b 	ldhu	r3,12(r17)
 8003ae8:	89000417 	ldw	r4,16(r17)
 8003aec:	88000115 	stw	zero,4(r17)
 8003af0:	197dffcc 	andi	r5,r3,63487
 8003af4:	8940030d 	sth	r5,12(r17)
 8003af8:	89000015 	stw	r4,0(r17)
 8003afc:	18c4000c 	andi	r3,r3,4096
 8003b00:	18002c1e 	bne	r3,zero,8003bb4 <__sflush_r+0x160>
 8003b04:	89400c17 	ldw	r5,48(r17)
 8003b08:	9c000015 	stw	r16,0(r19)
 8003b0c:	28000526 	beq	r5,zero,8003b24 <__sflush_r+0xd0>
 8003b10:	88801004 	addi	r2,r17,64
 8003b14:	28800226 	beq	r5,r2,8003b20 <__sflush_r+0xcc>
 8003b18:	9809883a 	mov	r4,r19
 8003b1c:	8003e200 	call	8003e20 <_free_r>
 8003b20:	88000c15 	stw	zero,48(r17)
 8003b24:	0005883a 	mov	r2,zero
 8003b28:	dfc00417 	ldw	ra,16(sp)
 8003b2c:	dcc00317 	ldw	r19,12(sp)
 8003b30:	dc800217 	ldw	r18,8(sp)
 8003b34:	dc400117 	ldw	r17,4(sp)
 8003b38:	dc000017 	ldw	r16,0(sp)
 8003b3c:	dec00504 	addi	sp,sp,20
 8003b40:	f800283a 	ret
 8003b44:	2c800417 	ldw	r18,16(r5)
 8003b48:	903ff626 	beq	r18,zero,8003b24 <__sflush_r+0xd0>
 8003b4c:	2c000017 	ldw	r16,0(r5)
 8003b50:	108000cc 	andi	r2,r2,3
 8003b54:	2c800015 	stw	r18,0(r5)
 8003b58:	84a1c83a 	sub	r16,r16,r18
 8003b5c:	1000131e 	bne	r2,zero,8003bac <__sflush_r+0x158>
 8003b60:	28800517 	ldw	r2,20(r5)
 8003b64:	88800215 	stw	r2,8(r17)
 8003b68:	04000316 	blt	zero,r16,8003b78 <__sflush_r+0x124>
 8003b6c:	003fed06 	br	8003b24 <__sflush_r+0xd0>
 8003b70:	90a5883a 	add	r18,r18,r2
 8003b74:	043feb0e 	bge	zero,r16,8003b24 <__sflush_r+0xd0>
 8003b78:	88800917 	ldw	r2,36(r17)
 8003b7c:	89400717 	ldw	r5,28(r17)
 8003b80:	800f883a 	mov	r7,r16
 8003b84:	900d883a 	mov	r6,r18
 8003b88:	9809883a 	mov	r4,r19
 8003b8c:	103ee83a 	callr	r2
 8003b90:	80a1c83a 	sub	r16,r16,r2
 8003b94:	00bff616 	blt	zero,r2,8003b70 <__sflush_r+0x11c>
 8003b98:	88c0030b 	ldhu	r3,12(r17)
 8003b9c:	00bfffc4 	movi	r2,-1
 8003ba0:	18c01014 	ori	r3,r3,64
 8003ba4:	88c0030d 	sth	r3,12(r17)
 8003ba8:	003fdf06 	br	8003b28 <__sflush_r+0xd4>
 8003bac:	0005883a 	mov	r2,zero
 8003bb0:	003fec06 	br	8003b64 <__sflush_r+0x110>
 8003bb4:	88801415 	stw	r2,80(r17)
 8003bb8:	003fd206 	br	8003b04 <__sflush_r+0xb0>
 8003bbc:	28c00f17 	ldw	r3,60(r5)
 8003bc0:	00ffb316 	blt	zero,r3,8003a90 <__sflush_r+0x3c>
 8003bc4:	003fd706 	br	8003b24 <__sflush_r+0xd0>
 8003bc8:	89400717 	ldw	r5,28(r17)
 8003bcc:	000d883a 	mov	r6,zero
 8003bd0:	01c00044 	movi	r7,1
 8003bd4:	9809883a 	mov	r4,r19
 8003bd8:	403ee83a 	callr	r8
 8003bdc:	100d883a 	mov	r6,r2
 8003be0:	00bfffc4 	movi	r2,-1
 8003be4:	30801426 	beq	r6,r2,8003c38 <__sflush_r+0x1e4>
 8003be8:	8880030b 	ldhu	r2,12(r17)
 8003bec:	8a000a17 	ldw	r8,40(r17)
 8003bf0:	003fae06 	br	8003aac <__sflush_r+0x58>
 8003bf4:	98c00017 	ldw	r3,0(r19)
 8003bf8:	183fba26 	beq	r3,zero,8003ae4 <__sflush_r+0x90>
 8003bfc:	01000744 	movi	r4,29
 8003c00:	19000626 	beq	r3,r4,8003c1c <__sflush_r+0x1c8>
 8003c04:	01000584 	movi	r4,22
 8003c08:	19000426 	beq	r3,r4,8003c1c <__sflush_r+0x1c8>
 8003c0c:	88c0030b 	ldhu	r3,12(r17)
 8003c10:	18c01014 	ori	r3,r3,64
 8003c14:	88c0030d 	sth	r3,12(r17)
 8003c18:	003fc306 	br	8003b28 <__sflush_r+0xd4>
 8003c1c:	8880030b 	ldhu	r2,12(r17)
 8003c20:	88c00417 	ldw	r3,16(r17)
 8003c24:	88000115 	stw	zero,4(r17)
 8003c28:	10bdffcc 	andi	r2,r2,63487
 8003c2c:	8880030d 	sth	r2,12(r17)
 8003c30:	88c00015 	stw	r3,0(r17)
 8003c34:	003fb306 	br	8003b04 <__sflush_r+0xb0>
 8003c38:	98800017 	ldw	r2,0(r19)
 8003c3c:	103fea26 	beq	r2,zero,8003be8 <__sflush_r+0x194>
 8003c40:	00c00744 	movi	r3,29
 8003c44:	10c00226 	beq	r2,r3,8003c50 <__sflush_r+0x1fc>
 8003c48:	00c00584 	movi	r3,22
 8003c4c:	10c0031e 	bne	r2,r3,8003c5c <__sflush_r+0x208>
 8003c50:	9c000015 	stw	r16,0(r19)
 8003c54:	0005883a 	mov	r2,zero
 8003c58:	003fb306 	br	8003b28 <__sflush_r+0xd4>
 8003c5c:	88c0030b 	ldhu	r3,12(r17)
 8003c60:	3005883a 	mov	r2,r6
 8003c64:	18c01014 	ori	r3,r3,64
 8003c68:	88c0030d 	sth	r3,12(r17)
 8003c6c:	003fae06 	br	8003b28 <__sflush_r+0xd4>

08003c70 <_fflush_r>:
 8003c70:	defffd04 	addi	sp,sp,-12
 8003c74:	dc000115 	stw	r16,4(sp)
 8003c78:	dfc00215 	stw	ra,8(sp)
 8003c7c:	2021883a 	mov	r16,r4
 8003c80:	20000226 	beq	r4,zero,8003c8c <_fflush_r+0x1c>
 8003c84:	20800e17 	ldw	r2,56(r4)
 8003c88:	10000c26 	beq	r2,zero,8003cbc <_fflush_r+0x4c>
 8003c8c:	2880030f 	ldh	r2,12(r5)
 8003c90:	1000051e 	bne	r2,zero,8003ca8 <_fflush_r+0x38>
 8003c94:	0005883a 	mov	r2,zero
 8003c98:	dfc00217 	ldw	ra,8(sp)
 8003c9c:	dc000117 	ldw	r16,4(sp)
 8003ca0:	dec00304 	addi	sp,sp,12
 8003ca4:	f800283a 	ret
 8003ca8:	8009883a 	mov	r4,r16
 8003cac:	dfc00217 	ldw	ra,8(sp)
 8003cb0:	dc000117 	ldw	r16,4(sp)
 8003cb4:	dec00304 	addi	sp,sp,12
 8003cb8:	8003a541 	jmpi	8003a54 <__sflush_r>
 8003cbc:	d9400015 	stw	r5,0(sp)
 8003cc0:	8001d040 	call	8001d04 <__sinit>
 8003cc4:	d9400017 	ldw	r5,0(sp)
 8003cc8:	003ff006 	br	8003c8c <_fflush_r+0x1c>

08003ccc <fflush>:
 8003ccc:	20000526 	beq	r4,zero,8003ce4 <fflush+0x18>
 8003cd0:	00820074 	movhi	r2,2049
 8003cd4:	10a1ec04 	addi	r2,r2,-30800
 8003cd8:	200b883a 	mov	r5,r4
 8003cdc:	11000017 	ldw	r4,0(r2)
 8003ce0:	8003c701 	jmpi	8003c70 <_fflush_r>
 8003ce4:	00820074 	movhi	r2,2049
 8003ce8:	10a1eb04 	addi	r2,r2,-30804
 8003cec:	11000017 	ldw	r4,0(r2)
 8003cf0:	01420034 	movhi	r5,2048
 8003cf4:	294f1c04 	addi	r5,r5,15472
 8003cf8:	80022d41 	jmpi	80022d4 <_fwalk_reent>

08003cfc <_malloc_trim_r>:
 8003cfc:	defffb04 	addi	sp,sp,-20
 8003d00:	dcc00315 	stw	r19,12(sp)
 8003d04:	04c20034 	movhi	r19,2048
 8003d08:	dc800215 	stw	r18,8(sp)
 8003d0c:	dc400115 	stw	r17,4(sp)
 8003d10:	dc000015 	stw	r16,0(sp)
 8003d14:	dfc00415 	stw	ra,16(sp)
 8003d18:	2821883a 	mov	r16,r5
 8003d1c:	9cdc6704 	addi	r19,r19,29084
 8003d20:	2025883a 	mov	r18,r4
 8003d24:	8004a380 	call	8004a38 <__malloc_lock>
 8003d28:	98800217 	ldw	r2,8(r19)
 8003d2c:	14400117 	ldw	r17,4(r2)
 8003d30:	00bfff04 	movi	r2,-4
 8003d34:	88a2703a 	and	r17,r17,r2
 8003d38:	8c21c83a 	sub	r16,r17,r16
 8003d3c:	8403fbc4 	addi	r16,r16,4079
 8003d40:	8020d33a 	srli	r16,r16,12
 8003d44:	0083ffc4 	movi	r2,4095
 8003d48:	843fffc4 	addi	r16,r16,-1
 8003d4c:	8020933a 	slli	r16,r16,12
 8003d50:	1400060e 	bge	r2,r16,8003d6c <_malloc_trim_r+0x70>
 8003d54:	000b883a 	mov	r5,zero
 8003d58:	9009883a 	mov	r4,r18
 8003d5c:	80035b80 	call	80035b8 <_sbrk_r>
 8003d60:	98c00217 	ldw	r3,8(r19)
 8003d64:	1c47883a 	add	r3,r3,r17
 8003d68:	10c00a26 	beq	r2,r3,8003d94 <_malloc_trim_r+0x98>
 8003d6c:	9009883a 	mov	r4,r18
 8003d70:	8004a5c0 	call	8004a5c <__malloc_unlock>
 8003d74:	0005883a 	mov	r2,zero
 8003d78:	dfc00417 	ldw	ra,16(sp)
 8003d7c:	dcc00317 	ldw	r19,12(sp)
 8003d80:	dc800217 	ldw	r18,8(sp)
 8003d84:	dc400117 	ldw	r17,4(sp)
 8003d88:	dc000017 	ldw	r16,0(sp)
 8003d8c:	dec00504 	addi	sp,sp,20
 8003d90:	f800283a 	ret
 8003d94:	040bc83a 	sub	r5,zero,r16
 8003d98:	9009883a 	mov	r4,r18
 8003d9c:	80035b80 	call	80035b8 <_sbrk_r>
 8003da0:	00ffffc4 	movi	r3,-1
 8003da4:	10c00d26 	beq	r2,r3,8003ddc <_malloc_trim_r+0xe0>
 8003da8:	00c20074 	movhi	r3,2049
 8003dac:	18e8a604 	addi	r3,r3,-23912
 8003db0:	18800017 	ldw	r2,0(r3)
 8003db4:	99000217 	ldw	r4,8(r19)
 8003db8:	8c23c83a 	sub	r17,r17,r16
 8003dbc:	8c400054 	ori	r17,r17,1
 8003dc0:	1421c83a 	sub	r16,r2,r16
 8003dc4:	24400115 	stw	r17,4(r4)
 8003dc8:	9009883a 	mov	r4,r18
 8003dcc:	1c000015 	stw	r16,0(r3)
 8003dd0:	8004a5c0 	call	8004a5c <__malloc_unlock>
 8003dd4:	00800044 	movi	r2,1
 8003dd8:	003fe706 	br	8003d78 <_malloc_trim_r+0x7c>
 8003ddc:	000b883a 	mov	r5,zero
 8003de0:	9009883a 	mov	r4,r18
 8003de4:	80035b80 	call	80035b8 <_sbrk_r>
 8003de8:	99000217 	ldw	r4,8(r19)
 8003dec:	014003c4 	movi	r5,15
 8003df0:	1107c83a 	sub	r3,r2,r4
 8003df4:	28ffdd0e 	bge	r5,r3,8003d6c <_malloc_trim_r+0x70>
 8003df8:	01420074 	movhi	r5,2049
 8003dfc:	2961ed04 	addi	r5,r5,-30796
 8003e00:	29400017 	ldw	r5,0(r5)
 8003e04:	18c00054 	ori	r3,r3,1
 8003e08:	20c00115 	stw	r3,4(r4)
 8003e0c:	00c20074 	movhi	r3,2049
 8003e10:	1145c83a 	sub	r2,r2,r5
 8003e14:	18e8a604 	addi	r3,r3,-23912
 8003e18:	18800015 	stw	r2,0(r3)
 8003e1c:	003fd306 	br	8003d6c <_malloc_trim_r+0x70>

08003e20 <_free_r>:
 8003e20:	28004126 	beq	r5,zero,8003f28 <_free_r+0x108>
 8003e24:	defffd04 	addi	sp,sp,-12
 8003e28:	dc400115 	stw	r17,4(sp)
 8003e2c:	dc000015 	stw	r16,0(sp)
 8003e30:	2023883a 	mov	r17,r4
 8003e34:	2821883a 	mov	r16,r5
 8003e38:	dfc00215 	stw	ra,8(sp)
 8003e3c:	8004a380 	call	8004a38 <__malloc_lock>
 8003e40:	81ffff17 	ldw	r7,-4(r16)
 8003e44:	00bfff84 	movi	r2,-2
 8003e48:	01020034 	movhi	r4,2048
 8003e4c:	81bffe04 	addi	r6,r16,-8
 8003e50:	3884703a 	and	r2,r7,r2
 8003e54:	211c6704 	addi	r4,r4,29084
 8003e58:	308b883a 	add	r5,r6,r2
 8003e5c:	2a400117 	ldw	r9,4(r5)
 8003e60:	22000217 	ldw	r8,8(r4)
 8003e64:	00ffff04 	movi	r3,-4
 8003e68:	48c6703a 	and	r3,r9,r3
 8003e6c:	2a005726 	beq	r5,r8,8003fcc <_free_r+0x1ac>
 8003e70:	28c00115 	stw	r3,4(r5)
 8003e74:	39c0004c 	andi	r7,r7,1
 8003e78:	3800091e 	bne	r7,zero,8003ea0 <_free_r+0x80>
 8003e7c:	823ffe17 	ldw	r8,-8(r16)
 8003e80:	22400204 	addi	r9,r4,8
 8003e84:	320dc83a 	sub	r6,r6,r8
 8003e88:	31c00217 	ldw	r7,8(r6)
 8003e8c:	1205883a 	add	r2,r2,r8
 8003e90:	3a406526 	beq	r7,r9,8004028 <_free_r+0x208>
 8003e94:	32000317 	ldw	r8,12(r6)
 8003e98:	3a000315 	stw	r8,12(r7)
 8003e9c:	41c00215 	stw	r7,8(r8)
 8003ea0:	28cf883a 	add	r7,r5,r3
 8003ea4:	39c00117 	ldw	r7,4(r7)
 8003ea8:	39c0004c 	andi	r7,r7,1
 8003eac:	38003a26 	beq	r7,zero,8003f98 <_free_r+0x178>
 8003eb0:	10c00054 	ori	r3,r2,1
 8003eb4:	30c00115 	stw	r3,4(r6)
 8003eb8:	3087883a 	add	r3,r6,r2
 8003ebc:	18800015 	stw	r2,0(r3)
 8003ec0:	00c07fc4 	movi	r3,511
 8003ec4:	18801936 	bltu	r3,r2,8003f2c <_free_r+0x10c>
 8003ec8:	1004d0fa 	srli	r2,r2,3
 8003ecc:	01c00044 	movi	r7,1
 8003ed0:	21400117 	ldw	r5,4(r4)
 8003ed4:	10c00044 	addi	r3,r2,1
 8003ed8:	18c7883a 	add	r3,r3,r3
 8003edc:	1005d0ba 	srai	r2,r2,2
 8003ee0:	18c7883a 	add	r3,r3,r3
 8003ee4:	18c7883a 	add	r3,r3,r3
 8003ee8:	1907883a 	add	r3,r3,r4
 8003eec:	3884983a 	sll	r2,r7,r2
 8003ef0:	19c00017 	ldw	r7,0(r3)
 8003ef4:	1a3ffe04 	addi	r8,r3,-8
 8003ef8:	1144b03a 	or	r2,r2,r5
 8003efc:	32000315 	stw	r8,12(r6)
 8003f00:	31c00215 	stw	r7,8(r6)
 8003f04:	20800115 	stw	r2,4(r4)
 8003f08:	19800015 	stw	r6,0(r3)
 8003f0c:	39800315 	stw	r6,12(r7)
 8003f10:	8809883a 	mov	r4,r17
 8003f14:	dfc00217 	ldw	ra,8(sp)
 8003f18:	dc400117 	ldw	r17,4(sp)
 8003f1c:	dc000017 	ldw	r16,0(sp)
 8003f20:	dec00304 	addi	sp,sp,12
 8003f24:	8004a5c1 	jmpi	8004a5c <__malloc_unlock>
 8003f28:	f800283a 	ret
 8003f2c:	100ad27a 	srli	r5,r2,9
 8003f30:	00c00104 	movi	r3,4
 8003f34:	19404a36 	bltu	r3,r5,8004060 <_free_r+0x240>
 8003f38:	100ad1ba 	srli	r5,r2,6
 8003f3c:	28c00e44 	addi	r3,r5,57
 8003f40:	18c7883a 	add	r3,r3,r3
 8003f44:	29400e04 	addi	r5,r5,56
 8003f48:	18c7883a 	add	r3,r3,r3
 8003f4c:	18c7883a 	add	r3,r3,r3
 8003f50:	1909883a 	add	r4,r3,r4
 8003f54:	20c00017 	ldw	r3,0(r4)
 8003f58:	01c20034 	movhi	r7,2048
 8003f5c:	213ffe04 	addi	r4,r4,-8
 8003f60:	39dc6704 	addi	r7,r7,29084
 8003f64:	20c04426 	beq	r4,r3,8004078 <_free_r+0x258>
 8003f68:	01ffff04 	movi	r7,-4
 8003f6c:	19400117 	ldw	r5,4(r3)
 8003f70:	29ca703a 	and	r5,r5,r7
 8003f74:	1140022e 	bgeu	r2,r5,8003f80 <_free_r+0x160>
 8003f78:	18c00217 	ldw	r3,8(r3)
 8003f7c:	20fffb1e 	bne	r4,r3,8003f6c <_free_r+0x14c>
 8003f80:	19000317 	ldw	r4,12(r3)
 8003f84:	31000315 	stw	r4,12(r6)
 8003f88:	30c00215 	stw	r3,8(r6)
 8003f8c:	21800215 	stw	r6,8(r4)
 8003f90:	19800315 	stw	r6,12(r3)
 8003f94:	003fde06 	br	8003f10 <_free_r+0xf0>
 8003f98:	29c00217 	ldw	r7,8(r5)
 8003f9c:	10c5883a 	add	r2,r2,r3
 8003fa0:	00c20034 	movhi	r3,2048
 8003fa4:	18dc6904 	addi	r3,r3,29092
 8003fa8:	38c03b26 	beq	r7,r3,8004098 <_free_r+0x278>
 8003fac:	2a000317 	ldw	r8,12(r5)
 8003fb0:	11400054 	ori	r5,r2,1
 8003fb4:	3087883a 	add	r3,r6,r2
 8003fb8:	3a000315 	stw	r8,12(r7)
 8003fbc:	41c00215 	stw	r7,8(r8)
 8003fc0:	31400115 	stw	r5,4(r6)
 8003fc4:	18800015 	stw	r2,0(r3)
 8003fc8:	003fbd06 	br	8003ec0 <_free_r+0xa0>
 8003fcc:	39c0004c 	andi	r7,r7,1
 8003fd0:	10c5883a 	add	r2,r2,r3
 8003fd4:	3800071e 	bne	r7,zero,8003ff4 <_free_r+0x1d4>
 8003fd8:	81fffe17 	ldw	r7,-8(r16)
 8003fdc:	31cdc83a 	sub	r6,r6,r7
 8003fe0:	30c00317 	ldw	r3,12(r6)
 8003fe4:	31400217 	ldw	r5,8(r6)
 8003fe8:	11c5883a 	add	r2,r2,r7
 8003fec:	28c00315 	stw	r3,12(r5)
 8003ff0:	19400215 	stw	r5,8(r3)
 8003ff4:	10c00054 	ori	r3,r2,1
 8003ff8:	30c00115 	stw	r3,4(r6)
 8003ffc:	00c20074 	movhi	r3,2049
 8004000:	18e1ee04 	addi	r3,r3,-30792
 8004004:	18c00017 	ldw	r3,0(r3)
 8004008:	21800215 	stw	r6,8(r4)
 800400c:	10ffc036 	bltu	r2,r3,8003f10 <_free_r+0xf0>
 8004010:	00820074 	movhi	r2,2049
 8004014:	10a89604 	addi	r2,r2,-23976
 8004018:	11400017 	ldw	r5,0(r2)
 800401c:	8809883a 	mov	r4,r17
 8004020:	8003cfc0 	call	8003cfc <_malloc_trim_r>
 8004024:	003fba06 	br	8003f10 <_free_r+0xf0>
 8004028:	28c9883a 	add	r4,r5,r3
 800402c:	21000117 	ldw	r4,4(r4)
 8004030:	2100004c 	andi	r4,r4,1
 8004034:	2000391e 	bne	r4,zero,800411c <_free_r+0x2fc>
 8004038:	29c00217 	ldw	r7,8(r5)
 800403c:	29000317 	ldw	r4,12(r5)
 8004040:	1885883a 	add	r2,r3,r2
 8004044:	10c00054 	ori	r3,r2,1
 8004048:	39000315 	stw	r4,12(r7)
 800404c:	21c00215 	stw	r7,8(r4)
 8004050:	30c00115 	stw	r3,4(r6)
 8004054:	308d883a 	add	r6,r6,r2
 8004058:	30800015 	stw	r2,0(r6)
 800405c:	003fac06 	br	8003f10 <_free_r+0xf0>
 8004060:	00c00504 	movi	r3,20
 8004064:	19401536 	bltu	r3,r5,80040bc <_free_r+0x29c>
 8004068:	28c01704 	addi	r3,r5,92
 800406c:	18c7883a 	add	r3,r3,r3
 8004070:	294016c4 	addi	r5,r5,91
 8004074:	003fb406 	br	8003f48 <_free_r+0x128>
 8004078:	280bd0ba 	srai	r5,r5,2
 800407c:	00c00044 	movi	r3,1
 8004080:	38800117 	ldw	r2,4(r7)
 8004084:	194a983a 	sll	r5,r3,r5
 8004088:	2007883a 	mov	r3,r4
 800408c:	2884b03a 	or	r2,r5,r2
 8004090:	38800115 	stw	r2,4(r7)
 8004094:	003fbb06 	br	8003f84 <_free_r+0x164>
 8004098:	21800515 	stw	r6,20(r4)
 800409c:	21800415 	stw	r6,16(r4)
 80040a0:	10c00054 	ori	r3,r2,1
 80040a4:	31c00315 	stw	r7,12(r6)
 80040a8:	31c00215 	stw	r7,8(r6)
 80040ac:	30c00115 	stw	r3,4(r6)
 80040b0:	308d883a 	add	r6,r6,r2
 80040b4:	30800015 	stw	r2,0(r6)
 80040b8:	003f9506 	br	8003f10 <_free_r+0xf0>
 80040bc:	00c01504 	movi	r3,84
 80040c0:	19400536 	bltu	r3,r5,80040d8 <_free_r+0x2b8>
 80040c4:	100ad33a 	srli	r5,r2,12
 80040c8:	28c01bc4 	addi	r3,r5,111
 80040cc:	18c7883a 	add	r3,r3,r3
 80040d0:	29401b84 	addi	r5,r5,110
 80040d4:	003f9c06 	br	8003f48 <_free_r+0x128>
 80040d8:	00c05504 	movi	r3,340
 80040dc:	19400536 	bltu	r3,r5,80040f4 <_free_r+0x2d4>
 80040e0:	100ad3fa 	srli	r5,r2,15
 80040e4:	28c01e04 	addi	r3,r5,120
 80040e8:	18c7883a 	add	r3,r3,r3
 80040ec:	29401dc4 	addi	r5,r5,119
 80040f0:	003f9506 	br	8003f48 <_free_r+0x128>
 80040f4:	00c15504 	movi	r3,1364
 80040f8:	19400536 	bltu	r3,r5,8004110 <_free_r+0x2f0>
 80040fc:	100ad4ba 	srli	r5,r2,18
 8004100:	28c01f44 	addi	r3,r5,125
 8004104:	18c7883a 	add	r3,r3,r3
 8004108:	29401f04 	addi	r5,r5,124
 800410c:	003f8e06 	br	8003f48 <_free_r+0x128>
 8004110:	00c03f84 	movi	r3,254
 8004114:	01401f84 	movi	r5,126
 8004118:	003f8b06 	br	8003f48 <_free_r+0x128>
 800411c:	10c00054 	ori	r3,r2,1
 8004120:	30c00115 	stw	r3,4(r6)
 8004124:	308d883a 	add	r6,r6,r2
 8004128:	30800015 	stw	r2,0(r6)
 800412c:	003f7806 	br	8003f10 <_free_r+0xf0>

08004130 <_lseek_r>:
 8004130:	defffd04 	addi	sp,sp,-12
 8004134:	2805883a 	mov	r2,r5
 8004138:	dc000015 	stw	r16,0(sp)
 800413c:	04020074 	movhi	r16,2049
 8004140:	dc400115 	stw	r17,4(sp)
 8004144:	300b883a 	mov	r5,r6
 8004148:	84289704 	addi	r16,r16,-23972
 800414c:	2023883a 	mov	r17,r4
 8004150:	380d883a 	mov	r6,r7
 8004154:	1009883a 	mov	r4,r2
 8004158:	dfc00215 	stw	ra,8(sp)
 800415c:	80000015 	stw	zero,0(r16)
 8004160:	80048e80 	call	80048e8 <lseek>
 8004164:	00ffffc4 	movi	r3,-1
 8004168:	10c00526 	beq	r2,r3,8004180 <_lseek_r+0x50>
 800416c:	dfc00217 	ldw	ra,8(sp)
 8004170:	dc400117 	ldw	r17,4(sp)
 8004174:	dc000017 	ldw	r16,0(sp)
 8004178:	dec00304 	addi	sp,sp,12
 800417c:	f800283a 	ret
 8004180:	80c00017 	ldw	r3,0(r16)
 8004184:	183ff926 	beq	r3,zero,800416c <_lseek_r+0x3c>
 8004188:	88c00015 	stw	r3,0(r17)
 800418c:	003ff706 	br	800416c <_lseek_r+0x3c>

08004190 <__smakebuf_r>:
 8004190:	2880030b 	ldhu	r2,12(r5)
 8004194:	10c0008c 	andi	r3,r2,2
 8004198:	1800411e 	bne	r3,zero,80042a0 <__smakebuf_r+0x110>
 800419c:	deffec04 	addi	sp,sp,-80
 80041a0:	dc000f15 	stw	r16,60(sp)
 80041a4:	2821883a 	mov	r16,r5
 80041a8:	2940038f 	ldh	r5,14(r5)
 80041ac:	dc401015 	stw	r17,64(sp)
 80041b0:	dfc01315 	stw	ra,76(sp)
 80041b4:	dcc01215 	stw	r19,72(sp)
 80041b8:	dc801115 	stw	r18,68(sp)
 80041bc:	2023883a 	mov	r17,r4
 80041c0:	28001c16 	blt	r5,zero,8004234 <__smakebuf_r+0xa4>
 80041c4:	d80d883a 	mov	r6,sp
 80041c8:	80043ac0 	call	80043ac <_fstat_r>
 80041cc:	10001816 	blt	r2,zero,8004230 <__smakebuf_r+0xa0>
 80041d0:	d8800117 	ldw	r2,4(sp)
 80041d4:	00e00014 	movui	r3,32768
 80041d8:	10bc000c 	andi	r2,r2,61440
 80041dc:	14c80020 	cmpeqi	r19,r2,8192
 80041e0:	10c03726 	beq	r2,r3,80042c0 <__smakebuf_r+0x130>
 80041e4:	80c0030b 	ldhu	r3,12(r16)
 80041e8:	18c20014 	ori	r3,r3,2048
 80041ec:	80c0030d 	sth	r3,12(r16)
 80041f0:	00c80004 	movi	r3,8192
 80041f4:	10c0521e 	bne	r2,r3,8004340 <__smakebuf_r+0x1b0>
 80041f8:	8140038f 	ldh	r5,14(r16)
 80041fc:	8809883a 	mov	r4,r17
 8004200:	80044080 	call	8004408 <_isatty_r>
 8004204:	10004c26 	beq	r2,zero,8004338 <__smakebuf_r+0x1a8>
 8004208:	8080030b 	ldhu	r2,12(r16)
 800420c:	80c010c4 	addi	r3,r16,67
 8004210:	80c00015 	stw	r3,0(r16)
 8004214:	10800054 	ori	r2,r2,1
 8004218:	8080030d 	sth	r2,12(r16)
 800421c:	00800044 	movi	r2,1
 8004220:	80c00415 	stw	r3,16(r16)
 8004224:	80800515 	stw	r2,20(r16)
 8004228:	04810004 	movi	r18,1024
 800422c:	00000706 	br	800424c <__smakebuf_r+0xbc>
 8004230:	8080030b 	ldhu	r2,12(r16)
 8004234:	10c0200c 	andi	r3,r2,128
 8004238:	18001f1e 	bne	r3,zero,80042b8 <__smakebuf_r+0x128>
 800423c:	04810004 	movi	r18,1024
 8004240:	10820014 	ori	r2,r2,2048
 8004244:	8080030d 	sth	r2,12(r16)
 8004248:	0027883a 	mov	r19,zero
 800424c:	900b883a 	mov	r5,r18
 8004250:	8809883a 	mov	r4,r17
 8004254:	80023980 	call	8002398 <_malloc_r>
 8004258:	10002c26 	beq	r2,zero,800430c <__smakebuf_r+0x17c>
 800425c:	80c0030b 	ldhu	r3,12(r16)
 8004260:	01020034 	movhi	r4,2048
 8004264:	21066f04 	addi	r4,r4,6588
 8004268:	89000f15 	stw	r4,60(r17)
 800426c:	18c02014 	ori	r3,r3,128
 8004270:	80c0030d 	sth	r3,12(r16)
 8004274:	80800015 	stw	r2,0(r16)
 8004278:	80800415 	stw	r2,16(r16)
 800427c:	84800515 	stw	r18,20(r16)
 8004280:	98001a1e 	bne	r19,zero,80042ec <__smakebuf_r+0x15c>
 8004284:	dfc01317 	ldw	ra,76(sp)
 8004288:	dcc01217 	ldw	r19,72(sp)
 800428c:	dc801117 	ldw	r18,68(sp)
 8004290:	dc401017 	ldw	r17,64(sp)
 8004294:	dc000f17 	ldw	r16,60(sp)
 8004298:	dec01404 	addi	sp,sp,80
 800429c:	f800283a 	ret
 80042a0:	288010c4 	addi	r2,r5,67
 80042a4:	28800015 	stw	r2,0(r5)
 80042a8:	28800415 	stw	r2,16(r5)
 80042ac:	00800044 	movi	r2,1
 80042b0:	28800515 	stw	r2,20(r5)
 80042b4:	f800283a 	ret
 80042b8:	04801004 	movi	r18,64
 80042bc:	003fe006 	br	8004240 <__smakebuf_r+0xb0>
 80042c0:	81000a17 	ldw	r4,40(r16)
 80042c4:	00c20034 	movhi	r3,2048
 80042c8:	18cdb904 	addi	r3,r3,14052
 80042cc:	20ffc51e 	bne	r4,r3,80041e4 <__smakebuf_r+0x54>
 80042d0:	8080030b 	ldhu	r2,12(r16)
 80042d4:	04810004 	movi	r18,1024
 80042d8:	84801315 	stw	r18,76(r16)
 80042dc:	1484b03a 	or	r2,r2,r18
 80042e0:	8080030d 	sth	r2,12(r16)
 80042e4:	0027883a 	mov	r19,zero
 80042e8:	003fd806 	br	800424c <__smakebuf_r+0xbc>
 80042ec:	8140038f 	ldh	r5,14(r16)
 80042f0:	8809883a 	mov	r4,r17
 80042f4:	80044080 	call	8004408 <_isatty_r>
 80042f8:	103fe226 	beq	r2,zero,8004284 <__smakebuf_r+0xf4>
 80042fc:	8080030b 	ldhu	r2,12(r16)
 8004300:	10800054 	ori	r2,r2,1
 8004304:	8080030d 	sth	r2,12(r16)
 8004308:	003fde06 	br	8004284 <__smakebuf_r+0xf4>
 800430c:	8080030b 	ldhu	r2,12(r16)
 8004310:	10c0800c 	andi	r3,r2,512
 8004314:	183fdb1e 	bne	r3,zero,8004284 <__smakebuf_r+0xf4>
 8004318:	10800094 	ori	r2,r2,2
 800431c:	80c010c4 	addi	r3,r16,67
 8004320:	8080030d 	sth	r2,12(r16)
 8004324:	00800044 	movi	r2,1
 8004328:	80c00015 	stw	r3,0(r16)
 800432c:	80c00415 	stw	r3,16(r16)
 8004330:	80800515 	stw	r2,20(r16)
 8004334:	003fd306 	br	8004284 <__smakebuf_r+0xf4>
 8004338:	04810004 	movi	r18,1024
 800433c:	003fc306 	br	800424c <__smakebuf_r+0xbc>
 8004340:	0027883a 	mov	r19,zero
 8004344:	04810004 	movi	r18,1024
 8004348:	003fc006 	br	800424c <__smakebuf_r+0xbc>

0800434c <_read_r>:
 800434c:	defffd04 	addi	sp,sp,-12
 8004350:	2805883a 	mov	r2,r5
 8004354:	dc000015 	stw	r16,0(sp)
 8004358:	04020074 	movhi	r16,2049
 800435c:	dc400115 	stw	r17,4(sp)
 8004360:	300b883a 	mov	r5,r6
 8004364:	84289704 	addi	r16,r16,-23972
 8004368:	2023883a 	mov	r17,r4
 800436c:	380d883a 	mov	r6,r7
 8004370:	1009883a 	mov	r4,r2
 8004374:	dfc00215 	stw	ra,8(sp)
 8004378:	80000015 	stw	zero,0(r16)
 800437c:	8004abc0 	call	8004abc <read>
 8004380:	00ffffc4 	movi	r3,-1
 8004384:	10c00526 	beq	r2,r3,800439c <_read_r+0x50>
 8004388:	dfc00217 	ldw	ra,8(sp)
 800438c:	dc400117 	ldw	r17,4(sp)
 8004390:	dc000017 	ldw	r16,0(sp)
 8004394:	dec00304 	addi	sp,sp,12
 8004398:	f800283a 	ret
 800439c:	80c00017 	ldw	r3,0(r16)
 80043a0:	183ff926 	beq	r3,zero,8004388 <_read_r+0x3c>
 80043a4:	88c00015 	stw	r3,0(r17)
 80043a8:	003ff706 	br	8004388 <_read_r+0x3c>

080043ac <_fstat_r>:
 80043ac:	defffd04 	addi	sp,sp,-12
 80043b0:	2805883a 	mov	r2,r5
 80043b4:	dc000015 	stw	r16,0(sp)
 80043b8:	04020074 	movhi	r16,2049
 80043bc:	dc400115 	stw	r17,4(sp)
 80043c0:	84289704 	addi	r16,r16,-23972
 80043c4:	2023883a 	mov	r17,r4
 80043c8:	300b883a 	mov	r5,r6
 80043cc:	1009883a 	mov	r4,r2
 80043d0:	dfc00215 	stw	ra,8(sp)
 80043d4:	80000015 	stw	zero,0(r16)
 80043d8:	80046300 	call	8004630 <fstat>
 80043dc:	00ffffc4 	movi	r3,-1
 80043e0:	10c00526 	beq	r2,r3,80043f8 <_fstat_r+0x4c>
 80043e4:	dfc00217 	ldw	ra,8(sp)
 80043e8:	dc400117 	ldw	r17,4(sp)
 80043ec:	dc000017 	ldw	r16,0(sp)
 80043f0:	dec00304 	addi	sp,sp,12
 80043f4:	f800283a 	ret
 80043f8:	80c00017 	ldw	r3,0(r16)
 80043fc:	183ff926 	beq	r3,zero,80043e4 <_fstat_r+0x38>
 8004400:	88c00015 	stw	r3,0(r17)
 8004404:	003ff706 	br	80043e4 <_fstat_r+0x38>

08004408 <_isatty_r>:
 8004408:	defffd04 	addi	sp,sp,-12
 800440c:	dc000015 	stw	r16,0(sp)
 8004410:	04020074 	movhi	r16,2049
 8004414:	dc400115 	stw	r17,4(sp)
 8004418:	84289704 	addi	r16,r16,-23972
 800441c:	2023883a 	mov	r17,r4
 8004420:	2809883a 	mov	r4,r5
 8004424:	dfc00215 	stw	ra,8(sp)
 8004428:	80000015 	stw	zero,0(r16)
 800442c:	800471c0 	call	800471c <isatty>
 8004430:	00ffffc4 	movi	r3,-1
 8004434:	10c00526 	beq	r2,r3,800444c <_isatty_r+0x44>
 8004438:	dfc00217 	ldw	ra,8(sp)
 800443c:	dc400117 	ldw	r17,4(sp)
 8004440:	dc000017 	ldw	r16,0(sp)
 8004444:	dec00304 	addi	sp,sp,12
 8004448:	f800283a 	ret
 800444c:	80c00017 	ldw	r3,0(r16)
 8004450:	183ff926 	beq	r3,zero,8004438 <_isatty_r+0x30>
 8004454:	88c00015 	stw	r3,0(r17)
 8004458:	003ff706 	br	8004438 <_isatty_r+0x30>

0800445c <__muldi3>:
 800445c:	223fffcc 	andi	r8,r4,65535
 8004460:	2006d43a 	srli	r3,r4,16
 8004464:	32bfffcc 	andi	r10,r6,65535
 8004468:	3012d43a 	srli	r9,r6,16
 800446c:	4297383a 	mul	r11,r8,r10
 8004470:	1a95383a 	mul	r10,r3,r10
 8004474:	4251383a 	mul	r8,r8,r9
 8004478:	5804d43a 	srli	r2,r11,16
 800447c:	4291883a 	add	r8,r8,r10
 8004480:	1205883a 	add	r2,r2,r8
 8004484:	1a51383a 	mul	r8,r3,r9
 8004488:	1280022e 	bgeu	r2,r10,8004494 <__muldi3+0x38>
 800448c:	00c00074 	movhi	r3,1
 8004490:	40d1883a 	add	r8,r8,r3
 8004494:	1006d43a 	srli	r3,r2,16
 8004498:	21cf383a 	mul	r7,r4,r7
 800449c:	314b383a 	mul	r5,r6,r5
 80044a0:	1004943a 	slli	r2,r2,16
 80044a4:	1a11883a 	add	r8,r3,r8
 80044a8:	5affffcc 	andi	r11,r11,65535
 80044ac:	3947883a 	add	r3,r7,r5
 80044b0:	12c5883a 	add	r2,r2,r11
 80044b4:	1a07883a 	add	r3,r3,r8
 80044b8:	f800283a 	ret

080044bc <alt_get_errno>:
#undef errno

extern int errno;

static ALT_INLINE int* alt_get_errno(void)
{
 80044bc:	defffe04 	addi	sp,sp,-8
 80044c0:	dfc00115 	stw	ra,4(sp)
 80044c4:	df000015 	stw	fp,0(sp)
 80044c8:	d839883a 	mov	fp,sp
  return ((alt_errno) ? alt_errno() : &errno);
 80044cc:	d0a00917 	ldw	r2,-32732(gp)
 80044d0:	10000326 	beq	r2,zero,80044e0 <alt_get_errno+0x24>
 80044d4:	d0a00917 	ldw	r2,-32732(gp)
 80044d8:	103ee83a 	callr	r2
 80044dc:	00000106 	br	80044e4 <alt_get_errno+0x28>
 80044e0:	d0a6ac04 	addi	r2,gp,-25936
}
 80044e4:	e037883a 	mov	sp,fp
 80044e8:	dfc00117 	ldw	ra,4(sp)
 80044ec:	df000017 	ldw	fp,0(sp)
 80044f0:	dec00204 	addi	sp,sp,8
 80044f4:	f800283a 	ret

080044f8 <close>:
 *
 * ALT_CLOSE is mapped onto the close() system call in alt_syscall.h
 */
 
int ALT_CLOSE (int fildes)
{
 80044f8:	defffb04 	addi	sp,sp,-20
 80044fc:	dfc00415 	stw	ra,16(sp)
 8004500:	df000315 	stw	fp,12(sp)
 8004504:	df000304 	addi	fp,sp,12
 8004508:	e13fff15 	stw	r4,-4(fp)
   * A common error case is that when the file descriptor was created, the call
   * to open() failed resulting in a negative file descriptor. This is trapped
   * below so that we don't try and process an invalid file descriptor.
   */

  fd = (fildes < 0) ? NULL : &alt_fd_list[fildes];
 800450c:	e0bfff17 	ldw	r2,-4(fp)
 8004510:	10000616 	blt	r2,zero,800452c <close+0x34>
 8004514:	e0bfff17 	ldw	r2,-4(fp)
 8004518:	10c00324 	muli	r3,r2,12
 800451c:	00820034 	movhi	r2,2048
 8004520:	109d7304 	addi	r2,r2,30156
 8004524:	1885883a 	add	r2,r3,r2
 8004528:	00000106 	br	8004530 <close+0x38>
 800452c:	0005883a 	mov	r2,zero
 8004530:	e0bffd15 	stw	r2,-12(fp)

  if (fd)
 8004534:	e0bffd17 	ldw	r2,-12(fp)
 8004538:	10001926 	beq	r2,zero,80045a0 <close+0xa8>
    /*
     * If the associated file system/device has a close function, call it so 
     * that any necessary cleanup code can run.
     */

    rval = (fd->dev->close) ? fd->dev->close(fd) : 0;
 800453c:	e0bffd17 	ldw	r2,-12(fp)
 8004540:	10800017 	ldw	r2,0(r2)
 8004544:	10800417 	ldw	r2,16(r2)
 8004548:	10000626 	beq	r2,zero,8004564 <close+0x6c>
 800454c:	e0bffd17 	ldw	r2,-12(fp)
 8004550:	10800017 	ldw	r2,0(r2)
 8004554:	10800417 	ldw	r2,16(r2)
 8004558:	e13ffd17 	ldw	r4,-12(fp)
 800455c:	103ee83a 	callr	r2
 8004560:	00000106 	br	8004568 <close+0x70>
 8004564:	0005883a 	mov	r2,zero
 8004568:	e0bffe15 	stw	r2,-8(fp)

    /* Free the file descriptor structure and return. */

    alt_release_fd (fildes);
 800456c:	e13fff17 	ldw	r4,-4(fp)
 8004570:	8004bb80 	call	8004bb8 <alt_release_fd>
    if (rval < 0)
 8004574:	e0bffe17 	ldw	r2,-8(fp)
 8004578:	1000070e 	bge	r2,zero,8004598 <close+0xa0>
    {
      ALT_ERRNO = -rval;
 800457c:	80044bc0 	call	80044bc <alt_get_errno>
 8004580:	1007883a 	mov	r3,r2
 8004584:	e0bffe17 	ldw	r2,-8(fp)
 8004588:	0085c83a 	sub	r2,zero,r2
 800458c:	18800015 	stw	r2,0(r3)
      return -1;
 8004590:	00bfffc4 	movi	r2,-1
 8004594:	00000706 	br	80045b4 <close+0xbc>
    }
    return 0;
 8004598:	0005883a 	mov	r2,zero
 800459c:	00000506 	br	80045b4 <close+0xbc>
  }
  else
  {
    ALT_ERRNO = EBADFD;
 80045a0:	80044bc0 	call	80044bc <alt_get_errno>
 80045a4:	1007883a 	mov	r3,r2
 80045a8:	00801444 	movi	r2,81
 80045ac:	18800015 	stw	r2,0(r3)
    return -1;
 80045b0:	00bfffc4 	movi	r2,-1
  }
}
 80045b4:	e037883a 	mov	sp,fp
 80045b8:	dfc00117 	ldw	ra,4(sp)
 80045bc:	df000017 	ldw	fp,0(sp)
 80045c0:	dec00204 	addi	sp,sp,8
 80045c4:	f800283a 	ret

080045c8 <alt_dev_null_write>:
 * by the alt_dev_null device. It simple discards all data passed to it, and
 * indicates that the data has been successfully transmitted.
 */

static int alt_dev_null_write (alt_fd* fd, const char* ptr, int len)
{
 80045c8:	defffc04 	addi	sp,sp,-16
 80045cc:	df000315 	stw	fp,12(sp)
 80045d0:	df000304 	addi	fp,sp,12
 80045d4:	e13ffd15 	stw	r4,-12(fp)
 80045d8:	e17ffe15 	stw	r5,-8(fp)
 80045dc:	e1bfff15 	stw	r6,-4(fp)
  return len;
 80045e0:	e0bfff17 	ldw	r2,-4(fp)
}
 80045e4:	e037883a 	mov	sp,fp
 80045e8:	df000017 	ldw	fp,0(sp)
 80045ec:	dec00104 	addi	sp,sp,4
 80045f0:	f800283a 	ret

080045f4 <alt_get_errno>:
#undef errno

extern int errno;

static ALT_INLINE int* alt_get_errno(void)
{
 80045f4:	defffe04 	addi	sp,sp,-8
 80045f8:	dfc00115 	stw	ra,4(sp)
 80045fc:	df000015 	stw	fp,0(sp)
 8004600:	d839883a 	mov	fp,sp
  return ((alt_errno) ? alt_errno() : &errno);
 8004604:	d0a00917 	ldw	r2,-32732(gp)
 8004608:	10000326 	beq	r2,zero,8004618 <alt_get_errno+0x24>
 800460c:	d0a00917 	ldw	r2,-32732(gp)
 8004610:	103ee83a 	callr	r2
 8004614:	00000106 	br	800461c <alt_get_errno+0x28>
 8004618:	d0a6ac04 	addi	r2,gp,-25936
}
 800461c:	e037883a 	mov	sp,fp
 8004620:	dfc00117 	ldw	ra,4(sp)
 8004624:	df000017 	ldw	fp,0(sp)
 8004628:	dec00204 	addi	sp,sp,8
 800462c:	f800283a 	ret

08004630 <fstat>:
}

#else /* !ALT_USE_DIRECT_DRIVERS */

int ALT_FSTAT (int file, struct stat *st)
{
 8004630:	defffb04 	addi	sp,sp,-20
 8004634:	dfc00415 	stw	ra,16(sp)
 8004638:	df000315 	stw	fp,12(sp)
 800463c:	df000304 	addi	fp,sp,12
 8004640:	e13ffe15 	stw	r4,-8(fp)
 8004644:	e17fff15 	stw	r5,-4(fp)
   * A common error case is that when the file descriptor was created, the call
   * to open() failed resulting in a negative file descriptor. This is trapped
   * below so that we don't try and process an invalid file descriptor.
   */

  fd = (file < 0) ? NULL : &alt_fd_list[file];
 8004648:	e0bffe17 	ldw	r2,-8(fp)
 800464c:	10000616 	blt	r2,zero,8004668 <fstat+0x38>
 8004650:	e0bffe17 	ldw	r2,-8(fp)
 8004654:	10c00324 	muli	r3,r2,12
 8004658:	00820034 	movhi	r2,2048
 800465c:	109d7304 	addi	r2,r2,30156
 8004660:	1885883a 	add	r2,r3,r2
 8004664:	00000106 	br	800466c <fstat+0x3c>
 8004668:	0005883a 	mov	r2,zero
 800466c:	e0bffd15 	stw	r2,-12(fp)
  
  if (fd)
 8004670:	e0bffd17 	ldw	r2,-12(fp)
 8004674:	10001026 	beq	r2,zero,80046b8 <fstat+0x88>
  {
    /* Call the drivers fstat() function to fill out the "st" structure. */

    if (fd->dev->fstat)
 8004678:	e0bffd17 	ldw	r2,-12(fp)
 800467c:	10800017 	ldw	r2,0(r2)
 8004680:	10800817 	ldw	r2,32(r2)
 8004684:	10000726 	beq	r2,zero,80046a4 <fstat+0x74>
    {
      return fd->dev->fstat(fd, st);
 8004688:	e0bffd17 	ldw	r2,-12(fp)
 800468c:	10800017 	ldw	r2,0(r2)
 8004690:	10800817 	ldw	r2,32(r2)
 8004694:	e17fff17 	ldw	r5,-4(fp)
 8004698:	e13ffd17 	ldw	r4,-12(fp)
 800469c:	103ee83a 	callr	r2
 80046a0:	00000a06 	br	80046cc <fstat+0x9c>
     * device.
     */
 
    else
    {
      st->st_mode = _IFCHR;
 80046a4:	e0bfff17 	ldw	r2,-4(fp)
 80046a8:	00c80004 	movi	r3,8192
 80046ac:	10c00115 	stw	r3,4(r2)
      return 0;
 80046b0:	0005883a 	mov	r2,zero
 80046b4:	00000506 	br	80046cc <fstat+0x9c>
    }
  }
  else
  {
    ALT_ERRNO = EBADFD;
 80046b8:	80045f40 	call	80045f4 <alt_get_errno>
 80046bc:	1007883a 	mov	r3,r2
 80046c0:	00801444 	movi	r2,81
 80046c4:	18800015 	stw	r2,0(r3)
    return -1;
 80046c8:	00bfffc4 	movi	r2,-1
  }
}
 80046cc:	e037883a 	mov	sp,fp
 80046d0:	dfc00117 	ldw	ra,4(sp)
 80046d4:	df000017 	ldw	fp,0(sp)
 80046d8:	dec00204 	addi	sp,sp,8
 80046dc:	f800283a 	ret

080046e0 <alt_get_errno>:
#undef errno

extern int errno;

static ALT_INLINE int* alt_get_errno(void)
{
 80046e0:	defffe04 	addi	sp,sp,-8
 80046e4:	dfc00115 	stw	ra,4(sp)
 80046e8:	df000015 	stw	fp,0(sp)
 80046ec:	d839883a 	mov	fp,sp
  return ((alt_errno) ? alt_errno() : &errno);
 80046f0:	d0a00917 	ldw	r2,-32732(gp)
 80046f4:	10000326 	beq	r2,zero,8004704 <alt_get_errno+0x24>
 80046f8:	d0a00917 	ldw	r2,-32732(gp)
 80046fc:	103ee83a 	callr	r2
 8004700:	00000106 	br	8004708 <alt_get_errno+0x28>
 8004704:	d0a6ac04 	addi	r2,gp,-25936
}
 8004708:	e037883a 	mov	sp,fp
 800470c:	dfc00117 	ldw	ra,4(sp)
 8004710:	df000017 	ldw	fp,0(sp)
 8004714:	dec00204 	addi	sp,sp,8
 8004718:	f800283a 	ret

0800471c <isatty>:
 *
 * ALT_ISATTY is mapped onto the isatty() system call in alt_syscall.h
 */
 
int ALT_ISATTY (int file)
{
 800471c:	deffed04 	addi	sp,sp,-76
 8004720:	dfc01215 	stw	ra,72(sp)
 8004724:	df001115 	stw	fp,68(sp)
 8004728:	df001104 	addi	fp,sp,68
 800472c:	e13fff15 	stw	r4,-4(fp)
   * A common error case is that when the file descriptor was created, the call
   * to open() failed resulting in a negative file descriptor. This is trapped
   * below so that we don't try and process an invalid file descriptor.
   */

  fd = (file < 0) ? NULL : &alt_fd_list[file];
 8004730:	e0bfff17 	ldw	r2,-4(fp)
 8004734:	10000616 	blt	r2,zero,8004750 <isatty+0x34>
 8004738:	e0bfff17 	ldw	r2,-4(fp)
 800473c:	10c00324 	muli	r3,r2,12
 8004740:	00820034 	movhi	r2,2048
 8004744:	109d7304 	addi	r2,r2,30156
 8004748:	1885883a 	add	r2,r3,r2
 800474c:	00000106 	br	8004754 <isatty+0x38>
 8004750:	0005883a 	mov	r2,zero
 8004754:	e0bfef15 	stw	r2,-68(fp)
  
  if (fd)
 8004758:	e0bfef17 	ldw	r2,-68(fp)
 800475c:	10000e26 	beq	r2,zero,8004798 <isatty+0x7c>
    /*
     * If a device driver does not provide an fstat() function, then it is 
     * treated as a terminal device by default.
     */

    if (!fd->dev->fstat)
 8004760:	e0bfef17 	ldw	r2,-68(fp)
 8004764:	10800017 	ldw	r2,0(r2)
 8004768:	10800817 	ldw	r2,32(r2)
 800476c:	1000021e 	bne	r2,zero,8004778 <isatty+0x5c>
    {
      return 1;
 8004770:	00800044 	movi	r2,1
 8004774:	00000d06 	br	80047ac <isatty+0x90>
     * this is called so that the device can identify itself.
     */ 

    else
    {
      fstat (file, &stat);
 8004778:	e0bff004 	addi	r2,fp,-64
 800477c:	100b883a 	mov	r5,r2
 8004780:	e13fff17 	ldw	r4,-4(fp)
 8004784:	80046300 	call	8004630 <fstat>
      return (stat.st_mode == _IFCHR) ? 1 : 0;
 8004788:	e0bff117 	ldw	r2,-60(fp)
 800478c:	10880020 	cmpeqi	r2,r2,8192
 8004790:	10803fcc 	andi	r2,r2,255
 8004794:	00000506 	br	80047ac <isatty+0x90>
    }
  }
  else
  {
    ALT_ERRNO = EBADFD;
 8004798:	80046e00 	call	80046e0 <alt_get_errno>
 800479c:	1007883a 	mov	r3,r2
 80047a0:	00801444 	movi	r2,81
 80047a4:	18800015 	stw	r2,0(r3)
    return 0;
 80047a8:	0005883a 	mov	r2,zero
  }
}
 80047ac:	e037883a 	mov	sp,fp
 80047b0:	dfc00117 	ldw	ra,4(sp)
 80047b4:	df000017 	ldw	fp,0(sp)
 80047b8:	dec00204 	addi	sp,sp,8
 80047bc:	f800283a 	ret

080047c0 <alt_load_section>:
 80047c0:	defffc04 	addi	sp,sp,-16
 80047c4:	df000315 	stw	fp,12(sp)
 80047c8:	df000304 	addi	fp,sp,12
 80047cc:	e13ffd15 	stw	r4,-12(fp)
 80047d0:	e17ffe15 	stw	r5,-8(fp)
 80047d4:	e1bfff15 	stw	r6,-4(fp)
 80047d8:	e0fffe17 	ldw	r3,-8(fp)
 80047dc:	e0bffd17 	ldw	r2,-12(fp)
 80047e0:	18800c26 	beq	r3,r2,8004814 <alt_load_section+0x54>
 80047e4:	00000806 	br	8004808 <alt_load_section+0x48>
 80047e8:	e0bffe17 	ldw	r2,-8(fp)
 80047ec:	10c00104 	addi	r3,r2,4
 80047f0:	e0fffe15 	stw	r3,-8(fp)
 80047f4:	e0fffd17 	ldw	r3,-12(fp)
 80047f8:	19000104 	addi	r4,r3,4
 80047fc:	e13ffd15 	stw	r4,-12(fp)
 8004800:	18c00017 	ldw	r3,0(r3)
 8004804:	10c00015 	stw	r3,0(r2)
 8004808:	e0fffe17 	ldw	r3,-8(fp)
 800480c:	e0bfff17 	ldw	r2,-4(fp)
 8004810:	18bff51e 	bne	r3,r2,80047e8 <alt_load_section+0x28>
 8004814:	0001883a 	nop
 8004818:	e037883a 	mov	sp,fp
 800481c:	df000017 	ldw	fp,0(sp)
 8004820:	dec00104 	addi	sp,sp,4
 8004824:	f800283a 	ret

08004828 <alt_load>:
 8004828:	defffe04 	addi	sp,sp,-8
 800482c:	dfc00115 	stw	ra,4(sp)
 8004830:	df000015 	stw	fp,0(sp)
 8004834:	d839883a 	mov	fp,sp
 8004838:	01820074 	movhi	r6,2049
 800483c:	31a1f904 	addi	r6,r6,-30748
 8004840:	01420034 	movhi	r5,2048
 8004844:	295b5e04 	addi	r5,r5,28024
 8004848:	01020074 	movhi	r4,2049
 800484c:	2121f904 	addi	r4,r4,-30748
 8004850:	80047c00 	call	80047c0 <alt_load_section>
 8004854:	01820034 	movhi	r6,2048
 8004858:	31809104 	addi	r6,r6,580
 800485c:	01420034 	movhi	r5,2048
 8004860:	29400804 	addi	r5,r5,32
 8004864:	01020034 	movhi	r4,2048
 8004868:	21000804 	addi	r4,r4,32
 800486c:	80047c00 	call	80047c0 <alt_load_section>
 8004870:	01820034 	movhi	r6,2048
 8004874:	319b5e04 	addi	r6,r6,28024
 8004878:	01420034 	movhi	r5,2048
 800487c:	295b3904 	addi	r5,r5,27876
 8004880:	01020034 	movhi	r4,2048
 8004884:	211b3904 	addi	r4,r4,27876
 8004888:	80047c00 	call	80047c0 <alt_load_section>
 800488c:	8005bd00 	call	8005bd0 <alt_dcache_flush_all>
 8004890:	8005db80 	call	8005db8 <alt_icache_flush_all>
 8004894:	0001883a 	nop
 8004898:	e037883a 	mov	sp,fp
 800489c:	dfc00117 	ldw	ra,4(sp)
 80048a0:	df000017 	ldw	fp,0(sp)
 80048a4:	dec00204 	addi	sp,sp,8
 80048a8:	f800283a 	ret

080048ac <alt_get_errno>:
#undef errno

extern int errno;

static ALT_INLINE int* alt_get_errno(void)
{
 80048ac:	defffe04 	addi	sp,sp,-8
 80048b0:	dfc00115 	stw	ra,4(sp)
 80048b4:	df000015 	stw	fp,0(sp)
 80048b8:	d839883a 	mov	fp,sp
  return ((alt_errno) ? alt_errno() : &errno);
 80048bc:	d0a00917 	ldw	r2,-32732(gp)
 80048c0:	10000326 	beq	r2,zero,80048d0 <alt_get_errno+0x24>
 80048c4:	d0a00917 	ldw	r2,-32732(gp)
 80048c8:	103ee83a 	callr	r2
 80048cc:	00000106 	br	80048d4 <alt_get_errno+0x28>
 80048d0:	d0a6ac04 	addi	r2,gp,-25936
}
 80048d4:	e037883a 	mov	sp,fp
 80048d8:	dfc00117 	ldw	ra,4(sp)
 80048dc:	df000017 	ldw	fp,0(sp)
 80048e0:	dec00204 	addi	sp,sp,8
 80048e4:	f800283a 	ret

080048e8 <lseek>:
 * ALT_LSEEK is mapped onto the lseek() system call in alt_syscall.h
 *
 */

off_t ALT_LSEEK (int file, off_t ptr, int dir)
{
 80048e8:	defff904 	addi	sp,sp,-28
 80048ec:	dfc00615 	stw	ra,24(sp)
 80048f0:	df000515 	stw	fp,20(sp)
 80048f4:	df000504 	addi	fp,sp,20
 80048f8:	e13ffd15 	stw	r4,-12(fp)
 80048fc:	e17ffe15 	stw	r5,-8(fp)
 8004900:	e1bfff15 	stw	r6,-4(fp)
  alt_fd* fd;
  off_t   rc = 0; 
 8004904:	e03ffb15 	stw	zero,-20(fp)
   * A common error case is that when the file descriptor was created, the call
   * to open() failed resulting in a negative file descriptor. This is trapped
   * below so that we don't try and process an invalid file descriptor.
   */

  fd = (file < 0) ? NULL : &alt_fd_list[file];
 8004908:	e0bffd17 	ldw	r2,-12(fp)
 800490c:	10000616 	blt	r2,zero,8004928 <lseek+0x40>
 8004910:	e0bffd17 	ldw	r2,-12(fp)
 8004914:	10c00324 	muli	r3,r2,12
 8004918:	00820034 	movhi	r2,2048
 800491c:	109d7304 	addi	r2,r2,30156
 8004920:	1885883a 	add	r2,r3,r2
 8004924:	00000106 	br	800492c <lseek+0x44>
 8004928:	0005883a 	mov	r2,zero
 800492c:	e0bffc15 	stw	r2,-16(fp)
  
  if (fd) 
 8004930:	e0bffc17 	ldw	r2,-16(fp)
 8004934:	10001026 	beq	r2,zero,8004978 <lseek+0x90>
    /*
     * If the device driver provides an implementation of the lseek() function,
     * then call that to process the request.
     */
 
    if (fd->dev->lseek)
 8004938:	e0bffc17 	ldw	r2,-16(fp)
 800493c:	10800017 	ldw	r2,0(r2)
 8004940:	10800717 	ldw	r2,28(r2)
 8004944:	10000926 	beq	r2,zero,800496c <lseek+0x84>
    {
      rc = fd->dev->lseek(fd, ptr, dir);
 8004948:	e0bffc17 	ldw	r2,-16(fp)
 800494c:	10800017 	ldw	r2,0(r2)
 8004950:	10800717 	ldw	r2,28(r2)
 8004954:	e1bfff17 	ldw	r6,-4(fp)
 8004958:	e17ffe17 	ldw	r5,-8(fp)
 800495c:	e13ffc17 	ldw	r4,-16(fp)
 8004960:	103ee83a 	callr	r2
 8004964:	e0bffb15 	stw	r2,-20(fp)
 8004968:	00000506 	br	8004980 <lseek+0x98>
     * Otherwise return an error.
     */

    else
    {
      rc = -ENOTSUP;
 800496c:	00bfde84 	movi	r2,-134
 8004970:	e0bffb15 	stw	r2,-20(fp)
 8004974:	00000206 	br	8004980 <lseek+0x98>
    }
  }
  else  
  {
    rc = -EBADFD;
 8004978:	00bfebc4 	movi	r2,-81
 800497c:	e0bffb15 	stw	r2,-20(fp)
  }

  if (rc < 0)
 8004980:	e0bffb17 	ldw	r2,-20(fp)
 8004984:	1000070e 	bge	r2,zero,80049a4 <lseek+0xbc>
  {
    ALT_ERRNO = -rc;
 8004988:	80048ac0 	call	80048ac <alt_get_errno>
 800498c:	1007883a 	mov	r3,r2
 8004990:	e0bffb17 	ldw	r2,-20(fp)
 8004994:	0085c83a 	sub	r2,zero,r2
 8004998:	18800015 	stw	r2,0(r3)
    rc = -1;
 800499c:	00bfffc4 	movi	r2,-1
 80049a0:	e0bffb15 	stw	r2,-20(fp)
  }

  return rc;
 80049a4:	e0bffb17 	ldw	r2,-20(fp)
}
 80049a8:	e037883a 	mov	sp,fp
 80049ac:	dfc00117 	ldw	ra,4(sp)
 80049b0:	df000017 	ldw	fp,0(sp)
 80049b4:	dec00204 	addi	sp,sp,8
 80049b8:	f800283a 	ret

080049bc <alt_main>:
 * devices/filesystems/components in the system; and call the entry point for
 * the users application, i.e. main().
 */

void alt_main (void)
{
 80049bc:	defffd04 	addi	sp,sp,-12
 80049c0:	dfc00215 	stw	ra,8(sp)
 80049c4:	df000115 	stw	fp,4(sp)
 80049c8:	df000104 	addi	fp,sp,4
#endif

  /* ALT LOG - please see HAL/sys/alt_log_printf.h for details */
  ALT_LOG_PRINT_BOOT("[alt_main.c] Entering alt_main, calling alt_irq_init.\r\n");
  /* Initialize the interrupt controller. */
  alt_irq_init (NULL);
 80049cc:	0009883a 	mov	r4,zero
 80049d0:	8004e640 	call	8004e64 <alt_irq_init>

  /* Initialize the operating system */
  ALT_LOG_PRINT_BOOT("[alt_main.c] Done alt_irq_init, calling alt_os_init.\r\n");
  ALT_OS_INIT();
 80049d4:	0001883a 	nop
  ALT_LOG_PRINT_BOOT("[alt_main.c] Done OS Init, calling alt_sem_create.\r\n");
  ALT_SEM_CREATE (&alt_fd_list_lock, 1);

  /* Initialize the device drivers/software components. */
  ALT_LOG_PRINT_BOOT("[alt_main.c] Calling alt_sys_init.\r\n");
  alt_sys_init();
 80049d8:	8004e9c0 	call	8004e9c <alt_sys_init>
   * devices be present (not equal to /dev/null) and if direct drivers
   * aren't being used.
   */

    ALT_LOG_PRINT_BOOT("[alt_main.c] Redirecting IO.\r\n");
    alt_io_redirect(ALT_STDOUT, ALT_STDIN, ALT_STDERR);
 80049dc:	01820034 	movhi	r6,2048
 80049e0:	319b5404 	addi	r6,r6,27984
 80049e4:	01420034 	movhi	r5,2048
 80049e8:	295b5404 	addi	r5,r5,27984
 80049ec:	01020034 	movhi	r4,2048
 80049f0:	211b5404 	addi	r4,r4,27984
 80049f4:	80061500 	call	8006150 <alt_io_redirect>
  /* 
   * Call the C++ constructors 
   */

  ALT_LOG_PRINT_BOOT("[alt_main.c] Calling C++ constructors.\r\n");
  _do_ctors ();
 80049f8:	8005cf80 	call	8005cf8 <_do_ctors>
   * redefined as _exit()). This is in the interest of reducing code footprint,
   * in that the atexit() overhead is removed when it's not needed.
   */

  ALT_LOG_PRINT_BOOT("[alt_main.c] Calling atexit.\r\n");
  atexit (_do_dtors);
 80049fc:	01020034 	movhi	r4,2048
 8004a00:	21175604 	addi	r4,r4,23896
 8004a04:	80069500 	call	8006950 <atexit>
  ALT_LOG_PRINT_BOOT("[alt_main.c] Calling main.\r\n");

#ifdef ALT_NO_EXIT
  main (alt_argc, alt_argv, alt_envp);
#else
  result = main (alt_argc, alt_argv, alt_envp);
 8004a08:	d0a6ad17 	ldw	r2,-25932(gp)
 8004a0c:	d0e6ae17 	ldw	r3,-25928(gp)
 8004a10:	d126af17 	ldw	r4,-25924(gp)
 8004a14:	200d883a 	mov	r6,r4
 8004a18:	180b883a 	mov	r5,r3
 8004a1c:	1009883a 	mov	r4,r2
 8004a20:	80014100 	call	8001410 <main>
 8004a24:	e0bfff15 	stw	r2,-4(fp)
  close(STDOUT_FILENO);
 8004a28:	01000044 	movi	r4,1
 8004a2c:	80044f80 	call	80044f8 <close>
  exit (result);
 8004a30:	e13fff17 	ldw	r4,-4(fp)
 8004a34:	80069640 	call	8006964 <exit>

08004a38 <__malloc_lock>:
 8004a38:	defffe04 	addi	sp,sp,-8
 8004a3c:	df000115 	stw	fp,4(sp)
 8004a40:	df000104 	addi	fp,sp,4
 8004a44:	e13fff15 	stw	r4,-4(fp)
 8004a48:	0001883a 	nop
 8004a4c:	e037883a 	mov	sp,fp
 8004a50:	df000017 	ldw	fp,0(sp)
 8004a54:	dec00104 	addi	sp,sp,4
 8004a58:	f800283a 	ret

08004a5c <__malloc_unlock>:
 8004a5c:	defffe04 	addi	sp,sp,-8
 8004a60:	df000115 	stw	fp,4(sp)
 8004a64:	df000104 	addi	fp,sp,4
 8004a68:	e13fff15 	stw	r4,-4(fp)
 8004a6c:	0001883a 	nop
 8004a70:	e037883a 	mov	sp,fp
 8004a74:	df000017 	ldw	fp,0(sp)
 8004a78:	dec00104 	addi	sp,sp,4
 8004a7c:	f800283a 	ret

08004a80 <alt_get_errno>:
#undef errno

extern int errno;

static ALT_INLINE int* alt_get_errno(void)
{
 8004a80:	defffe04 	addi	sp,sp,-8
 8004a84:	dfc00115 	stw	ra,4(sp)
 8004a88:	df000015 	stw	fp,0(sp)
 8004a8c:	d839883a 	mov	fp,sp
  return ((alt_errno) ? alt_errno() : &errno);
 8004a90:	d0a00917 	ldw	r2,-32732(gp)
 8004a94:	10000326 	beq	r2,zero,8004aa4 <alt_get_errno+0x24>
 8004a98:	d0a00917 	ldw	r2,-32732(gp)
 8004a9c:	103ee83a 	callr	r2
 8004aa0:	00000106 	br	8004aa8 <alt_get_errno+0x28>
 8004aa4:	d0a6ac04 	addi	r2,gp,-25936
}
 8004aa8:	e037883a 	mov	sp,fp
 8004aac:	dfc00117 	ldw	ra,4(sp)
 8004ab0:	df000017 	ldw	fp,0(sp)
 8004ab4:	dec00204 	addi	sp,sp,8
 8004ab8:	f800283a 	ret

08004abc <read>:
}

#else /* !ALT_USE_DIRECT_DRIVERS */

int ALT_READ (int file, void *ptr, size_t len)
{
 8004abc:	defff904 	addi	sp,sp,-28
 8004ac0:	dfc00615 	stw	ra,24(sp)
 8004ac4:	df000515 	stw	fp,20(sp)
 8004ac8:	df000504 	addi	fp,sp,20
 8004acc:	e13ffd15 	stw	r4,-12(fp)
 8004ad0:	e17ffe15 	stw	r5,-8(fp)
 8004ad4:	e1bfff15 	stw	r6,-4(fp)
   * A common error case is that when the file descriptor was created, the call
   * to open() failed resulting in a negative file descriptor. This is trapped
   * below so that we don't try and process an invalid file descriptor.
   */

  fd = (file < 0) ? NULL : &alt_fd_list[file];
 8004ad8:	e0bffd17 	ldw	r2,-12(fp)
 8004adc:	10000616 	blt	r2,zero,8004af8 <read+0x3c>
 8004ae0:	e0bffd17 	ldw	r2,-12(fp)
 8004ae4:	10c00324 	muli	r3,r2,12
 8004ae8:	00820034 	movhi	r2,2048
 8004aec:	109d7304 	addi	r2,r2,30156
 8004af0:	1885883a 	add	r2,r3,r2
 8004af4:	00000106 	br	8004afc <read+0x40>
 8004af8:	0005883a 	mov	r2,zero
 8004afc:	e0bffb15 	stw	r2,-20(fp)
  
  if (fd)
 8004b00:	e0bffb17 	ldw	r2,-20(fp)
 8004b04:	10002226 	beq	r2,zero,8004b90 <read+0xd4>
     * If the file has not been opened with read access, or if the driver does
     * not provide an implementation of read(), generate an error. Otherwise
     * call the drivers read() function to process the request.
     */

    if (((fd->fd_flags & O_ACCMODE) != O_WRONLY) && 
 8004b08:	e0bffb17 	ldw	r2,-20(fp)
 8004b0c:	10800217 	ldw	r2,8(r2)
 8004b10:	108000cc 	andi	r2,r2,3
 8004b14:	10800060 	cmpeqi	r2,r2,1
 8004b18:	1000181e 	bne	r2,zero,8004b7c <read+0xc0>
        (fd->dev->read))
 8004b1c:	e0bffb17 	ldw	r2,-20(fp)
 8004b20:	10800017 	ldw	r2,0(r2)
 8004b24:	10800517 	ldw	r2,20(r2)
     * If the file has not been opened with read access, or if the driver does
     * not provide an implementation of read(), generate an error. Otherwise
     * call the drivers read() function to process the request.
     */

    if (((fd->fd_flags & O_ACCMODE) != O_WRONLY) && 
 8004b28:	10001426 	beq	r2,zero,8004b7c <read+0xc0>
        (fd->dev->read))
      {
        if ((rval = fd->dev->read(fd, ptr, len)) < 0)
 8004b2c:	e0bffb17 	ldw	r2,-20(fp)
 8004b30:	10800017 	ldw	r2,0(r2)
 8004b34:	10800517 	ldw	r2,20(r2)
 8004b38:	e0ffff17 	ldw	r3,-4(fp)
 8004b3c:	180d883a 	mov	r6,r3
 8004b40:	e17ffe17 	ldw	r5,-8(fp)
 8004b44:	e13ffb17 	ldw	r4,-20(fp)
 8004b48:	103ee83a 	callr	r2
 8004b4c:	e0bffc15 	stw	r2,-16(fp)
 8004b50:	e0bffc17 	ldw	r2,-16(fp)
 8004b54:	1000070e 	bge	r2,zero,8004b74 <read+0xb8>
        {
          ALT_ERRNO = -rval;
 8004b58:	8004a800 	call	8004a80 <alt_get_errno>
 8004b5c:	1007883a 	mov	r3,r2
 8004b60:	e0bffc17 	ldw	r2,-16(fp)
 8004b64:	0085c83a 	sub	r2,zero,r2
 8004b68:	18800015 	stw	r2,0(r3)
          return -1;
 8004b6c:	00bfffc4 	movi	r2,-1
 8004b70:	00000c06 	br	8004ba4 <read+0xe8>
        }
        return rval;
 8004b74:	e0bffc17 	ldw	r2,-16(fp)
 8004b78:	00000a06 	br	8004ba4 <read+0xe8>
      }
      else
      {
        ALT_ERRNO = EACCES;
 8004b7c:	8004a800 	call	8004a80 <alt_get_errno>
 8004b80:	1007883a 	mov	r3,r2
 8004b84:	00800344 	movi	r2,13
 8004b88:	18800015 	stw	r2,0(r3)
 8004b8c:	00000406 	br	8004ba0 <read+0xe4>
      }
    }
  else
  {
    ALT_ERRNO = EBADFD;
 8004b90:	8004a800 	call	8004a80 <alt_get_errno>
 8004b94:	1007883a 	mov	r3,r2
 8004b98:	00801444 	movi	r2,81
 8004b9c:	18800015 	stw	r2,0(r3)
  }
  return -1;
 8004ba0:	00bfffc4 	movi	r2,-1
}
 8004ba4:	e037883a 	mov	sp,fp
 8004ba8:	dfc00117 	ldw	ra,4(sp)
 8004bac:	df000017 	ldw	fp,0(sp)
 8004bb0:	dec00204 	addi	sp,sp,8
 8004bb4:	f800283a 	ret

08004bb8 <alt_release_fd>:
 * File descriptors correcponding to standard in, standard out and standard 
 * error cannont be released backed to the pool. They are always reserved.
 */

void alt_release_fd (int fd)
{
 8004bb8:	defffe04 	addi	sp,sp,-8
 8004bbc:	df000115 	stw	fp,4(sp)
 8004bc0:	df000104 	addi	fp,sp,4
 8004bc4:	e13fff15 	stw	r4,-4(fp)
  if (fd > 2)
 8004bc8:	e0bfff17 	ldw	r2,-4(fp)
 8004bcc:	108000d0 	cmplti	r2,r2,3
 8004bd0:	10000d1e 	bne	r2,zero,8004c08 <alt_release_fd+0x50>
  {
    alt_fd_list[fd].fd_flags = 0;
 8004bd4:	00820034 	movhi	r2,2048
 8004bd8:	109d7304 	addi	r2,r2,30156
 8004bdc:	e0ffff17 	ldw	r3,-4(fp)
 8004be0:	18c00324 	muli	r3,r3,12
 8004be4:	10c5883a 	add	r2,r2,r3
 8004be8:	10800204 	addi	r2,r2,8
 8004bec:	10000015 	stw	zero,0(r2)
    alt_fd_list[fd].dev      = 0;
 8004bf0:	00820034 	movhi	r2,2048
 8004bf4:	109d7304 	addi	r2,r2,30156
 8004bf8:	e0ffff17 	ldw	r3,-4(fp)
 8004bfc:	18c00324 	muli	r3,r3,12
 8004c00:	10c5883a 	add	r2,r2,r3
 8004c04:	10000015 	stw	zero,0(r2)
  }
}
 8004c08:	0001883a 	nop
 8004c0c:	e037883a 	mov	sp,fp
 8004c10:	df000017 	ldw	fp,0(sp)
 8004c14:	dec00104 	addi	sp,sp,4
 8004c18:	f800283a 	ret

08004c1c <sbrk>:
#endif
 
caddr_t ALT_SBRK (int incr) __attribute__ ((no_instrument_function ));

caddr_t ALT_SBRK (int incr)
{ 
 8004c1c:	defff904 	addi	sp,sp,-28
 8004c20:	df000615 	stw	fp,24(sp)
 8004c24:	df000604 	addi	fp,sp,24
 8004c28:	e13fff15 	stw	r4,-4(fp)
static ALT_INLINE alt_irq_context ALT_ALWAYS_INLINE 
       alt_irq_disable_all (void)
{
  alt_irq_context context;

  NIOS2_READ_STATUS (context);
 8004c2c:	0005303a 	rdctl	r2,status
 8004c30:	e0bffe15 	stw	r2,-8(fp)

  NIOS2_WRITE_STATUS (context & ~NIOS2_STATUS_PIE_MSK);
 8004c34:	e0fffe17 	ldw	r3,-8(fp)
 8004c38:	00bfff84 	movi	r2,-2
 8004c3c:	1884703a 	and	r2,r3,r2
 8004c40:	1001703a 	wrctl	status,r2
  
  return context;
 8004c44:	e0bffe17 	ldw	r2,-8(fp)
  alt_irq_context context;
  char *prev_heap_end; 

  context = alt_irq_disable_all();
 8004c48:	e0bffb15 	stw	r2,-20(fp)

  /* Always return data aligned on a word boundary */
  heap_end = (char *)(((unsigned int)heap_end + 3) & ~3);
 8004c4c:	d0a00a17 	ldw	r2,-32728(gp)
 8004c50:	10c000c4 	addi	r3,r2,3
 8004c54:	00bfff04 	movi	r2,-4
 8004c58:	1884703a 	and	r2,r3,r2
 8004c5c:	d0a00a15 	stw	r2,-32728(gp)
  if (((heap_end + incr) - __alt_heap_start) > ALT_MAX_HEAP_BYTES) {
    alt_irq_enable_all(context);
    return (caddr_t)-1;
  }
#else
  if ((heap_end + incr) > __alt_heap_limit) {
 8004c60:	d0e00a17 	ldw	r3,-32728(gp)
 8004c64:	e0bfff17 	ldw	r2,-4(fp)
 8004c68:	1887883a 	add	r3,r3,r2
 8004c6c:	00840034 	movhi	r2,4096
 8004c70:	10800004 	addi	r2,r2,0
 8004c74:	10c0062e 	bgeu	r2,r3,8004c90 <sbrk+0x74>
 8004c78:	e0bffb17 	ldw	r2,-20(fp)
 8004c7c:	e0bffa15 	stw	r2,-24(fp)
  status &= ~NIOS2_STATUS_PIE_MSK;
  status |= (context & NIOS2_STATUS_PIE_MSK);
  
  NIOS2_WRITE_STATUS (status);
#else
  NIOS2_WRITE_STATUS (context);
 8004c80:	e0bffa17 	ldw	r2,-24(fp)
 8004c84:	1001703a 	wrctl	status,r2
    alt_irq_enable_all(context);
    return (caddr_t)-1;
 8004c88:	00bfffc4 	movi	r2,-1
 8004c8c:	00000b06 	br	8004cbc <sbrk+0xa0>
  }
#endif

  prev_heap_end = heap_end; 
 8004c90:	d0a00a17 	ldw	r2,-32728(gp)
 8004c94:	e0bffd15 	stw	r2,-12(fp)
  heap_end += incr; 
 8004c98:	d0e00a17 	ldw	r3,-32728(gp)
 8004c9c:	e0bfff17 	ldw	r2,-4(fp)
 8004ca0:	1885883a 	add	r2,r3,r2
 8004ca4:	d0a00a15 	stw	r2,-32728(gp)
 8004ca8:	e0bffb17 	ldw	r2,-20(fp)
 8004cac:	e0bffc15 	stw	r2,-16(fp)
 8004cb0:	e0bffc17 	ldw	r2,-16(fp)
 8004cb4:	1001703a 	wrctl	status,r2

#endif

  alt_irq_enable_all(context);

  return (caddr_t) prev_heap_end; 
 8004cb8:	e0bffd17 	ldw	r2,-12(fp)
} 
 8004cbc:	e037883a 	mov	sp,fp
 8004cc0:	df000017 	ldw	fp,0(sp)
 8004cc4:	dec00104 	addi	sp,sp,4
 8004cc8:	f800283a 	ret

08004ccc <usleep>:
 8004ccc:	defffd04 	addi	sp,sp,-12
 8004cd0:	dfc00215 	stw	ra,8(sp)
 8004cd4:	df000115 	stw	fp,4(sp)
 8004cd8:	df000104 	addi	fp,sp,4
 8004cdc:	e13fff15 	stw	r4,-4(fp)
 8004ce0:	e13fff17 	ldw	r4,-4(fp)
 8004ce4:	8005a780 	call	8005a78 <alt_busy_sleep>
 8004ce8:	e037883a 	mov	sp,fp
 8004cec:	dfc00117 	ldw	ra,4(sp)
 8004cf0:	df000017 	ldw	fp,0(sp)
 8004cf4:	dec00204 	addi	sp,sp,8
 8004cf8:	f800283a 	ret

08004cfc <alt_get_errno>:
#undef errno

extern int errno;

static ALT_INLINE int* alt_get_errno(void)
{
 8004cfc:	defffe04 	addi	sp,sp,-8
 8004d00:	dfc00115 	stw	ra,4(sp)
 8004d04:	df000015 	stw	fp,0(sp)
 8004d08:	d839883a 	mov	fp,sp
  return ((alt_errno) ? alt_errno() : &errno);
 8004d0c:	d0a00917 	ldw	r2,-32732(gp)
 8004d10:	10000326 	beq	r2,zero,8004d20 <alt_get_errno+0x24>
 8004d14:	d0a00917 	ldw	r2,-32732(gp)
 8004d18:	103ee83a 	callr	r2
 8004d1c:	00000106 	br	8004d24 <alt_get_errno+0x28>
 8004d20:	d0a6ac04 	addi	r2,gp,-25936
}
 8004d24:	e037883a 	mov	sp,fp
 8004d28:	dfc00117 	ldw	ra,4(sp)
 8004d2c:	df000017 	ldw	fp,0(sp)
 8004d30:	dec00204 	addi	sp,sp,8
 8004d34:	f800283a 	ret

08004d38 <write>:
}

#else /* !ALT_USE_DIRECT_DRIVERS */

int ALT_WRITE (int file, const void *ptr, size_t len)
{
 8004d38:	defff904 	addi	sp,sp,-28
 8004d3c:	dfc00615 	stw	ra,24(sp)
 8004d40:	df000515 	stw	fp,20(sp)
 8004d44:	df000504 	addi	fp,sp,20
 8004d48:	e13ffd15 	stw	r4,-12(fp)
 8004d4c:	e17ffe15 	stw	r5,-8(fp)
 8004d50:	e1bfff15 	stw	r6,-4(fp)
   * A common error case is that when the file descriptor was created, the call
   * to open() failed resulting in a negative file descriptor. This is trapped
   * below so that we don't try and process an invalid file descriptor.
   */

  fd = (file < 0) ? NULL : &alt_fd_list[file];
 8004d54:	e0bffd17 	ldw	r2,-12(fp)
 8004d58:	10000616 	blt	r2,zero,8004d74 <write+0x3c>
 8004d5c:	e0bffd17 	ldw	r2,-12(fp)
 8004d60:	10c00324 	muli	r3,r2,12
 8004d64:	00820034 	movhi	r2,2048
 8004d68:	109d7304 	addi	r2,r2,30156
 8004d6c:	1885883a 	add	r2,r3,r2
 8004d70:	00000106 	br	8004d78 <write+0x40>
 8004d74:	0005883a 	mov	r2,zero
 8004d78:	e0bffb15 	stw	r2,-20(fp)
  
  if (fd)
 8004d7c:	e0bffb17 	ldw	r2,-20(fp)
 8004d80:	10002126 	beq	r2,zero,8004e08 <write+0xd0>
     * If the file has not been opened with write access, or if the driver does
     * not provide an implementation of write(), generate an error. Otherwise
     * call the drivers write() function to process the request.
     */

    if (((fd->fd_flags & O_ACCMODE) != O_RDONLY) && fd->dev->write)
 8004d84:	e0bffb17 	ldw	r2,-20(fp)
 8004d88:	10800217 	ldw	r2,8(r2)
 8004d8c:	108000cc 	andi	r2,r2,3
 8004d90:	10001826 	beq	r2,zero,8004df4 <write+0xbc>
 8004d94:	e0bffb17 	ldw	r2,-20(fp)
 8004d98:	10800017 	ldw	r2,0(r2)
 8004d9c:	10800617 	ldw	r2,24(r2)
 8004da0:	10001426 	beq	r2,zero,8004df4 <write+0xbc>
    {
      
      /* ALT_LOG - see altera_hal/HAL/inc/sys/alt_log_printf.h */
      ALT_LOG_WRITE_FUNCTION(ptr,len);

      if ((rval = fd->dev->write(fd, ptr, len)) < 0)
 8004da4:	e0bffb17 	ldw	r2,-20(fp)
 8004da8:	10800017 	ldw	r2,0(r2)
 8004dac:	10800617 	ldw	r2,24(r2)
 8004db0:	e0ffff17 	ldw	r3,-4(fp)
 8004db4:	180d883a 	mov	r6,r3
 8004db8:	e17ffe17 	ldw	r5,-8(fp)
 8004dbc:	e13ffb17 	ldw	r4,-20(fp)
 8004dc0:	103ee83a 	callr	r2
 8004dc4:	e0bffc15 	stw	r2,-16(fp)
 8004dc8:	e0bffc17 	ldw	r2,-16(fp)
 8004dcc:	1000070e 	bge	r2,zero,8004dec <write+0xb4>
      {
        ALT_ERRNO = -rval;
 8004dd0:	8004cfc0 	call	8004cfc <alt_get_errno>
 8004dd4:	1007883a 	mov	r3,r2
 8004dd8:	e0bffc17 	ldw	r2,-16(fp)
 8004ddc:	0085c83a 	sub	r2,zero,r2
 8004de0:	18800015 	stw	r2,0(r3)
        return -1;
 8004de4:	00bfffc4 	movi	r2,-1
 8004de8:	00000c06 	br	8004e1c <write+0xe4>
      }
      return rval;
 8004dec:	e0bffc17 	ldw	r2,-16(fp)
 8004df0:	00000a06 	br	8004e1c <write+0xe4>
    }
    else
    {
      ALT_ERRNO = EACCES;
 8004df4:	8004cfc0 	call	8004cfc <alt_get_errno>
 8004df8:	1007883a 	mov	r3,r2
 8004dfc:	00800344 	movi	r2,13
 8004e00:	18800015 	stw	r2,0(r3)
 8004e04:	00000406 	br	8004e18 <write+0xe0>
    }
  }
  else  
  {
    ALT_ERRNO = EBADFD;
 8004e08:	8004cfc0 	call	8004cfc <alt_get_errno>
 8004e0c:	1007883a 	mov	r3,r2
 8004e10:	00801444 	movi	r2,81
 8004e14:	18800015 	stw	r2,0(r3)
  }
  return -1;
 8004e18:	00bfffc4 	movi	r2,-1
}
 8004e1c:	e037883a 	mov	sp,fp
 8004e20:	dfc00117 	ldw	ra,4(sp)
 8004e24:	df000017 	ldw	fp,0(sp)
 8004e28:	dec00204 	addi	sp,sp,8
 8004e2c:	f800283a 	ret

08004e30 <alt_dev_reg>:
 */

extern int alt_fs_reg  (alt_dev* dev); 

static ALT_INLINE int alt_dev_reg (alt_dev* dev)
{
 8004e30:	defffd04 	addi	sp,sp,-12
 8004e34:	dfc00215 	stw	ra,8(sp)
 8004e38:	df000115 	stw	fp,4(sp)
 8004e3c:	df000104 	addi	fp,sp,4
 8004e40:	e13fff15 	stw	r4,-4(fp)
  extern alt_llist alt_dev_list;

  return alt_dev_llist_insert ((alt_dev_llist*) dev, &alt_dev_list);
 8004e44:	d1600604 	addi	r5,gp,-32744
 8004e48:	e13fff17 	ldw	r4,-4(fp)
 8004e4c:	8005c540 	call	8005c54 <alt_dev_llist_insert>
}
 8004e50:	e037883a 	mov	sp,fp
 8004e54:	dfc00117 	ldw	ra,4(sp)
 8004e58:	df000017 	ldw	fp,0(sp)
 8004e5c:	dec00204 	addi	sp,sp,8
 8004e60:	f800283a 	ret

08004e64 <alt_irq_init>:
 * The "base" parameter is ignored and only
 * present for backwards-compatibility.
 */

void alt_irq_init ( const void* base )
{
 8004e64:	defffd04 	addi	sp,sp,-12
 8004e68:	dfc00215 	stw	ra,8(sp)
 8004e6c:	df000115 	stw	fp,4(sp)
 8004e70:	df000104 	addi	fp,sp,4
 8004e74:	e13fff15 	stw	r4,-4(fp)
    ALTERA_NIOS2_GEN2_IRQ_INIT ( NIOS2_GEN2_0, nios2_gen2_0);
 8004e78:	80065c40 	call	80065c4 <altera_nios2_gen2_irq_init>
 * alt_irq_cpu_enable_interrupts() enables the CPU to start taking interrupts.
 */
static ALT_INLINE void ALT_ALWAYS_INLINE 
       alt_irq_cpu_enable_interrupts (void)
{
    NIOS2_WRITE_STATUS(NIOS2_STATUS_PIE_MSK
 8004e7c:	00800044 	movi	r2,1
 8004e80:	1001703a 	wrctl	status,r2
    alt_irq_cpu_enable_interrupts();
}
 8004e84:	0001883a 	nop
 8004e88:	e037883a 	mov	sp,fp
 8004e8c:	dfc00117 	ldw	ra,4(sp)
 8004e90:	df000017 	ldw	fp,0(sp)
 8004e94:	dec00204 	addi	sp,sp,8
 8004e98:	f800283a 	ret

08004e9c <alt_sys_init>:
 * Initialize the non-interrupt controller devices.
 * Called after alt_irq_init().
 */

void alt_sys_init( void )
{
 8004e9c:	defffe04 	addi	sp,sp,-8
 8004ea0:	dfc00115 	stw	ra,4(sp)
 8004ea4:	df000015 	stw	fp,0(sp)
 8004ea8:	d839883a 	mov	fp,sp
    ALTERA_AVALON_JTAG_UART_INIT ( JTAG_UART_0, jtag_uart_0);
 8004eac:	000d883a 	mov	r6,zero
 8004eb0:	000b883a 	mov	r5,zero
 8004eb4:	01020034 	movhi	r4,2048
 8004eb8:	211ddd04 	addi	r4,r4,30580
 8004ebc:	80050480 	call	8005048 <altera_avalon_jtag_uart_init>
 8004ec0:	01020034 	movhi	r4,2048
 8004ec4:	211dd304 	addi	r4,r4,30540
 8004ec8:	8004e300 	call	8004e30 <alt_dev_reg>
}
 8004ecc:	0001883a 	nop
 8004ed0:	e037883a 	mov	sp,fp
 8004ed4:	dfc00117 	ldw	ra,4(sp)
 8004ed8:	df000017 	ldw	fp,0(sp)
 8004edc:	dec00204 	addi	sp,sp,8
 8004ee0:	f800283a 	ret

08004ee4 <altera_avalon_jtag_uart_read_fd>:
 *
 */

int 
altera_avalon_jtag_uart_read_fd(alt_fd* fd, char* buffer, int space)
{
 8004ee4:	defffa04 	addi	sp,sp,-24
 8004ee8:	dfc00515 	stw	ra,20(sp)
 8004eec:	df000415 	stw	fp,16(sp)
 8004ef0:	df000404 	addi	fp,sp,16
 8004ef4:	e13ffd15 	stw	r4,-12(fp)
 8004ef8:	e17ffe15 	stw	r5,-8(fp)
 8004efc:	e1bfff15 	stw	r6,-4(fp)
    altera_avalon_jtag_uart_dev* dev = (altera_avalon_jtag_uart_dev*) fd->dev; 
 8004f00:	e0bffd17 	ldw	r2,-12(fp)
 8004f04:	10800017 	ldw	r2,0(r2)
 8004f08:	e0bffc15 	stw	r2,-16(fp)

    return altera_avalon_jtag_uart_read(&dev->state, buffer, space,
 8004f0c:	e0bffc17 	ldw	r2,-16(fp)
 8004f10:	10c00a04 	addi	r3,r2,40
 8004f14:	e0bffd17 	ldw	r2,-12(fp)
 8004f18:	10800217 	ldw	r2,8(r2)
 8004f1c:	100f883a 	mov	r7,r2
 8004f20:	e1bfff17 	ldw	r6,-4(fp)
 8004f24:	e17ffe17 	ldw	r5,-8(fp)
 8004f28:	1809883a 	mov	r4,r3
 8004f2c:	800550c0 	call	800550c <altera_avalon_jtag_uart_read>
      fd->fd_flags);
}
 8004f30:	e037883a 	mov	sp,fp
 8004f34:	dfc00117 	ldw	ra,4(sp)
 8004f38:	df000017 	ldw	fp,0(sp)
 8004f3c:	dec00204 	addi	sp,sp,8
 8004f40:	f800283a 	ret

08004f44 <altera_avalon_jtag_uart_write_fd>:

int 
altera_avalon_jtag_uart_write_fd(alt_fd* fd, const char* buffer, int space)
{
 8004f44:	defffa04 	addi	sp,sp,-24
 8004f48:	dfc00515 	stw	ra,20(sp)
 8004f4c:	df000415 	stw	fp,16(sp)
 8004f50:	df000404 	addi	fp,sp,16
 8004f54:	e13ffd15 	stw	r4,-12(fp)
 8004f58:	e17ffe15 	stw	r5,-8(fp)
 8004f5c:	e1bfff15 	stw	r6,-4(fp)
    altera_avalon_jtag_uart_dev* dev = (altera_avalon_jtag_uart_dev*) fd->dev; 
 8004f60:	e0bffd17 	ldw	r2,-12(fp)
 8004f64:	10800017 	ldw	r2,0(r2)
 8004f68:	e0bffc15 	stw	r2,-16(fp)

    return altera_avalon_jtag_uart_write(&dev->state, buffer, space,
 8004f6c:	e0bffc17 	ldw	r2,-16(fp)
 8004f70:	10c00a04 	addi	r3,r2,40
 8004f74:	e0bffd17 	ldw	r2,-12(fp)
 8004f78:	10800217 	ldw	r2,8(r2)
 8004f7c:	100f883a 	mov	r7,r2
 8004f80:	e1bfff17 	ldw	r6,-4(fp)
 8004f84:	e17ffe17 	ldw	r5,-8(fp)
 8004f88:	1809883a 	mov	r4,r3
 8004f8c:	80057280 	call	8005728 <altera_avalon_jtag_uart_write>
      fd->fd_flags);
}
 8004f90:	e037883a 	mov	sp,fp
 8004f94:	dfc00117 	ldw	ra,4(sp)
 8004f98:	df000017 	ldw	fp,0(sp)
 8004f9c:	dec00204 	addi	sp,sp,8
 8004fa0:	f800283a 	ret

08004fa4 <altera_avalon_jtag_uart_close_fd>:

#ifndef ALTERA_AVALON_JTAG_UART_SMALL

int 
altera_avalon_jtag_uart_close_fd(alt_fd* fd)
{
 8004fa4:	defffc04 	addi	sp,sp,-16
 8004fa8:	dfc00315 	stw	ra,12(sp)
 8004fac:	df000215 	stw	fp,8(sp)
 8004fb0:	df000204 	addi	fp,sp,8
 8004fb4:	e13fff15 	stw	r4,-4(fp)
    altera_avalon_jtag_uart_dev* dev = (altera_avalon_jtag_uart_dev*) fd->dev; 
 8004fb8:	e0bfff17 	ldw	r2,-4(fp)
 8004fbc:	10800017 	ldw	r2,0(r2)
 8004fc0:	e0bffe15 	stw	r2,-8(fp)

    return altera_avalon_jtag_uart_close(&dev->state, fd->fd_flags);
 8004fc4:	e0bffe17 	ldw	r2,-8(fp)
 8004fc8:	10c00a04 	addi	r3,r2,40
 8004fcc:	e0bfff17 	ldw	r2,-4(fp)
 8004fd0:	10800217 	ldw	r2,8(r2)
 8004fd4:	100b883a 	mov	r5,r2
 8004fd8:	1809883a 	mov	r4,r3
 8004fdc:	80053b40 	call	80053b4 <altera_avalon_jtag_uart_close>
}
 8004fe0:	e037883a 	mov	sp,fp
 8004fe4:	dfc00117 	ldw	ra,4(sp)
 8004fe8:	df000017 	ldw	fp,0(sp)
 8004fec:	dec00204 	addi	sp,sp,8
 8004ff0:	f800283a 	ret

08004ff4 <altera_avalon_jtag_uart_ioctl_fd>:

int 
altera_avalon_jtag_uart_ioctl_fd(alt_fd* fd, int req, void* arg)
{
 8004ff4:	defffa04 	addi	sp,sp,-24
 8004ff8:	dfc00515 	stw	ra,20(sp)
 8004ffc:	df000415 	stw	fp,16(sp)
 8005000:	df000404 	addi	fp,sp,16
 8005004:	e13ffd15 	stw	r4,-12(fp)
 8005008:	e17ffe15 	stw	r5,-8(fp)
 800500c:	e1bfff15 	stw	r6,-4(fp)
    altera_avalon_jtag_uart_dev* dev = (altera_avalon_jtag_uart_dev*) fd->dev;
 8005010:	e0bffd17 	ldw	r2,-12(fp)
 8005014:	10800017 	ldw	r2,0(r2)
 8005018:	e0bffc15 	stw	r2,-16(fp)

    return altera_avalon_jtag_uart_ioctl(&dev->state, req, arg);
 800501c:	e0bffc17 	ldw	r2,-16(fp)
 8005020:	10800a04 	addi	r2,r2,40
 8005024:	e1bfff17 	ldw	r6,-4(fp)
 8005028:	e17ffe17 	ldw	r5,-8(fp)
 800502c:	1009883a 	mov	r4,r2
 8005030:	800541c0 	call	800541c <altera_avalon_jtag_uart_ioctl>
}
 8005034:	e037883a 	mov	sp,fp
 8005038:	dfc00117 	ldw	ra,4(sp)
 800503c:	df000017 	ldw	fp,0(sp)
 8005040:	dec00204 	addi	sp,sp,8
 8005044:	f800283a 	ret

08005048 <altera_avalon_jtag_uart_init>:
 * Return 1 on sucessful IRQ register and 0 on failure.
 */

void altera_avalon_jtag_uart_init(altera_avalon_jtag_uart_state* sp, 
                                  int irq_controller_id, int irq)
{
 8005048:	defffa04 	addi	sp,sp,-24
 800504c:	dfc00515 	stw	ra,20(sp)
 8005050:	df000415 	stw	fp,16(sp)
 8005054:	df000404 	addi	fp,sp,16
 8005058:	e13ffd15 	stw	r4,-12(fp)
 800505c:	e17ffe15 	stw	r5,-8(fp)
 8005060:	e1bfff15 	stw	r6,-4(fp)
  ALT_FLAG_CREATE(&sp->events, 0);
  ALT_SEM_CREATE(&sp->read_lock, 1);
  ALT_SEM_CREATE(&sp->write_lock, 1);

  /* enable read interrupts at the device */
  sp->irq_enable = ALTERA_AVALON_JTAG_UART_CONTROL_RE_MSK;
 8005064:	e0bffd17 	ldw	r2,-12(fp)
 8005068:	00c00044 	movi	r3,1
 800506c:	10c00815 	stw	r3,32(r2)

  IOWR_ALTERA_AVALON_JTAG_UART_CONTROL(sp->base, sp->irq_enable); 
 8005070:	e0bffd17 	ldw	r2,-12(fp)
 8005074:	10800017 	ldw	r2,0(r2)
 8005078:	10800104 	addi	r2,r2,4
 800507c:	1007883a 	mov	r3,r2
 8005080:	e0bffd17 	ldw	r2,-12(fp)
 8005084:	10800817 	ldw	r2,32(r2)
 8005088:	18800035 	stwio	r2,0(r3)
  
  /* register the interrupt handler */
#ifdef ALT_ENHANCED_INTERRUPT_API_PRESENT
  alt_ic_isr_register(irq_controller_id, irq, altera_avalon_jtag_uart_irq, 
 800508c:	e0bffe17 	ldw	r2,-8(fp)
 8005090:	e0ffff17 	ldw	r3,-4(fp)
 8005094:	d8000015 	stw	zero,0(sp)
 8005098:	e1fffd17 	ldw	r7,-12(fp)
 800509c:	01820034 	movhi	r6,2048
 80050a0:	31944204 	addi	r6,r6,20744
 80050a4:	180b883a 	mov	r5,r3
 80050a8:	1009883a 	mov	r4,r2
 80050ac:	8005dec0 	call	8005dec <alt_ic_isr_register>
#else
  alt_irq_register(irq, sp, altera_avalon_jtag_uart_irq);
#endif  

  /* Register an alarm to go off every second to check for presence of host */
  sp->host_inactive = 0;
 80050b0:	e0bffd17 	ldw	r2,-12(fp)
 80050b4:	10000915 	stw	zero,36(r2)

  if (alt_alarm_start(&sp->alarm, alt_ticks_per_second(), 
 80050b8:	e0bffd17 	ldw	r2,-12(fp)
 80050bc:	10800204 	addi	r2,r2,8
 * Obtain the system clock rate in ticks/s. 
 */

static ALT_INLINE alt_u32 ALT_ALWAYS_INLINE alt_ticks_per_second (void)
{
  return _alt_tick_rate;
 80050c0:	d0e6b117 	ldw	r3,-25916(gp)
 80050c4:	e1fffd17 	ldw	r7,-12(fp)
 80050c8:	01820034 	movhi	r6,2048
 80050cc:	3194c504 	addi	r6,r6,21268
 80050d0:	180b883a 	mov	r5,r3
 80050d4:	1009883a 	mov	r4,r2
 80050d8:	800594c0 	call	800594c <alt_alarm_start>
 80050dc:	1000040e 	bge	r2,zero,80050f0 <altera_avalon_jtag_uart_init+0xa8>
    &altera_avalon_jtag_uart_timeout, sp) < 0)
  {
    /* If we can't set the alarm then record "don't know if host present" 
     * and behave as though the host is present.
     */
    sp->timeout = INT_MAX;
 80050e0:	e0fffd17 	ldw	r3,-12(fp)
 80050e4:	00a00034 	movhi	r2,32768
 80050e8:	10bfffc4 	addi	r2,r2,-1
 80050ec:	18800115 	stw	r2,4(r3)
  }

  /* ALT_LOG - see altera_hal/HAL/inc/sys/alt_log_printf.h */ 
  ALT_LOG_JTAG_UART_ALARM_REGISTER(sp, sp->base);
}
 80050f0:	0001883a 	nop
 80050f4:	e037883a 	mov	sp,fp
 80050f8:	dfc00117 	ldw	ra,4(sp)
 80050fc:	df000017 	ldw	fp,0(sp)
 8005100:	dec00204 	addi	sp,sp,8
 8005104:	f800283a 	ret

08005108 <altera_avalon_jtag_uart_irq>:
#ifdef ALT_ENHANCED_INTERRUPT_API_PRESENT
static void altera_avalon_jtag_uart_irq(void* context)
#else
static void altera_avalon_jtag_uart_irq(void* context, alt_u32 id)
#endif
{
 8005108:	defff804 	addi	sp,sp,-32
 800510c:	df000715 	stw	fp,28(sp)
 8005110:	df000704 	addi	fp,sp,28
 8005114:	e13fff15 	stw	r4,-4(fp)
  altera_avalon_jtag_uart_state* sp = (altera_avalon_jtag_uart_state*) context;
 8005118:	e0bfff17 	ldw	r2,-4(fp)
 800511c:	e0bffb15 	stw	r2,-20(fp)
  unsigned int base = sp->base;
 8005120:	e0bffb17 	ldw	r2,-20(fp)
 8005124:	10800017 	ldw	r2,0(r2)
 8005128:	e0bffc15 	stw	r2,-16(fp)
  /* ALT_LOG - see altera_hal/HAL/inc/sys/alt_log_printf.h */ 
  ALT_LOG_JTAG_UART_ISR_FUNCTION(base, sp);

  for ( ; ; )
  {
    unsigned int control = IORD_ALTERA_AVALON_JTAG_UART_CONTROL(base);
 800512c:	e0bffc17 	ldw	r2,-16(fp)
 8005130:	10800104 	addi	r2,r2,4
 8005134:	10800037 	ldwio	r2,0(r2)
 8005138:	e0bffd15 	stw	r2,-12(fp)

