
vga.elf:     file format elf32-littlenios2
vga.elf
architecture: nios2:r1, flags 0x00000112:
EXEC_P, HAS_SYMS, D_PAGED
start address 0x08000244

Program Header:
    LOAD off    0x00001000 vaddr 0x08000000 paddr 0x08000000 align 2**12
         filesz 0x00000020 memsz 0x00000020 flags r-x
    LOAD off    0x00001020 vaddr 0x08000020 paddr 0x08000020 align 2**12
         filesz 0x00040b38 memsz 0x00040b38 flags r-x
    LOAD off    0x00041b58 vaddr 0x08040b58 paddr 0x080426a4 align 2**12
         filesz 0x00001b4c memsz 0x00001b4c flags rw-
    LOAD off    0x000441f0 vaddr 0x080441f0 paddr 0x080441f0 align 2**12
         filesz 0x00000000 memsz 0x00000160 flags rw-

Sections:
Idx Name          Size      VMA       LMA       File off  Algn
  0 .entry        00000020  08000000  08000000  00001000  2**5
                  CONTENTS, ALLOC, LOAD, READONLY, CODE
  1 .exceptions   00000224  08000020  08000020  00001020  2**2
                  CONTENTS, ALLOC, LOAD, READONLY, CODE
  2 .text         000083e0  08000244  08000244  00001244  2**2
                  CONTENTS, ALLOC, LOAD, READONLY, CODE
  3 .rodata       00038534  08008624  08008624  00009624  2**2
                  CONTENTS, ALLOC, LOAD, READONLY, DATA
  4 .rwdata       00001b4c  08040b58  080426a4  00041b58  2**2
                  CONTENTS, ALLOC, LOAD, DATA, SMALL_DATA
  5 .bss          00000160  080441f0  080441f0  000441f0  2**2
                  ALLOC, SMALL_DATA
  6 .sdram_controller_0 00000000  08044350  08044350  000436a4  2**0
                  CONTENTS
  7 .comment      00000023  00000000  00000000  000436a4  2**0
                  CONTENTS, READONLY
  8 .debug_aranges 00000a30  00000000  00000000  000436c8  2**3
                  CONTENTS, READONLY, DEBUGGING
  9 .debug_info   00015da2  00000000  00000000  000440f8  2**0
                  CONTENTS, READONLY, DEBUGGING
 10 .debug_abbrev 00005828  00000000  00000000  00059e9a  2**0
                  CONTENTS, READONLY, DEBUGGING
 11 .debug_line   00006b41  00000000  00000000  0005f6c2  2**0
                  CONTENTS, READONLY, DEBUGGING
 12 .debug_frame  0000193c  00000000  00000000  00066204  2**2
                  CONTENTS, READONLY, DEBUGGING
 13 .debug_str    00003061  00000000  00000000  00067b40  2**0
                  CONTENTS, READONLY, DEBUGGING
 14 .debug_loc    000004ce  00000000  00000000  0006aba1  2**0
                  CONTENTS, READONLY, DEBUGGING
 15 .debug_alt_sim_info 00000030  00000000  00000000  0006b070  2**2
                  CONTENTS, READONLY, DEBUGGING
 16 .debug_ranges 00000418  00000000  00000000  0006b0a0  2**3
                  CONTENTS, READONLY, DEBUGGING
 17 .thread_model 00000003  00000000  00000000  0006dd62  2**0
                  CONTENTS, READONLY
 18 .cpu          0000000c  00000000  00000000  0006dd65  2**0
                  CONTENTS, READONLY
 19 .qsys         00000001  00000000  00000000  0006dd71  2**0
                  CONTENTS, READONLY
 20 .simulation_enabled 00000001  00000000  00000000  0006dd72  2**0
                  CONTENTS, READONLY
 21 .stderr_dev   00000004  00000000  00000000  0006dd73  2**0
                  CONTENTS, READONLY
 22 .stdin_dev    00000004  00000000  00000000  0006dd77  2**0
                  CONTENTS, READONLY
 23 .stdout_dev   00000004  00000000  00000000  0006dd7b  2**0
                  CONTENTS, READONLY
 24 .sopc_system_name 0000000b  00000000  00000000  0006dd7f  2**0
                  CONTENTS, READONLY
 25 .quartus_project_dir 0000001a  00000000  00000000  0006dd8a  2**0
                  CONTENTS, READONLY
 26 .jdi          00005174  00000000  00000000  0006dda4  2**0
                  CONTENTS, READONLY
 27 .sopcinfo     0006f578  00000000  00000000  00072f18  2**0
                  CONTENTS, READONLY
SYMBOL TABLE:
08000000 l    d  .entry	00000000 .entry
08000020 l    d  .exceptions	00000000 .exceptions
08000244 l    d  .text	00000000 .text
08008624 l    d  .rodata	00000000 .rodata
08040b58 l    d  .rwdata	00000000 .rwdata
080441f0 l    d  .bss	00000000 .bss
08044350 l    d  .sdram_controller_0	00000000 .sdram_controller_0
00000000 l    d  .comment	00000000 .comment
00000000 l    d  .debug_aranges	00000000 .debug_aranges
00000000 l    d  .debug_info	00000000 .debug_info
00000000 l    d  .debug_abbrev	00000000 .debug_abbrev
00000000 l    d  .debug_line	00000000 .debug_line
00000000 l    d  .debug_frame	00000000 .debug_frame
00000000 l    d  .debug_str	00000000 .debug_str
00000000 l    d  .debug_loc	00000000 .debug_loc
00000000 l    d  .debug_alt_sim_info	00000000 .debug_alt_sim_info
00000000 l    d  .debug_ranges	00000000 .debug_ranges
00000000 l    df *ABS*	00000000 ../vga_bsp//obj/HAL/src/crt0.o
0800028c l       .text	00000000 alt_after_alt_main
00000000 l    df *ABS*	00000000 alt_irq_handler.c
00000000 l    df *ABS*	00000000 alt_instruction_exception_entry.c
00000000 l    df *ABS*	00000000 hello_world.c
00000000 l    df *ABS*	00000000 myfile.c
00000000 l    df *ABS*	00000000 puts.c
00000000 l    df *ABS*	00000000 strlen.c
00000000 l    df *ABS*	00000000 findfp.c
08000624 l     F .text	000000f4 std
080441f0 l     O .bss	00000004 __sfp_lock
080441f4 l     O .bss	00000004 __sinit_lock
08000b20 l     F .text	00000024 __fp_lock
08000b44 l     F .text	00000024 __fp_unlock
00000000 l    df *ABS*	00000000 fvwrite.c
00000000 l    df *ABS*	00000000 fwalk.c
00000000 l    df *ABS*	00000000 impure.c
08040b58 l     O .rwdata	00000424 impure_data
00000000 l    df *ABS*	00000000 mallocr.c
08001378 l     F .text	000003b4 malloc_extend_top
00000000 l    df *ABS*	00000000 memchr.c
00000000 l    df *ABS*	00000000 memcpy.c
00000000 l    df *ABS*	00000000 memmove.c
00000000 l    df *ABS*	00000000 memset.c
00000000 l    df *ABS*	00000000 mallocr.c
00000000 l    df *ABS*	00000000 sbrkr.c
00000000 l    df *ABS*	00000000 stdio.c
00000000 l    df *ABS*	00000000 writer.c
00000000 l    df *ABS*	00000000 wsetup.c
00000000 l    df *ABS*	00000000 closer.c
00000000 l    df *ABS*	00000000 fclose.c
00000000 l    df *ABS*	00000000 fflush.c
00000000 l    df *ABS*	00000000 mallocr.c
00000000 l    df *ABS*	00000000 int_errno.c
00000000 l    df *ABS*	00000000 lseekr.c
00000000 l    df *ABS*	00000000 makebuf.c
00000000 l    df *ABS*	00000000 readr.c
00000000 l    df *ABS*	00000000 fstatr.c
00000000 l    df *ABS*	00000000 isattyr.c
00000000 l    df *ABS*	00000000 lib2-divmod.c
00000000 l    df *ABS*	00000000 alt_close.c
08004ce4 l     F .text	0000003c alt_get_errno
00000000 l    df *ABS*	00000000 alt_dev.c
08004df0 l     F .text	0000002c alt_dev_null_write
00000000 l    df *ABS*	00000000 alt_errno.c
00000000 l    df *ABS*	00000000 alt_fstat.c
08004e1c l     F .text	0000003c alt_get_errno
00000000 l    df *ABS*	00000000 alt_isatty.c
08004f08 l     F .text	0000003c alt_get_errno
00000000 l    df *ABS*	00000000 alt_load.c
08004fe8 l     F .text	00000068 alt_load_section
00000000 l    df *ABS*	00000000 alt_lseek.c
080050d4 l     F .text	0000003c alt_get_errno
00000000 l    df *ABS*	00000000 alt_main.c
00000000 l    df *ABS*	00000000 alt_malloc_lock.c
00000000 l    df *ABS*	00000000 alt_read.c
0800528c l     F .text	0000003c alt_get_errno
00000000 l    df *ABS*	00000000 alt_release_fd.c
00000000 l    df *ABS*	00000000 alt_sbrk.c
08042694 l     O .rwdata	00000004 heap_end
00000000 l    df *ABS*	00000000 alt_tick.c
00000000 l    df *ABS*	00000000 alt_write.c
0800567c l     F .text	0000003c alt_get_errno
00000000 l    df *ABS*	00000000 alt_sys_init.c
080057b0 l     F .text	00000034 alt_dev_reg
0804152c l     O .rwdata	00001060 jtag_uart_0
0804258c l     O .rwdata	00000048 video_character_buffer_with_dma_0
080425d4 l     O .rwdata	00000054 video_pixel_buffer_dma_0
08042628 l     O .rwdata	00000044 video_rgb_resampler_0
00000000 l    df *ABS*	00000000 altera_avalon_jtag_uart_fd.c
00000000 l    df *ABS*	00000000 altera_avalon_jtag_uart_init.c
08005dfc l     F .text	0000020c altera_avalon_jtag_uart_irq
08006008 l     F .text	000000a0 altera_avalon_jtag_uart_timeout
00000000 l    df *ABS*	00000000 altera_avalon_jtag_uart_ioctl.c
00000000 l    df *ABS*	00000000 altera_avalon_jtag_uart_read.c
00000000 l    df *ABS*	00000000 altera_avalon_jtag_uart_write.c
00000000 l    df *ABS*	00000000 altera_up_avalon_video_character_buffer_with_dma.c
00000000 l    df *ABS*	00000000 altera_up_avalon_video_pixel_buffer_dma.c
00000000 l    df *ABS*	00000000 alt_alarm_start.c
00000000 l    df *ABS*	00000000 alt_dcache_flush_all.c
00000000 l    df *ABS*	00000000 alt_dev_llist_insert.c
08007948 l     F .text	0000003c alt_get_errno
00000000 l    df *ABS*	00000000 alt_do_ctors.c
00000000 l    df *ABS*	00000000 alt_do_dtors.c
00000000 l    df *ABS*	00000000 alt_find_dev.c
00000000 l    df *ABS*	00000000 alt_icache_flush_all.c
00000000 l    df *ABS*	00000000 alt_iic.c
00000000 l    df *ABS*	00000000 alt_iic_isr_register.c
00000000 l    df *ABS*	00000000 alt_irq_vars.c
00000000 l    df *ABS*	00000000 altera_nios2_gen2_irq.c
00000000 l    df *ABS*	00000000 alt_icache_flush.c
00000000 l    df *ABS*	00000000 atexit.c
00000000 l    df *ABS*	00000000 exit.c
00000000 l    df *ABS*	00000000 memcmp.c
00000000 l    df *ABS*	00000000 strcmp.c
00000000 l    df *ABS*	00000000 __atexit.c
00000000 l    df *ABS*	00000000 __call_atexit.c
08044224 l     O .bss	00000004 __atexit_lock
00000000 l    df *ABS*	00000000 alt_exit.c
08044220 g     O .bss	00000004 alt_instruction_exception_handler
08004ad0 g     F .text	00000060 _isatty_r
080051e4 g     F .text	00000060 alt_main
080071f4 g     F .text	0000024c alt_up_pixel_buffer_dma_draw_vline
080003e0 g     F .text	00000118 _puts_r
08044250 g     O .bss	00000100 alt_irq
0800475c g     F .text	00000070 _lseek_r
080426a4 g       *ABS*	00000000 __flash_rwdata_start
08000290 g     F .text	00000034 measuringFrameRate
08044350 g       *ABS*	00000000 __alt_heap_start
08003788 g     F .text	000000a0 __sseek
080009c8 g     F .text	000000d8 __sinit
080067c8 g     F .text	000000fc alt_up_char_buffer_string
08000718 g     F .text	000000a4 __sfmoreglue
08005268 g     F .text	00000024 __malloc_unlock
080066fc g     F .text	000000cc alt_up_char_buffer_draw
080025ec g     F .text	00000208 memmove
08000994 g     F .text	00000034 _cleanup
0800695c g     F .text	00000194 alt_up_pixel_buffer_dma_draw
08007e4c g     F .text	00000024 altera_nios2_gen2_irq_init
08006920 g     F .text	0000003c alt_up_pixel_buffer_dma_open_dev
08000000 g     F .entry	0000001c __reset
08000020 g       *ABS*	00000000 __flash_exceptions_start
08004a68 g     F .text	00000068 _fstat_r
08044204 g     O .bss	00000004 errno
080036a4 g     F .text	00000030 __seofread
0804420c g     O .bss	00000004 alt_argv
0804a66c g       *ABS*	00000000 _gp
08006af0 g     F .text	0000005c alt_up_pixel_buffer_dma_change_back_buffer_address
080413ac g     O .rwdata	00000180 alt_fd_list
08007ae8 g     F .text	00000090 alt_find_dev
08002464 g     F .text	00000188 memcpy
080068c4 g     F .text	0000005c alt_up_char_buffer_clear
08000950 g     F .text	00000044 _cleanup_r
08008624 g       *ABS*	00000000 __DTOR_END__
080004f8 g     F .text	00000038 puts
08007f00 g     F .text	0000009c alt_exception_cause_generated_bad_addr
08006bac g     F .text	00000034 alt_up_pixel_buffer_dma_check_swap_buffers_status
08006200 g     F .text	0000021c altera_avalon_jtag_uart_read
08004c28 g     F .text	00000064 .hidden __udivsi3
08004f44 g     F .text	000000a4 isatty
08006fe4 g     F .text	00000210 alt_up_pixel_buffer_dma_draw_hline
08007e70 g     F .text	00000090 alt_icache_flush
080441f8 g     O .bss	00000004 __malloc_top_pad
08000be8 g     F .text	000005dc __sfvwrite_r
080035a8 g     F .text	00000060 _sbrk_r
08007508 g     F .text	00000084 helper_plot_pixel
080049f8 g     F .text	00000070 _read_r
0804268c g     O .rwdata	00000004 alt_max_fd
08003aec g     F .text	0000012c _fclose_r
08003fdc g     F .text	00000054 fflush
080441fc g     O .bss	00000004 __malloc_max_sbrked_mem
08006be0 g     F .text	00000128 alt_up_pixel_buffer_dma_clear_screen
08005110 g     F .text	000000d4 lseek
08000000 g       *ABS*	00000000 __alt_mem_sdram_controller_0
08042670 g     O .rwdata	00000004 _global_impure_ptr
080029b8 g     F .text	00000bf0 _realloc_r
08044350 g       *ABS*	00000000 __bss_end
08007d5c g     F .text	000000f0 alt_iic_isr_register
08006d08 g     F .text	000002dc alt_up_pixel_buffer_dma_draw_box
08005574 g     F .text	00000108 alt_tick
08000b68 g     F .text	00000040 __fp_lock_all
08007d10 g     F .text	0000004c alt_ic_irq_enabled
080054d8 g     F .text	0000009c alt_alarm_stop
08008696 g     O .rodata	00038401 myimage
0804421c g     O .bss	00000004 alt_irq_active
080000fc g     F .exceptions	000000d4 alt_irq_handler
08041384 g     O .rwdata	00000028 alt_dev_null
08007900 g     F .text	00000048 alt_dcache_flush_all
08007440 g     F .text	000000c8 alt_up_pixel_buffer_dma_draw_rectangle
080426a4 g       *ABS*	00000000 __ram_rwdata_end
08042684 g     O .rwdata	00000008 alt_dev_list
080056b8 g     F .text	000000f8 write
0800758c g     F .text	00000248 alt_up_pixel_buffer_dma_draw_line
08040b58 g       *ABS*	00000000 __ram_rodata_end
08004e58 g     F .text	000000b0 fstat
08004c8c g     F .text	00000058 .hidden __umodsi3
08044350 g       *ABS*	00000000 end
08006640 g     F .text	00000080 alt_up_char_buffer_init
08005d3c g     F .text	000000c0 altera_avalon_jtag_uart_init
080001d0 g     F .exceptions	00000074 alt_instruction_exception_entry
08008624 g       *ABS*	00000000 __CTOR_LIST__
10000000 g       *ABS*	00000000 __alt_stack_pointer
0800641c g     F .text	00000224 altera_avalon_jtag_uart_write
08000aa0 g     F .text	00000020 __sfp_lock_acquire
080022a8 g     F .text	000001bc memchr
08004030 g     F .text	00000560 _free_r
08008404 g     F .text	000001ec __call_exitprocs
08042678 g     O .rwdata	00000004 __malloc_sbrk_base
08000244 g     F .text	0000004c _start
08044214 g     O .bss	00000004 _alt_tick_rate
08044218 g     O .bss	00000004 _alt_nticks
080052c8 g     F .text	000000fc read
08000334 g     F .text	00000068 displayImage
0800581c g     F .text	000003bc alt_sys_init
08008294 g     F .text	00000170 __register_exitproc
080060a8 g     F .text	00000068 altera_avalon_jtag_uart_close
08040b58 g       *ABS*	00000000 __ram_rwdata_start
08008624 g       *ABS*	00000000 __ram_rodata_start
08044228 g     O .bss	00000028 __malloc_current_mallinfo
08005bd8 g     F .text	00000060 altera_avalon_jtag_uart_read_fd
080002c4 g     F .text	00000070 displayFrameRate
08003a8c g     F .text	00000060 _close_r
08008020 g     F .text	00000134 memcmp
08005c98 g     F .text	00000050 altera_avalon_jtag_uart_close_fd
08044350 g       *ABS*	00000000 __alt_stack_base
08005ce8 g     F .text	00000054 altera_avalon_jtag_uart_ioctl_fd
080038ec g     F .text	000001a0 __swsetup_r
080007bc g     F .text	00000194 __sfp
08040f7c g     O .rwdata	00000408 __malloc_av_
08000b00 g     F .text	00000020 __sinit_lock_release
08003608 g     F .text	0000009c __sread
08007984 g     F .text	000000a4 alt_dev_llist_insert
08005244 g     F .text	00000024 __malloc_lock
08005428 g     F .text	000000b0 sbrk
08003f54 g     F .text	00000088 _fflush_r
080441f0 g       *ABS*	00000000 __bss_start
080027f4 g     F .text	000001c4 memset
0800039c g     F .text	00000044 main
08044210 g     O .bss	00000004 alt_envp
08044200 g     O .bss	00000004 __malloc_max_total_mem
08006b4c g     F .text	00000060 alt_up_pixel_buffer_dma_swap_buffers
080066c0 g     F .text	0000003c alt_up_char_buffer_open_dev
08005c38 g     F .text	00000060 altera_avalon_jtag_uart_write_fd
08003828 g     F .text	00000054 __sclose
10000000 g       *ABS*	00000000 __alt_heap_limit
08003c18 g     F .text	00000038 fclose
0800172c g     F .text	00000b7c _malloc_r
08042690 g     O .rwdata	00000004 alt_errno
080011c4 g     F .text	000000d8 _fwalk
08004b30 g     F .text	00000084 .hidden __divsi3
08004590 g     F .text	000001cc _malloc_trim_r
08008624 g       *ABS*	00000000 __CTOR_END__
08008154 g     F .text	00000140 strcmp
08008624 g       *ABS*	00000000 __flash_rodata_start
08008624 g       *ABS*	00000000 __DTOR_LIST__
080057e4 g     F .text	00000038 alt_irq_init
080053c4 g     F .text	00000064 alt_release_fd
08007f9c g     F .text	0000003c atexit
0800387c g     F .text	00000070 _write_r
0804266c g     O .rwdata	00000004 _impure_ptr
08044208 g     O .bss	00000004 alt_argc
08003c50 g     F .text	00000304 __sflush_r
08007a88 g     F .text	00000060 _do_dtors
08000020 g       .exceptions	00000000 alt_irq_entry
08000ba8 g     F .text	00000040 __fp_unlock_all
0804267c g     O .rwdata	00000008 alt_fs_list
08000020 g       *ABS*	00000000 __ram_exceptions_start
08007bac g     F .text	00000050 alt_ic_isr_register
080426a4 g       *ABS*	00000000 _edata
08044350 g       *ABS*	00000000 _end
08000244 g       *ABS*	00000000 __ram_exceptions_end
08006110 g     F .text	000000f0 altera_avalon_jtag_uart_ioctl
08007c84 g     F .text	0000008c alt_ic_irq_disable
080036d4 g     F .text	000000b4 __swrite
08042674 g     O .rwdata	00000004 __malloc_trim_threshold
08007fd8 g     F .text	00000048 exit
0800129c g     F .text	000000dc _fwalk_reent
08004bb4 g     F .text	00000074 .hidden __modsi3
10000000 g       *ABS*	00000000 __alt_data_end
08000020 g     F .exceptions	00000000 alt_exception
08000ac0 g     F .text	00000020 __sfp_lock_release
080085f0 g     F .text	00000034 _exit
080077d4 g     F .text	0000012c alt_alarm_start
080047cc g     F .text	0000022c __smakebuf_r
08000530 g     F .text	000000f4 strlen
08007b78 g     F .text	00000034 alt_icache_flush_all
080426a0 g     O .rwdata	00000004 alt_priority_mask
08007bfc g     F .text	00000088 alt_ic_irq_enable
08042698 g     O .rwdata	00000008 alt_alarm_list
08007a28 g     F .text	00000060 _do_ctors
08004d20 g     F .text	000000d0 close
08005050 g     F .text	00000084 alt_load
08000ae0 g     F .text	00000020 __sinit_lock_acquire



Disassembly of section .entry:

08000000 <__reset>:
#if NIOS2_ICACHE_SIZE > 0 && defined(ALT_ALLOW_CODE_AT_RESET) && (!defined(ALT_SIM_OPTIMIZE) || defined(NIOS2_ECC_PRESENT))
    /* Assume the instruction cache size is always a power of two. */
#if NIOS2_ICACHE_SIZE > 0x8000
    movhi r2, %hi(NIOS2_ICACHE_SIZE)
#else
    movui r2, NIOS2_ICACHE_SIZE
 8000000:	00840014 	movui	r2,4096
#endif

0:
    initi r2
 8000004:	1001483a 	initi	r2
    addi r2, r2, -NIOS2_ICACHE_LINE_SIZE
 8000008:	10bff804 	addi	r2,r2,-32
    bgt r2, zero, 0b
 800000c:	00bffd16 	blt	zero,r2,8000004 <__reset+0x4>
 * Jump to the _start entry point in the .text section if reset code
 * is allowed or if optimizing for RTL simulation.
 */
#if defined(ALT_ALLOW_CODE_AT_RESET) || defined(ALT_SIM_OPTIMIZE)
    /* Jump to the _start entry point in the .text section. */
    movhi r1, %hi(_start)
 8000010:	00420034 	movhi	at,2048
    ori r1, r1, %lo(_start)
 8000014:	08409114 	ori	at,at,580
    jmp r1
 8000018:	0800683a 	jmp	at
 800001c:	00000000 	call	0 <__alt_mem_sdram_controller_0-0x8000000>

Disassembly of section .exceptions:

08000020 <alt_exception>:

#else /* ALT_EXCEPTION_STACK disabled */
        /* 
         * Reserve space on normal stack for registers about to be pushed.
         */
        addi  sp, sp, -76
 8000020:	deffed04 	addi	sp,sp,-76
         * documentation for details).
         *
         * Leave a gap in the stack frame at 4(sp) for the muldiv handler to
         * store zero into.
         */
        stw   ra,  0(sp)
 8000024:	dfc00015 	stw	ra,0(sp)
        stw   r1,   8(sp)
 8000028:	d8400215 	stw	at,8(sp)
        stw   r2,  12(sp)
 800002c:	d8800315 	stw	r2,12(sp)
        stw   r3,  16(sp)
 8000030:	d8c00415 	stw	r3,16(sp)
        stw   r4,  20(sp)
 8000034:	d9000515 	stw	r4,20(sp)
        stw   r5,  24(sp)
 8000038:	d9400615 	stw	r5,24(sp)
        stw   r6,  28(sp)
 800003c:	d9800715 	stw	r6,28(sp)
        stw   r7,  32(sp)
 8000040:	d9c00815 	stw	r7,32(sp)
        rdctl r5, estatus   /* Read early to avoid usage stall */
 8000044:	000b307a 	rdctl	r5,estatus
        stw   r8,  36(sp)
 8000048:	da000915 	stw	r8,36(sp)
        stw   r9,  40(sp)
 800004c:	da400a15 	stw	r9,40(sp)
        stw   r10, 44(sp)
 8000050:	da800b15 	stw	r10,44(sp)
        stw   r11, 48(sp)
 8000054:	dac00c15 	stw	r11,48(sp)
        stw   r12, 52(sp)
 8000058:	db000d15 	stw	r12,52(sp)
        stw   r13, 56(sp)
 800005c:	db400e15 	stw	r13,56(sp)
        stw   r14, 60(sp)
 8000060:	db800f15 	stw	r14,60(sp)
        stw   r15, 64(sp)
 8000064:	dbc01015 	stw	r15,64(sp)
        /*
         * ea-4 contains the address of the instruction being executed
         * when the exception occured. For interrupt exceptions, we will
         * will be re-issue the isntruction. Store it in 72(sp)
         */
        stw   r5,  68(sp)  /* estatus */
 8000068:	d9401115 	stw	r5,68(sp)
        addi  r15, ea, -4  /* instruction that caused exception */
 800006c:	ebffff04 	addi	r15,ea,-4
        stw   r15,  72(sp)
 8000070:	dbc01215 	stw	r15,72(sp)
#else
        /*
         * Test to see if the exception was a software exception or caused 
         * by an external interrupt, and vector accordingly.
         */
        rdctl r4, ipending
 8000074:	0009313a 	rdctl	r4,ipending
        andi  r2, r5, 1
 8000078:	2880004c 	andi	r2,r5,1
        beq   r2, zero, .Lnot_irq
 800007c:	10000326 	beq	r2,zero,800008c <alt_exception+0x6c>
        beq   r4, zero, .Lnot_irq
 8000080:	20000226 	beq	r4,zero,800008c <alt_exception+0x6c>
        /*
         * Now that all necessary registers have been preserved, call 
         * alt_irq_handler() to process the interrupts.
         */

        call alt_irq_handler
 8000084:	80000fc0 	call	80000fc <alt_irq_handler>

        .section .exceptions.irqreturn, "xa"

        br    .Lexception_exit
 8000088:	00000706 	br	80000a8 <alt_exception+0x88>
         * upon completion, so we write ea (address of instruction *after*
         * the one where the exception occured) into 72(sp). The actual
         * instruction that caused the exception is written in r2, which these
         * handlers will utilize.
         */
        stw ea, 72(sp) /* EA is PC+4 so will skip over instruction causing exception */
 800008c:	df401215 	stw	ea,72(sp)
.Lunknown_16bit:
        addi.n r4, r4, 2 /* Need PC+2 to skip over instruction causing exception */
        stw r4, 72(sp)

#else /* CDX is not Enabled and all instructions are 32bits */
        ldw r2, -4(ea) /* Instruction value that caused exception */
 8000090:	e8bfff17 	ldw	r2,-4(ea)
         * debugger is present) or go into an infinite loop since the
         * handling behavior is undefined; in that case we will not return here.
         */

        /* Load exception-causing address as first argument (r4) */
        addi   r4, ea, -4
 8000094:	e93fff04 	addi	r4,ea,-4

        /* Call the instruction-exception entry */
        call   alt_instruction_exception_entry
 8000098:	80001d00 	call	80001d0 <alt_instruction_exception_entry>
         * instruction
         *
         * Return code was 0: Skip. The instruction after the exception is
         * already stored in 72(sp).
         */
        bne   r2, r0, .Lexception_exit
 800009c:	1000021e 	bne	r2,zero,80000a8 <alt_exception+0x88>

        /*
         * Otherwise, modify 72(sp) to re-issue the instruction that caused the
         * exception.
         */
        addi  r15, ea, -4  /* instruction that caused exception */
 80000a0:	ebffff04 	addi	r15,ea,-4
        stw   r15,  72(sp)
 80000a4:	dbc01215 	stw	r15,72(sp)
        /* 
         * Restore the saved registers, so that all general purpose registers 
         * have been restored to their state at the time the interrupt occured.
         */

        ldw   r5,  68(sp)
 80000a8:	d9401117 	ldw	r5,68(sp)
        ldw   ea,  72(sp)  /* This becomes the PC once eret is executed */
 80000ac:	df401217 	ldw	ea,72(sp)
        ldw   ra,   0(sp)
 80000b0:	dfc00017 	ldw	ra,0(sp)

        wrctl estatus, r5
 80000b4:	2801707a 	wrctl	estatus,r5

        ldw   r1,   8(sp)
 80000b8:	d8400217 	ldw	at,8(sp)
        ldw   r2,  12(sp)
 80000bc:	d8800317 	ldw	r2,12(sp)
        ldw   r3,  16(sp)
 80000c0:	d8c00417 	ldw	r3,16(sp)
        ldw   r4,  20(sp)
 80000c4:	d9000517 	ldw	r4,20(sp)
        ldw   r5,  24(sp)
 80000c8:	d9400617 	ldw	r5,24(sp)
        ldw   r6,  28(sp)
 80000cc:	d9800717 	ldw	r6,28(sp)
        ldw   r7,  32(sp)
 80000d0:	d9c00817 	ldw	r7,32(sp)

#if defined(ALT_EXCEPTION_STACK) && defined(ALT_STACK_CHECK)
        ldw   et, %gprel(alt_exception_old_stack_limit)(gp)
#endif

        ldw   r8,  36(sp)
 80000d4:	da000917 	ldw	r8,36(sp)
        ldw   r9,  40(sp)
 80000d8:	da400a17 	ldw	r9,40(sp)
        ldw   r10, 44(sp)
 80000dc:	da800b17 	ldw	r10,44(sp)
        ldw   r11, 48(sp)
 80000e0:	dac00c17 	ldw	r11,48(sp)
        ldw   r12, 52(sp)
 80000e4:	db000d17 	ldw	r12,52(sp)
        ldw   r13, 56(sp)
 80000e8:	db400e17 	ldw	r13,56(sp)
        ldw   r14, 60(sp)
 80000ec:	db800f17 	ldw	r14,60(sp)
        ldw   r15, 64(sp)
 80000f0:	dbc01017 	ldw	r15,64(sp)
        stw   et, %gprel(alt_stack_limit_value)(gp)
        stw   zero, %gprel(alt_exception_old_stack_limit)(gp)
#endif /* ALT_STACK_CHECK */
        ldw   sp,  76(sp)
#else /* ALT_EXCEPTION_STACK disabled */
        addi  sp, sp, 76
 80000f4:	dec01304 	addi	sp,sp,76

        /*
         * Return to the interrupted instruction.
         */

        eret
 80000f8:	ef80083a 	eret

080000fc <alt_irq_handler>:
 * instruction is present if the macro ALT_CI_INTERRUPT_VECTOR defined.
 */

void alt_irq_handler (void) __attribute__ ((section (".exceptions")));
void alt_irq_handler (void)
{
 80000fc:	defff904 	addi	sp,sp,-28
 8000100:	dfc00615 	stw	ra,24(sp)
 8000104:	df000515 	stw	fp,20(sp)
 8000108:	df000504 	addi	fp,sp,20
  
  /*
   * Notify the operating system that we are at interrupt level.
   */ 
  
  ALT_OS_INT_ENTER();
 800010c:	0001883a 	nop
#ifndef NIOS2_EIC_PRESENT
static ALT_INLINE alt_u32 ALT_ALWAYS_INLINE alt_irq_pending (void)
{
  alt_u32 active;

  NIOS2_READ_IPENDING (active);
 8000110:	0005313a 	rdctl	r2,ipending
 8000114:	e0bffe15 	stw	r2,-8(fp)

  return active;
 8000118:	e0bffe17 	ldw	r2,-8(fp)
   * Consider the case where the high priority interupt is asserted during
   * the interrupt entry sequence for a lower priority interrupt to see why
   * this is the case.
   */

  active = alt_irq_pending ();
 800011c:	e0bffb15 	stw	r2,-20(fp)

  do
  {
    i = 0;
 8000120:	e03ffd15 	stw	zero,-12(fp)
    mask = 1;
 8000124:	00800044 	movi	r2,1
 8000128:	e0bffc15 	stw	r2,-16(fp)
     * called to clear the interrupt condition.
     */

    do
    {
      if (active & mask)
 800012c:	e0fffb17 	ldw	r3,-20(fp)
 8000130:	e0bffc17 	ldw	r2,-16(fp)
 8000134:	1884703a 	and	r2,r3,r2
 8000138:	10001426 	beq	r2,zero,800018c <alt_irq_handler+0x90>
      { 
#ifdef ALT_ENHANCED_INTERRUPT_API_PRESENT
        alt_irq[i].handler(alt_irq[i].context); 
 800013c:	00820134 	movhi	r2,2052
 8000140:	10909404 	addi	r2,r2,16976
 8000144:	e0fffd17 	ldw	r3,-12(fp)
 8000148:	180690fa 	slli	r3,r3,3
 800014c:	10c5883a 	add	r2,r2,r3
 8000150:	10c00017 	ldw	r3,0(r2)
 8000154:	00820134 	movhi	r2,2052
 8000158:	10909404 	addi	r2,r2,16976
 800015c:	e13ffd17 	ldw	r4,-12(fp)
 8000160:	200890fa 	slli	r4,r4,3
 8000164:	1105883a 	add	r2,r2,r4
 8000168:	10800104 	addi	r2,r2,4
 800016c:	10800017 	ldw	r2,0(r2)
 8000170:	1009883a 	mov	r4,r2
 8000174:	183ee83a 	callr	r3
#else
        alt_irq[i].handler(alt_irq[i].context, i); 
#endif
        break;
 8000178:	0001883a 	nop
#ifndef NIOS2_EIC_PRESENT
static ALT_INLINE alt_u32 ALT_ALWAYS_INLINE alt_irq_pending (void)
{
  alt_u32 active;

  NIOS2_READ_IPENDING (active);
 800017c:	0005313a 	rdctl	r2,ipending
 8000180:	e0bfff15 	stw	r2,-4(fp)

  return active;
 8000184:	e0bfff17 	ldw	r2,-4(fp)
 8000188:	00000706 	br	80001a8 <alt_irq_handler+0xac>
      }
      mask <<= 1;
 800018c:	e0bffc17 	ldw	r2,-16(fp)
 8000190:	1085883a 	add	r2,r2,r2
 8000194:	e0bffc15 	stw	r2,-16(fp)
      i++;
 8000198:	e0bffd17 	ldw	r2,-12(fp)
 800019c:	10800044 	addi	r2,r2,1
 80001a0:	e0bffd15 	stw	r2,-12(fp)

    } while (1);
 80001a4:	003fe106 	br	800012c <alt_irq_handler+0x30>

    active = alt_irq_pending ();
 80001a8:	e0bffb15 	stw	r2,-20(fp)
    
  } while (active);
 80001ac:	e0bffb17 	ldw	r2,-20(fp)
 80001b0:	103fdb1e 	bne	r2,zero,8000120 <alt_irq_handler+0x24>

  /*
   * Notify the operating system that interrupt processing is complete.
   */ 

  ALT_OS_INT_EXIT();
 80001b4:	0001883a 	nop
}
 80001b8:	0001883a 	nop
 80001bc:	e037883a 	mov	sp,fp
 80001c0:	dfc00117 	ldw	ra,4(sp)
 80001c4:	df000017 	ldw	fp,0(sp)
 80001c8:	dec00204 	addi	sp,sp,8
 80001cc:	f800283a 	ret

080001d0 <alt_instruction_exception_entry>:
 * that handler if it has been registered. Absent a handler, it will
 * break break or hang as discussed below.
 */
int 
alt_instruction_exception_entry (alt_u32 exception_pc)
{
 80001d0:	defffb04 	addi	sp,sp,-20
 80001d4:	dfc00415 	stw	ra,16(sp)
 80001d8:	df000315 	stw	fp,12(sp)
 80001dc:	df000304 	addi	fp,sp,12
 80001e0:	e13fff15 	stw	r4,-4(fp)
 * NIOS2_EXCEPTION_CAUSE_NOT_PRESENT. Your handling routine should
 * check the validity of the cause argument before proceeding.
 */
#ifdef NIOS2_HAS_EXTRA_EXCEPTION_INFO
  /* Get exception cause & "badaddr" */
  NIOS2_READ_EXCEPTION(cause);
 80001e4:	000531fa 	rdctl	r2,exception
 80001e8:	e0bffd15 	stw	r2,-12(fp)
  cause = ( (cause & NIOS2_EXCEPTION_REG_CAUSE_MASK) >>
 80001ec:	e0bffd17 	ldw	r2,-12(fp)
 80001f0:	10801f0c 	andi	r2,r2,124
 80001f4:	1004d0ba 	srli	r2,r2,2
 80001f8:	e0bffd15 	stw	r2,-12(fp)
              NIOS2_EXCEPTION_REG_CAUSE_OFST );

  NIOS2_READ_BADADDR(badaddr);
 80001fc:	0005333a 	rdctl	r2,badaddr
 8000200:	e0bffe15 	stw	r2,-8(fp)
#else
  cause = NIOS2_EXCEPTION_CAUSE_NOT_PRESENT;
  badaddr = 0;
#endif /* NIOS2_HAS_EXTRA_EXCEPTION_INFO */

  if(alt_instruction_exception_handler) {
 8000204:	d0a6ed17 	ldw	r2,-25676(gp)
 8000208:	10000726 	beq	r2,zero,8000228 <alt_instruction_exception_entry+0x58>
     * Call handler. Its return value indicates whether the exception-causing
     * instruction should be re-issued. The code that called us,
     * alt_eceptions_entry.S, will look at this value and adjust the ea
     * register as necessary
     */
    return alt_instruction_exception_handler(cause, exception_pc, badaddr);
 800020c:	d0a6ed17 	ldw	r2,-25676(gp)
 8000210:	e0fffd17 	ldw	r3,-12(fp)
 8000214:	e1bffe17 	ldw	r6,-8(fp)
 8000218:	e17fff17 	ldw	r5,-4(fp)
 800021c:	1809883a 	mov	r4,r3
 8000220:	103ee83a 	callr	r2
 8000224:	00000206 	br	8000230 <alt_instruction_exception_entry+0x60>
   *    (a peripheral which negates its interrupt output before its
   *    interrupt handler has been executed will cause spurious interrupts)
   */
  else {
#ifdef NIOS2_HAS_DEBUG_STUB
    NIOS2_BREAK();
 8000228:	003da03a 	break	0
      ;
#endif /* NIOS2_HAS_DEBUG_STUB */
  }

  /* We should not get here. Remove compiler warning. */
  return NIOS2_EXCEPTION_RETURN_REISSUE_INST;
 800022c:	0005883a 	mov	r2,zero
}
 8000230:	e037883a 	mov	sp,fp
 8000234:	dfc00117 	ldw	ra,4(sp)
 8000238:	df000017 	ldw	fp,0(sp)
 800023c:	dec00204 	addi	sp,sp,8
 8000240:	f800283a 	ret

Disassembly of section .text:

08000244 <_start>:

    /* Assume the data cache size is always a power of two. */
#if NIOS2_DCACHE_SIZE > 0x8000
    movhi r2, %hi(NIOS2_DCACHE_SIZE)
#else
    movui r2, NIOS2_DCACHE_SIZE
 8000244:	00820014 	movui	r2,2048
#endif

0:
    initd 0(r2)
 8000248:	10000033 	initd	0(r2)
#ifdef NIOS2_ECC_PRESENT
    addi r2, r2, -4
#else
    addi r2, r2, -NIOS2_DCACHE_LINE_SIZE
 800024c:	10bff804 	addi	r2,r2,-32
#endif
    bgt r2, zero, 0b
 8000250:	00bffd16 	blt	zero,r2,8000248 <_start+0x4>

    /*
     * Now that the caches are initialized, set up the stack pointer and global pointer.
     * The values provided by the linker are assumed to be correctly aligned.
     */
    movhi sp, %hi(__alt_stack_pointer)
 8000254:	06c40034 	movhi	sp,4096
    ori sp, sp, %lo(__alt_stack_pointer)
 8000258:	dec00014 	ori	sp,sp,0
    movhi gp, %hi(_gp)
 800025c:	06820134 	movhi	gp,2052
    ori gp, gp, %lo(_gp)
 8000260:	d6a99b14 	ori	gp,gp,42604
 */
#ifndef ALT_SIM_OPTIMIZE
    /* Log that the BSS is about to be cleared. */
    ALT_LOG_PUTS(alt_log_msg_bss)

    movhi r2, %hi(__bss_start)
 8000264:	00820134 	movhi	r2,2052
    ori r2, r2, %lo(__bss_start)
 8000268:	10907c14 	ori	r2,r2,16880

    movhi r3, %hi(__bss_end)
 800026c:	00c20134 	movhi	r3,2052
    ori r3, r3, %lo(__bss_end)
 8000270:	18d0d414 	ori	r3,r3,17232

    beq r2, r3, 1f
 8000274:	10c00326 	beq	r2,r3,8000284 <_start+0x40>

0:
    stw zero, (r2)
 8000278:	10000015 	stw	zero,0(r2)
    addi r2, r2, 4
 800027c:	10800104 	addi	r2,r2,4
    bltu r2, r3, 0b
 8000280:	10fffd36 	bltu	r2,r3,8000278 <_start+0x34>
     * section aren't defined until alt_load() has been called).
     */
    mov   et, zero
#endif

    call alt_load
 8000284:	80050500 	call	8005050 <alt_load>

    /* Log that alt_main is about to be called. */
    ALT_LOG_PUTS(alt_log_msg_alt_main)

    /* Call the C entry point. It should never return. */
    call alt_main
 8000288:	80051e40 	call	80051e4 <alt_main>

0800028c <alt_after_alt_main>:

    /* Wait in infinite loop in case alt_main does return. */
alt_after_alt_main:
    br alt_after_alt_main
 800028c:	003fff06 	br	800028c <alt_after_alt_main>

08000290 <measuringFrameRate>:
#include <math.h>
#include <stdlib.h>
#include <sys/alt_alarm.h>
#include "myfile.h"

void measuringFrameRate() {
 8000290:	defffc04 	addi	sp,sp,-16
 8000294:	df000315 	stw	fp,12(sp)
 8000298:	df000304 	addi	fp,sp,12
 * Obtain the system clock rate in ticks/s. 
 */

static ALT_INLINE alt_u32 ALT_ALWAYS_INLINE alt_ticks_per_second (void)
{
  return _alt_tick_rate;
 800029c:	d0a6ea17 	ldw	r2,-25688(gp)
  alt_u32 ticks_per_second = alt_ticks_per_second();
 80002a0:	e0bffd15 	stw	r2,-12(fp)
  alt_u32 current_tick = 0, prev_tick = alt_nticks();
 80002a4:	e03ffe15 	stw	zero,-8(fp)
 * alt_nticks() returns the elapsed number of system clock ticks since reset.
 */

static ALT_INLINE alt_u32 ALT_ALWAYS_INLINE alt_nticks (void)
{
  return _alt_nticks;
 80002a8:	d0a6eb17 	ldw	r2,-25684(gp)
 80002ac:	e0bfff15 	stw	r2,-4(fp)
}
 80002b0:	0001883a 	nop
 80002b4:	e037883a 	mov	sp,fp
 80002b8:	df000017 	ldw	fp,0(sp)
 80002bc:	dec00104 	addi	sp,sp,4
 80002c0:	f800283a 	ret

080002c4 <displayFrameRate>:
void displayFrameRate(alt_up_char_buffer_dev *char_buf) {
 80002c4:	defffd04 	addi	sp,sp,-12
 80002c8:	dfc00215 	stw	ra,8(sp)
 80002cc:	df000115 	stw	fp,4(sp)
 80002d0:	df000104 	addi	fp,sp,4
 80002d4:	e13fff15 	stw	r4,-4(fp)
  char_buf = alt_up_char_buffer_open_dev("/dev/video_character_buffer_with_dma_0");
 80002d8:	01020074 	movhi	r4,2049
 80002dc:	21218904 	addi	r4,r4,-31196
 80002e0:	80066c00 	call	80066c0 <alt_up_char_buffer_open_dev>
 80002e4:	e0bfff15 	stw	r2,-4(fp)
  if (!char_buf) printf("error opening character buffer\n");
 80002e8:	e0bfff17 	ldw	r2,-4(fp)
 80002ec:	1000031e 	bne	r2,zero,80002fc <displayFrameRate+0x38>
 80002f0:	01020074 	movhi	r4,2049
 80002f4:	21219304 	addi	r4,r4,-31156
 80002f8:	80004f80 	call	80004f8 <puts>
  alt_up_char_buffer_clear(char_buf);
 80002fc:	e13fff17 	ldw	r4,-4(fp)
 8000300:	80068c40 	call	80068c4 <alt_up_char_buffer_clear>
  alt_up_char_buffer_string(char_buf, "Video Works", 35, 50);
 8000304:	01c00c84 	movi	r7,50
 8000308:	018008c4 	movi	r6,35
 800030c:	01420074 	movhi	r5,2049
 8000310:	29619b04 	addi	r5,r5,-31124
 8000314:	e13fff17 	ldw	r4,-4(fp)
 8000318:	80067c80 	call	80067c8 <alt_up_char_buffer_string>
}
 800031c:	0001883a 	nop
 8000320:	e037883a 	mov	sp,fp
 8000324:	dfc00117 	ldw	ra,4(sp)
 8000328:	df000017 	ldw	fp,0(sp)
 800032c:	dec00204 	addi	sp,sp,8
 8000330:	f800283a 	ret

08000334 <displayImage>:

void displayImage (alt_u8 *image_array, int screen_width, int screen_height) {
 8000334:	defff804 	addi	sp,sp,-32
 8000338:	dfc00715 	stw	ra,28(sp)
 800033c:	df000615 	stw	fp,24(sp)
 8000340:	df000604 	addi	fp,sp,24
 8000344:	e13ffd15 	stw	r4,-12(fp)
 8000348:	e17ffe15 	stw	r5,-8(fp)
 800034c:	e1bfff15 	stw	r6,-4(fp)
  alt_up_pixel_buffer_dma_dev *pix_buf;
  pix_buf = alt_up_pixel_buffer_dma_open_dev("/dev/video_pixel_buffer_dma_0");
 8000350:	01020074 	movhi	r4,2049
 8000354:	21219e04 	addi	r4,r4,-31112
 8000358:	80069200 	call	8006920 <alt_up_pixel_buffer_dma_open_dev>
 800035c:	e0bffa15 	stw	r2,-24(fp)
  alt_up_pixel_buffer_dma_clear_screen(pix_buf, 0);
 8000360:	000b883a 	mov	r5,zero
 8000364:	e13ffa17 	ldw	r4,-24(fp)
 8000368:	8006be00 	call	8006be0 <alt_up_pixel_buffer_dma_clear_screen>
       (myimage[(i*screen_height+j)*3+2]), j, i);
    }
  }*/
  
  // Attempting to rotate the image 30 degrees. This is not working at the moment
  float c = 1.1;
 800036c:	008fe374 	movhi	r2,16269
 8000370:	10b33344 	addi	r2,r2,-13107
 8000374:	e0bffb15 	stw	r2,-20(fp)
  float r = 2.2;
 8000378:	00900374 	movhi	r2,16397
 800037c:	10b33344 	addi	r2,r2,-13107
 8000380:	e0bffc15 	stw	r2,-16(fp)
       (myimage[(i*screen_height+j)*3+2]), (int)c, (int)r);
    }
  }*/
  
  
}
 8000384:	0001883a 	nop
 8000388:	e037883a 	mov	sp,fp
 800038c:	dfc00117 	ldw	ra,4(sp)
 8000390:	df000017 	ldw	fp,0(sp)
 8000394:	dec00204 	addi	sp,sp,8
 8000398:	f800283a 	ret

0800039c <main>:

int main() {  
 800039c:	defffd04 	addi	sp,sp,-12
 80003a0:	dfc00215 	stw	ra,8(sp)
 80003a4:	df000115 	stw	fp,4(sp)
 80003a8:	df000104 	addi	fp,sp,4
  myimage[230401];
  alt_up_char_buffer_dev *char_buf;
  displayImage(myimage, 480, 320);
 80003ac:	01805004 	movi	r6,320
 80003b0:	01407804 	movi	r5,480
 80003b4:	01020074 	movhi	r4,2049
 80003b8:	2121a584 	addi	r4,r4,-31082
 80003bc:	80003340 	call	8000334 <displayImage>
  displayFrameRate(char_buf);
 80003c0:	e13fff17 	ldw	r4,-4(fp)
 80003c4:	80002c40 	call	80002c4 <displayFrameRate>
    
  return 0;
 80003c8:	0005883a 	mov	r2,zero
}
 80003cc:	e037883a 	mov	sp,fp
 80003d0:	dfc00117 	ldw	ra,4(sp)
 80003d4:	df000017 	ldw	fp,0(sp)
 80003d8:	dec00204 	addi	sp,sp,8
 80003dc:	f800283a 	ret

080003e0 <_puts_r>:

int
_DEFUN(_puts_r, (ptr, s),
       struct _reent *ptr _AND
       _CONST char * s)
{
 80003e0:	defff104 	addi	sp,sp,-60
 80003e4:	dfc00e15 	stw	ra,56(sp)
 80003e8:	df000d15 	stw	fp,52(sp)
 80003ec:	df000d04 	addi	fp,sp,52
 80003f0:	e13ffe15 	stw	r4,-8(fp)
 80003f4:	e17fff15 	stw	r5,-4(fp)
#ifdef _FVWRITE_IN_STREAMIO
  int result;
  size_t c = strlen (s);
 80003f8:	e13fff17 	ldw	r4,-4(fp)
 80003fc:	80005300 	call	8000530 <strlen>
 8000400:	e0bff315 	stw	r2,-52(fp)
  struct __suio uio;
  struct __siov iov[2];
  FILE *fp;

  iov[0].iov_base = s;
 8000404:	e0bfff17 	ldw	r2,-4(fp)
 8000408:	e0bffa15 	stw	r2,-24(fp)
  iov[0].iov_len = c;
 800040c:	e0bff317 	ldw	r2,-52(fp)
 8000410:	e0bffb15 	stw	r2,-20(fp)
  iov[1].iov_base = "\n";
 8000414:	00820134 	movhi	r2,2052
 8000418:	1082a604 	addi	r2,r2,2712
 800041c:	e0bffc15 	stw	r2,-16(fp)
  iov[1].iov_len = 1;
 8000420:	00800044 	movi	r2,1
 8000424:	e0bffd15 	stw	r2,-12(fp)
  uio.uio_resid = c + 1;
 8000428:	e0bff317 	ldw	r2,-52(fp)
 800042c:	10800044 	addi	r2,r2,1
 8000430:	e0bff915 	stw	r2,-28(fp)
  uio.uio_iov = &iov[0];
 8000434:	e0bffa04 	addi	r2,fp,-24
 8000438:	e0bff715 	stw	r2,-36(fp)
  uio.uio_iovcnt = 2;
 800043c:	00800084 	movi	r2,2
 8000440:	e0bff815 	stw	r2,-32(fp)

  CHECK_STD_INIT (ptr);
 8000444:	e0bffe17 	ldw	r2,-8(fp)
 8000448:	e0bff415 	stw	r2,-48(fp)
 800044c:	e0bff417 	ldw	r2,-48(fp)
 8000450:	10000526 	beq	r2,zero,8000468 <_puts_r+0x88>
 8000454:	e0bff417 	ldw	r2,-48(fp)
 8000458:	10800e17 	ldw	r2,56(r2)
 800045c:	1000021e 	bne	r2,zero,8000468 <_puts_r+0x88>
 8000460:	e13ff417 	ldw	r4,-48(fp)
 8000464:	80009c80 	call	80009c8 <__sinit>
  fp = _stdout_r (ptr);
 8000468:	e0bffe17 	ldw	r2,-8(fp)
 800046c:	10800217 	ldw	r2,8(r2)
 8000470:	e0bff515 	stw	r2,-44(fp)
  _newlib_flockfile_start (fp);
  ORIENT (fp, -1);
 8000474:	e0bff517 	ldw	r2,-44(fp)
 8000478:	1080030b 	ldhu	r2,12(r2)
 800047c:	10bfffcc 	andi	r2,r2,65535
 8000480:	1088000c 	andi	r2,r2,8192
 8000484:	10000c1e 	bne	r2,zero,80004b8 <_puts_r+0xd8>
 8000488:	e0bff517 	ldw	r2,-44(fp)
 800048c:	1080030b 	ldhu	r2,12(r2)
 8000490:	10880014 	ori	r2,r2,8192
 8000494:	1007883a 	mov	r3,r2
 8000498:	e0bff517 	ldw	r2,-44(fp)
 800049c:	10c0030d 	sth	r3,12(r2)
 80004a0:	e0bff517 	ldw	r2,-44(fp)
 80004a4:	10c01917 	ldw	r3,100(r2)
 80004a8:	00b7ffc4 	movi	r2,-8193
 80004ac:	1886703a 	and	r3,r3,r2
 80004b0:	e0bff517 	ldw	r2,-44(fp)
 80004b4:	10c01915 	stw	r3,100(r2)
  result = (__sfvwrite_r (ptr, fp, &uio) ? EOF : '\n');
 80004b8:	e0bff704 	addi	r2,fp,-36
 80004bc:	100d883a 	mov	r6,r2
 80004c0:	e17ff517 	ldw	r5,-44(fp)
 80004c4:	e13ffe17 	ldw	r4,-8(fp)
 80004c8:	8000be80 	call	8000be8 <__sfvwrite_r>
 80004cc:	10000226 	beq	r2,zero,80004d8 <_puts_r+0xf8>
 80004d0:	00bfffc4 	movi	r2,-1
 80004d4:	00000106 	br	80004dc <_puts_r+0xfc>
 80004d8:	00800284 	movi	r2,10
 80004dc:	e0bff615 	stw	r2,-40(fp)
  _newlib_flockfile_end (fp);
  return result;
 80004e0:	e0bff617 	ldw	r2,-40(fp)

err:
  _newlib_flockfile_end (fp);
  return result;
#endif
}
 80004e4:	e037883a 	mov	sp,fp
 80004e8:	dfc00117 	ldw	ra,4(sp)
 80004ec:	df000017 	ldw	fp,0(sp)
 80004f0:	dec00204 	addi	sp,sp,8
 80004f4:	f800283a 	ret

080004f8 <puts>:
#ifndef _REENT_ONLY

int
_DEFUN(puts, (s),
       char _CONST * s)
{
 80004f8:	defffd04 	addi	sp,sp,-12
 80004fc:	dfc00215 	stw	ra,8(sp)
 8000500:	df000115 	stw	fp,4(sp)
 8000504:	df000104 	addi	fp,sp,4
 8000508:	e13fff15 	stw	r4,-4(fp)
  return _puts_r (_REENT, s);
 800050c:	d0a00017 	ldw	r2,-32768(gp)
 8000510:	e17fff17 	ldw	r5,-4(fp)
 8000514:	1009883a 	mov	r4,r2
 8000518:	80003e00 	call	80003e0 <_puts_r>
}
 800051c:	e037883a 	mov	sp,fp
 8000520:	dfc00117 	ldw	ra,4(sp)
 8000524:	df000017 	ldw	fp,0(sp)
 8000528:	dec00204 	addi	sp,sp,8
 800052c:	f800283a 	ret

08000530 <strlen>:
#endif

size_t
_DEFUN (strlen, (str),
	_CONST char *str)
{
 8000530:	defffc04 	addi	sp,sp,-16
 8000534:	df000315 	stw	fp,12(sp)
 8000538:	df000304 	addi	fp,sp,12
 800053c:	e13fff15 	stw	r4,-4(fp)
  _CONST char *start = str;
 8000540:	e0bfff17 	ldw	r2,-4(fp)
 8000544:	e0bffe15 	stw	r2,-8(fp)

#if !defined(PREFER_SIZE_OVER_SPEED) && !defined(__OPTIMIZE_SIZE__)
  unsigned long *aligned_addr;

  /* Align the pointer, so we can search a word at a time.  */
  while (UNALIGNED (str))
 8000548:	00000d06 	br	8000580 <strlen+0x50>
    {
      if (!*str)
 800054c:	e0bfff17 	ldw	r2,-4(fp)
 8000550:	10800003 	ldbu	r2,0(r2)
 8000554:	10803fcc 	andi	r2,r2,255
 8000558:	1080201c 	xori	r2,r2,128
 800055c:	10bfe004 	addi	r2,r2,-128
 8000560:	1000041e 	bne	r2,zero,8000574 <strlen+0x44>
	return str - start;
 8000564:	e0ffff17 	ldw	r3,-4(fp)
 8000568:	e0bffe17 	ldw	r2,-8(fp)
 800056c:	1885c83a 	sub	r2,r3,r2
 8000570:	00002806 	br	8000614 <strlen+0xe4>
      str++;
 8000574:	e0bfff17 	ldw	r2,-4(fp)
 8000578:	10800044 	addi	r2,r2,1
 800057c:	e0bfff15 	stw	r2,-4(fp)

#if !defined(PREFER_SIZE_OVER_SPEED) && !defined(__OPTIMIZE_SIZE__)
  unsigned long *aligned_addr;

  /* Align the pointer, so we can search a word at a time.  */
  while (UNALIGNED (str))
 8000580:	e0bfff17 	ldw	r2,-4(fp)
 8000584:	108000cc 	andi	r2,r2,3
 8000588:	103ff01e 	bne	r2,zero,800054c <strlen+0x1c>
      str++;
    }

  /* If the string is word-aligned, we can check for the presence of
     a null in each word-sized block.  */
  aligned_addr = (unsigned long *)str;
 800058c:	e0bfff17 	ldw	r2,-4(fp)
 8000590:	e0bffd15 	stw	r2,-12(fp)
  while (!DETECTNULL (*aligned_addr))
 8000594:	00000306 	br	80005a4 <strlen+0x74>
    aligned_addr++;
 8000598:	e0bffd17 	ldw	r2,-12(fp)
 800059c:	10800104 	addi	r2,r2,4
 80005a0:	e0bffd15 	stw	r2,-12(fp)
    }

  /* If the string is word-aligned, we can check for the presence of
     a null in each word-sized block.  */
  aligned_addr = (unsigned long *)str;
  while (!DETECTNULL (*aligned_addr))
 80005a4:	e0bffd17 	ldw	r2,-12(fp)
 80005a8:	10c00017 	ldw	r3,0(r2)
 80005ac:	00bfbff4 	movhi	r2,65279
 80005b0:	10bfbfc4 	addi	r2,r2,-257
 80005b4:	1887883a 	add	r3,r3,r2
 80005b8:	e0bffd17 	ldw	r2,-12(fp)
 80005bc:	10800017 	ldw	r2,0(r2)
 80005c0:	0084303a 	nor	r2,zero,r2
 80005c4:	1886703a 	and	r3,r3,r2
 80005c8:	00a02074 	movhi	r2,32897
 80005cc:	10a02004 	addi	r2,r2,-32640
 80005d0:	1884703a 	and	r2,r3,r2
 80005d4:	103ff026 	beq	r2,zero,8000598 <strlen+0x68>
    aligned_addr++;

  /* Once a null is detected, we check each byte in that block for a
     precise position of the null.  */
  str = (char *) aligned_addr;
 80005d8:	e0bffd17 	ldw	r2,-12(fp)
 80005dc:	e0bfff15 	stw	r2,-4(fp)

#endif /* not PREFER_SIZE_OVER_SPEED */

  while (*str)
 80005e0:	00000306 	br	80005f0 <strlen+0xc0>
    str++;
 80005e4:	e0bfff17 	ldw	r2,-4(fp)
 80005e8:	10800044 	addi	r2,r2,1
 80005ec:	e0bfff15 	stw	r2,-4(fp)
     precise position of the null.  */
  str = (char *) aligned_addr;

#endif /* not PREFER_SIZE_OVER_SPEED */

  while (*str)
 80005f0:	e0bfff17 	ldw	r2,-4(fp)
 80005f4:	10800003 	ldbu	r2,0(r2)
 80005f8:	10803fcc 	andi	r2,r2,255
 80005fc:	1080201c 	xori	r2,r2,128
 8000600:	10bfe004 	addi	r2,r2,-128
 8000604:	103ff71e 	bne	r2,zero,80005e4 <strlen+0xb4>
    str++;
  return str - start;
 8000608:	e0ffff17 	ldw	r3,-4(fp)
 800060c:	e0bffe17 	ldw	r2,-8(fp)
 8000610:	1885c83a 	sub	r2,r3,r2
}
 8000614:	e037883a 	mov	sp,fp
 8000618:	df000017 	ldw	fp,0(sp)
 800061c:	dec00104 	addi	sp,sp,4
 8000620:	f800283a 	ret

08000624 <std>:
_DEFUN(std, (ptr, flags, file, data),
            FILE *ptr _AND
            int flags _AND
            int file  _AND
            struct _reent *data)
{
 8000624:	defffa04 	addi	sp,sp,-24
 8000628:	dfc00515 	stw	ra,20(sp)
 800062c:	df000415 	stw	fp,16(sp)
 8000630:	df000404 	addi	fp,sp,16
 8000634:	e13ffc15 	stw	r4,-16(fp)
 8000638:	e17ffd15 	stw	r5,-12(fp)
 800063c:	e1bffe15 	stw	r6,-8(fp)
 8000640:	e1ffff15 	stw	r7,-4(fp)
  ptr->_p = 0;
 8000644:	e0bffc17 	ldw	r2,-16(fp)
 8000648:	10000015 	stw	zero,0(r2)
  ptr->_r = 0;
 800064c:	e0bffc17 	ldw	r2,-16(fp)
 8000650:	10000115 	stw	zero,4(r2)
  ptr->_w = 0;
 8000654:	e0bffc17 	ldw	r2,-16(fp)
 8000658:	10000215 	stw	zero,8(r2)
  ptr->_flags = flags;
 800065c:	e0bffd17 	ldw	r2,-12(fp)
 8000660:	1007883a 	mov	r3,r2
 8000664:	e0bffc17 	ldw	r2,-16(fp)
 8000668:	10c0030d 	sth	r3,12(r2)
  ptr->_flags2 = 0;
 800066c:	e0bffc17 	ldw	r2,-16(fp)
 8000670:	10001915 	stw	zero,100(r2)
  ptr->_file = file;
 8000674:	e0bffe17 	ldw	r2,-8(fp)
 8000678:	1007883a 	mov	r3,r2
 800067c:	e0bffc17 	ldw	r2,-16(fp)
 8000680:	10c0038d 	sth	r3,14(r2)
  ptr->_bf._base = 0;
 8000684:	e0bffc17 	ldw	r2,-16(fp)
 8000688:	10000415 	stw	zero,16(r2)
  ptr->_bf._size = 0;
 800068c:	e0bffc17 	ldw	r2,-16(fp)
 8000690:	10000515 	stw	zero,20(r2)
  ptr->_lbfsize = 0;
 8000694:	e0bffc17 	ldw	r2,-16(fp)
 8000698:	10000615 	stw	zero,24(r2)
  memset (&ptr->_mbstate, 0, sizeof (_mbstate_t));
 800069c:	e0bffc17 	ldw	r2,-16(fp)
 80006a0:	10801704 	addi	r2,r2,92
 80006a4:	01800204 	movi	r6,8
 80006a8:	000b883a 	mov	r5,zero
 80006ac:	1009883a 	mov	r4,r2
 80006b0:	80027f40 	call	80027f4 <memset>
  ptr->_cookie = ptr;
 80006b4:	e0bffc17 	ldw	r2,-16(fp)
 80006b8:	e0fffc17 	ldw	r3,-16(fp)
 80006bc:	10c00715 	stw	r3,28(r2)
  ptr->_read = __sread;
 80006c0:	e0fffc17 	ldw	r3,-16(fp)
 80006c4:	00820034 	movhi	r2,2048
 80006c8:	108d8204 	addi	r2,r2,13832
 80006cc:	18800815 	stw	r2,32(r3)
#ifndef __LARGE64_FILES
  ptr->_write = __swrite;
 80006d0:	e0fffc17 	ldw	r3,-16(fp)
 80006d4:	00820034 	movhi	r2,2048
 80006d8:	108db504 	addi	r2,r2,14036
 80006dc:	18800915 	stw	r2,36(r3)
#else /* __LARGE64_FILES */
  ptr->_write = __swrite64;
  ptr->_seek64 = __sseek64;
  ptr->_flags |= __SL64;
#endif /* __LARGE64_FILES */
  ptr->_seek = __sseek;
 80006e0:	e0fffc17 	ldw	r3,-16(fp)
 80006e4:	00820034 	movhi	r2,2048
 80006e8:	108de204 	addi	r2,r2,14216
 80006ec:	18800a15 	stw	r2,40(r3)
#ifdef _STDIO_CLOSE_PER_REENT_STD_STREAMS
  ptr->_close = __sclose;
 80006f0:	e0fffc17 	ldw	r3,-16(fp)
 80006f4:	00820034 	movhi	r2,2048
 80006f8:	108e0a04 	addi	r2,r2,14376
 80006fc:	18800b15 	stw	r2,44(r3)

#ifdef __SCLE
  if (__stextmode (ptr->_file))
    ptr->_flags |= __SCLE;
#endif
}
 8000700:	0001883a 	nop
 8000704:	e037883a 	mov	sp,fp
 8000708:	dfc00117 	ldw	ra,4(sp)
 800070c:	df000017 	ldw	fp,0(sp)
 8000710:	dec00204 	addi	sp,sp,8
 8000714:	f800283a 	ret

08000718 <__sfmoreglue>:

struct _glue *
_DEFUN(__sfmoreglue, (d, n),
       struct _reent *d _AND
       register int n)
{
 8000718:	defffb04 	addi	sp,sp,-20
 800071c:	dfc00415 	stw	ra,16(sp)
 8000720:	df000315 	stw	fp,12(sp)
 8000724:	dc000215 	stw	r16,8(sp)
 8000728:	df000304 	addi	fp,sp,12
 800072c:	e13ffe15 	stw	r4,-8(fp)
 8000730:	2821883a 	mov	r16,r5
  struct glue_with_file *g;

  g = (struct glue_with_file *)
    _malloc_r (d, sizeof (*g) + (n - 1) * sizeof (FILE));
 8000734:	80bfffc4 	addi	r2,r16,-1
 8000738:	10801a24 	muli	r2,r2,104
 800073c:	10801d04 	addi	r2,r2,116
       struct _reent *d _AND
       register int n)
{
  struct glue_with_file *g;

  g = (struct glue_with_file *)
 8000740:	100b883a 	mov	r5,r2
 8000744:	e13ffe17 	ldw	r4,-8(fp)
 8000748:	800172c0 	call	800172c <_malloc_r>
 800074c:	e0bffd15 	stw	r2,-12(fp)
    _malloc_r (d, sizeof (*g) + (n - 1) * sizeof (FILE));
  if (g == NULL)
 8000750:	e0bffd17 	ldw	r2,-12(fp)
 8000754:	1000021e 	bne	r2,zero,8000760 <__sfmoreglue+0x48>
    return NULL;
 8000758:	0005883a 	mov	r2,zero
 800075c:	00001106 	br	80007a4 <__sfmoreglue+0x8c>
  g->glue._next = NULL;
 8000760:	e0bffd17 	ldw	r2,-12(fp)
 8000764:	10000015 	stw	zero,0(r2)
  g->glue._niobs = n;
 8000768:	e0bffd17 	ldw	r2,-12(fp)
 800076c:	14000115 	stw	r16,4(r2)
  g->glue._iobs = &g->file;
 8000770:	e0bffd17 	ldw	r2,-12(fp)
 8000774:	10c00304 	addi	r3,r2,12
 8000778:	e0bffd17 	ldw	r2,-12(fp)
 800077c:	10c00215 	stw	r3,8(r2)
  memset (&g->file, 0, n * sizeof (FILE));
 8000780:	e0bffd17 	ldw	r2,-12(fp)
 8000784:	10800304 	addi	r2,r2,12
 8000788:	8007883a 	mov	r3,r16
 800078c:	18c01a24 	muli	r3,r3,104
 8000790:	180d883a 	mov	r6,r3
 8000794:	000b883a 	mov	r5,zero
 8000798:	1009883a 	mov	r4,r2
 800079c:	80027f40 	call	80027f4 <memset>
  return &g->glue;
 80007a0:	e0bffd17 	ldw	r2,-12(fp)
}
 80007a4:	e6ffff04 	addi	sp,fp,-4
 80007a8:	dfc00217 	ldw	ra,8(sp)
 80007ac:	df000117 	ldw	fp,4(sp)
 80007b0:	dc000017 	ldw	r16,0(sp)
 80007b4:	dec00304 	addi	sp,sp,12
 80007b8:	f800283a 	ret

080007bc <__sfp>:
 */

FILE *
_DEFUN(__sfp, (d),
       struct _reent *d)
{
 80007bc:	defffa04 	addi	sp,sp,-24
 80007c0:	dfc00515 	stw	ra,20(sp)
 80007c4:	df000415 	stw	fp,16(sp)
 80007c8:	df000404 	addi	fp,sp,16
 80007cc:	e13fff15 	stw	r4,-4(fp)
  FILE *fp;
  int n;
  struct _glue *g;

  _newlib_sfp_lock_start ();
 80007d0:	8000aa00 	call	8000aa0 <__sfp_lock_acquire>

  if (!_GLOBAL_REENT->__sdidinit)
 80007d4:	d0a00117 	ldw	r2,-32764(gp)
 80007d8:	10800e17 	ldw	r2,56(r2)
 80007dc:	1000031e 	bne	r2,zero,80007ec <__sfp+0x30>
    __sinit (_GLOBAL_REENT);
 80007e0:	d0a00117 	ldw	r2,-32764(gp)
 80007e4:	1009883a 	mov	r4,r2
 80007e8:	80009c80 	call	80009c8 <__sinit>
  for (g = &_GLOBAL_REENT->__sglue;; g = g->_next)
 80007ec:	d0a00117 	ldw	r2,-32764(gp)
 80007f0:	1080b804 	addi	r2,r2,736
 80007f4:	e0bffe15 	stw	r2,-8(fp)
    {
      for (fp = g->_iobs, n = g->_niobs; --n >= 0; fp++)
 80007f8:	e0bffe17 	ldw	r2,-8(fp)
 80007fc:	10800217 	ldw	r2,8(r2)
 8000800:	e0bffc15 	stw	r2,-16(fp)
 8000804:	e0bffe17 	ldw	r2,-8(fp)
 8000808:	10800117 	ldw	r2,4(r2)
 800080c:	e0bffd15 	stw	r2,-12(fp)
 8000810:	00000906 	br	8000838 <__sfp+0x7c>
	if (fp->_flags == 0)
 8000814:	e0bffc17 	ldw	r2,-16(fp)
 8000818:	1080030b 	ldhu	r2,12(r2)
 800081c:	10bfffcc 	andi	r2,r2,65535
 8000820:	10a0001c 	xori	r2,r2,32768
 8000824:	10a00004 	addi	r2,r2,-32768
 8000828:	10001f26 	beq	r2,zero,80008a8 <__sfp+0xec>

  if (!_GLOBAL_REENT->__sdidinit)
    __sinit (_GLOBAL_REENT);
  for (g = &_GLOBAL_REENT->__sglue;; g = g->_next)
    {
      for (fp = g->_iobs, n = g->_niobs; --n >= 0; fp++)
 800082c:	e0bffc17 	ldw	r2,-16(fp)
 8000830:	10801a04 	addi	r2,r2,104
 8000834:	e0bffc15 	stw	r2,-16(fp)
 8000838:	e0bffd17 	ldw	r2,-12(fp)
 800083c:	10bfffc4 	addi	r2,r2,-1
 8000840:	e0bffd15 	stw	r2,-12(fp)
 8000844:	e0bffd17 	ldw	r2,-12(fp)
 8000848:	103ff20e 	bge	r2,zero,8000814 <__sfp+0x58>
	if (fp->_flags == 0)
	  goto found;
      if (g->_next == NULL &&
 800084c:	e0bffe17 	ldw	r2,-8(fp)
 8000850:	10800017 	ldw	r2,0(r2)
 8000854:	1000091e 	bne	r2,zero,800087c <__sfp+0xc0>
	  (g->_next = __sfmoreglue (d, NDYNAMIC)) == NULL)
 8000858:	01400104 	movi	r5,4
 800085c:	e13fff17 	ldw	r4,-4(fp)
 8000860:	80007180 	call	8000718 <__sfmoreglue>
 8000864:	1007883a 	mov	r3,r2
 8000868:	e0bffe17 	ldw	r2,-8(fp)
 800086c:	10c00015 	stw	r3,0(r2)
 8000870:	e0bffe17 	ldw	r2,-8(fp)
 8000874:	10800017 	ldw	r2,0(r2)
  for (g = &_GLOBAL_REENT->__sglue;; g = g->_next)
    {
      for (fp = g->_iobs, n = g->_niobs; --n >= 0; fp++)
	if (fp->_flags == 0)
	  goto found;
      if (g->_next == NULL &&
 8000878:	10000426 	beq	r2,zero,800088c <__sfp+0xd0>

  _newlib_sfp_lock_start ();

  if (!_GLOBAL_REENT->__sdidinit)
    __sinit (_GLOBAL_REENT);
  for (g = &_GLOBAL_REENT->__sglue;; g = g->_next)
 800087c:	e0bffe17 	ldw	r2,-8(fp)
 8000880:	10800017 	ldw	r2,0(r2)
 8000884:	e0bffe15 	stw	r2,-8(fp)
	if (fp->_flags == 0)
	  goto found;
      if (g->_next == NULL &&
	  (g->_next = __sfmoreglue (d, NDYNAMIC)) == NULL)
	break;
    }
 8000888:	003fdb06 	br	80007f8 <__sfp+0x3c>
      for (fp = g->_iobs, n = g->_niobs; --n >= 0; fp++)
	if (fp->_flags == 0)
	  goto found;
      if (g->_next == NULL &&
	  (g->_next = __sfmoreglue (d, NDYNAMIC)) == NULL)
	break;
 800088c:	0001883a 	nop
    }
  _newlib_sfp_lock_exit ();
 8000890:	8000ac00 	call	8000ac0 <__sfp_lock_release>
  d->_errno = ENOMEM;
 8000894:	e0bfff17 	ldw	r2,-4(fp)
 8000898:	00c00304 	movi	r3,12
 800089c:	10c00015 	stw	r3,0(r2)
  return NULL;
 80008a0:	0005883a 	mov	r2,zero
 80008a4:	00002506 	br	800093c <__sfp+0x180>
    __sinit (_GLOBAL_REENT);
  for (g = &_GLOBAL_REENT->__sglue;; g = g->_next)
    {
      for (fp = g->_iobs, n = g->_niobs; --n >= 0; fp++)
	if (fp->_flags == 0)
	  goto found;
 80008a8:	0001883a 	nop
  _newlib_sfp_lock_exit ();
  d->_errno = ENOMEM;
  return NULL;

found:
  fp->_file = -1;		/* no file */
 80008ac:	e0bffc17 	ldw	r2,-16(fp)
 80008b0:	00ffffc4 	movi	r3,-1
 80008b4:	10c0038d 	sth	r3,14(r2)
  fp->_flags = 1;		/* reserve this slot; caller sets real flags */
 80008b8:	e0bffc17 	ldw	r2,-16(fp)
 80008bc:	00c00044 	movi	r3,1
 80008c0:	10c0030d 	sth	r3,12(r2)
  fp->_flags2 = 0;
 80008c4:	e0bffc17 	ldw	r2,-16(fp)
 80008c8:	10001915 	stw	zero,100(r2)
#ifndef __SINGLE_THREAD__
  __lock_init_recursive (fp->_lock);
#endif
  _newlib_sfp_lock_end ();
 80008cc:	8000ac00 	call	8000ac0 <__sfp_lock_release>

  fp->_p = NULL;		/* no current pointer */
 80008d0:	e0bffc17 	ldw	r2,-16(fp)
 80008d4:	10000015 	stw	zero,0(r2)
  fp->_w = 0;			/* nothing to read or write */
 80008d8:	e0bffc17 	ldw	r2,-16(fp)
 80008dc:	10000215 	stw	zero,8(r2)
  fp->_r = 0;
 80008e0:	e0bffc17 	ldw	r2,-16(fp)
 80008e4:	10000115 	stw	zero,4(r2)
  fp->_bf._base = NULL;		/* no buffer */
 80008e8:	e0bffc17 	ldw	r2,-16(fp)
 80008ec:	10000415 	stw	zero,16(r2)
  fp->_bf._size = 0;
 80008f0:	e0bffc17 	ldw	r2,-16(fp)
 80008f4:	10000515 	stw	zero,20(r2)
  fp->_lbfsize = 0;		/* not line buffered */
 80008f8:	e0bffc17 	ldw	r2,-16(fp)
 80008fc:	10000615 	stw	zero,24(r2)
  memset (&fp->_mbstate, 0, sizeof (_mbstate_t));
 8000900:	e0bffc17 	ldw	r2,-16(fp)
 8000904:	10801704 	addi	r2,r2,92
 8000908:	01800204 	movi	r6,8
 800090c:	000b883a 	mov	r5,zero
 8000910:	1009883a 	mov	r4,r2
 8000914:	80027f40 	call	80027f4 <memset>
  /* fp->_cookie = <any>; */	/* caller sets cookie, _read/_write etc */
  fp->_ub._base = NULL;		/* no ungetc buffer */
 8000918:	e0bffc17 	ldw	r2,-16(fp)
 800091c:	10000c15 	stw	zero,48(r2)
  fp->_ub._size = 0;
 8000920:	e0bffc17 	ldw	r2,-16(fp)
 8000924:	10000d15 	stw	zero,52(r2)
  fp->_lb._base = NULL;		/* no line buffer */
 8000928:	e0bffc17 	ldw	r2,-16(fp)
 800092c:	10001115 	stw	zero,68(r2)
  fp->_lb._size = 0;
 8000930:	e0bffc17 	ldw	r2,-16(fp)
 8000934:	10001215 	stw	zero,72(r2)

  return fp;
 8000938:	e0bffc17 	ldw	r2,-16(fp)
}
 800093c:	e037883a 	mov	sp,fp
 8000940:	dfc00117 	ldw	ra,4(sp)
 8000944:	df000017 	ldw	fp,0(sp)
 8000948:	dec00204 	addi	sp,sp,8
 800094c:	f800283a 	ret

08000950 <_cleanup_r>:
 */

_VOID
_DEFUN(_cleanup_r, (ptr),
       struct _reent *ptr)
{
 8000950:	defffc04 	addi	sp,sp,-16
 8000954:	dfc00315 	stw	ra,12(sp)
 8000958:	df000215 	stw	fp,8(sp)
 800095c:	df000204 	addi	fp,sp,8
 8000960:	e13fff15 	stw	r4,-4(fp)
  /* Otherwise close files and flush read streams, too.
     Note we call flush directly if "--enable-lite-exit" is in effect.  */
#ifdef _LITE_EXIT
  cleanup_func = _fflush_r;
#else
  cleanup_func = _fclose_r;
 8000964:	00820034 	movhi	r2,2048
 8000968:	108ebb04 	addi	r2,r2,15084
 800096c:	e0bffe15 	stw	r2,-8(fp)
#endif
#endif
  _CAST_VOID _fwalk_reent (ptr, cleanup_func);
 8000970:	e17ffe17 	ldw	r5,-8(fp)
 8000974:	e13fff17 	ldw	r4,-4(fp)
 8000978:	800129c0 	call	800129c <_fwalk_reent>
}
 800097c:	0001883a 	nop
 8000980:	e037883a 	mov	sp,fp
 8000984:	dfc00117 	ldw	ra,4(sp)
 8000988:	df000017 	ldw	fp,0(sp)
 800098c:	dec00204 	addi	sp,sp,8
 8000990:	f800283a 	ret

08000994 <_cleanup>:

#ifndef _REENT_ONLY
_VOID
_DEFUN_VOID(_cleanup)
{
 8000994:	defffe04 	addi	sp,sp,-8
 8000998:	dfc00115 	stw	ra,4(sp)
 800099c:	df000015 	stw	fp,0(sp)
 80009a0:	d839883a 	mov	fp,sp
  _cleanup_r (_GLOBAL_REENT);
 80009a4:	d0a00117 	ldw	r2,-32764(gp)
 80009a8:	1009883a 	mov	r4,r2
 80009ac:	80009500 	call	8000950 <_cleanup_r>
}
 80009b0:	0001883a 	nop
 80009b4:	e037883a 	mov	sp,fp
 80009b8:	dfc00117 	ldw	ra,4(sp)
 80009bc:	df000017 	ldw	fp,0(sp)
 80009c0:	dec00204 	addi	sp,sp,8
 80009c4:	f800283a 	ret

080009c8 <__sinit>:
 */

_VOID
_DEFUN(__sinit, (s),
       struct _reent *s)
{
 80009c8:	defffd04 	addi	sp,sp,-12
 80009cc:	dfc00215 	stw	ra,8(sp)
 80009d0:	df000115 	stw	fp,4(sp)
 80009d4:	df000104 	addi	fp,sp,4
 80009d8:	e13fff15 	stw	r4,-4(fp)
  __sinit_lock_acquire ();
 80009dc:	8000ae00 	call	8000ae0 <__sinit_lock_acquire>

  if (s->__sdidinit)
 80009e0:	e0bfff17 	ldw	r2,-4(fp)
 80009e4:	10800e17 	ldw	r2,56(r2)
 80009e8:	10000226 	beq	r2,zero,80009f4 <__sinit+0x2c>
    {
      __sinit_lock_release ();
 80009ec:	8000b000 	call	8000b00 <__sinit_lock_release>
      return;
 80009f0:	00002606 	br	8000a8c <__sinit+0xc4>
    }

  /* make sure we clean up on exit */
  s->__cleanup = _cleanup_r;	/* conservative */
 80009f4:	e0ffff17 	ldw	r3,-4(fp)
 80009f8:	00820034 	movhi	r2,2048
 80009fc:	10825404 	addi	r2,r2,2384
 8000a00:	18800f15 	stw	r2,60(r3)

  s->__sglue._next = NULL;
 8000a04:	e0bfff17 	ldw	r2,-4(fp)
 8000a08:	1000b815 	stw	zero,736(r2)
#ifndef _REENT_SMALL
  s->__sglue._niobs = 3;
 8000a0c:	e0bfff17 	ldw	r2,-4(fp)
 8000a10:	00c000c4 	movi	r3,3
 8000a14:	10c0b915 	stw	r3,740(r2)
  s->__sglue._iobs = &s->__sf[0];
 8000a18:	e0bfff17 	ldw	r2,-4(fp)
 8000a1c:	10c0bb04 	addi	r3,r2,748
 8000a20:	e0bfff17 	ldw	r2,-4(fp)
 8000a24:	10c0ba15 	stw	r3,744(r2)
  s->_stdin = __sfp(s);
  s->_stdout = __sfp(s);
  s->_stderr = __sfp(s);
#endif

  std (s->_stdin,  __SRD, 0, s);
 8000a28:	e0bfff17 	ldw	r2,-4(fp)
 8000a2c:	10800117 	ldw	r2,4(r2)
 8000a30:	e1ffff17 	ldw	r7,-4(fp)
 8000a34:	000d883a 	mov	r6,zero
 8000a38:	01400104 	movi	r5,4
 8000a3c:	1009883a 	mov	r4,r2
 8000a40:	80006240 	call	8000624 <std>
#ifdef HAVE_FCNTL
/*std (s->_stdout, __SWR, 1, s); */
  std (s->_stdout, __SWR | __SNBF, 1, s);	/* AlteraSpecific: Change to have no buffering on stdout. */
#else
/*std (s->_stdout, __SWR | __SLBF, 1, s); */
  std (s->_stdout, __SWR | __SNBF, 1, s);	/* AlteraSpecific: Change to have no buffering on stdout. */
 8000a44:	e0bfff17 	ldw	r2,-4(fp)
 8000a48:	10800217 	ldw	r2,8(r2)
 8000a4c:	e1ffff17 	ldw	r7,-4(fp)
 8000a50:	01800044 	movi	r6,1
 8000a54:	01400284 	movi	r5,10
 8000a58:	1009883a 	mov	r4,r2
 8000a5c:	80006240 	call	8000624 <std>
#endif

  /* POSIX requires stderr to be opened for reading and writing, even
     when the underlying fd 2 is write-only.  */
  std (s->_stderr, __SRW | __SNBF, 2, s);
 8000a60:	e0bfff17 	ldw	r2,-4(fp)
 8000a64:	10800317 	ldw	r2,12(r2)
 8000a68:	e1ffff17 	ldw	r7,-4(fp)
 8000a6c:	01800084 	movi	r6,2
 8000a70:	01400484 	movi	r5,18
 8000a74:	1009883a 	mov	r4,r2
 8000a78:	80006240 	call	8000624 <std>

  s->__sdidinit = 1;
 8000a7c:	e0bfff17 	ldw	r2,-4(fp)
 8000a80:	00c00044 	movi	r3,1
 8000a84:	10c00e15 	stw	r3,56(r2)

  __sinit_lock_release ();
 8000a88:	8000b000 	call	8000b00 <__sinit_lock_release>
}
 8000a8c:	e037883a 	mov	sp,fp
 8000a90:	dfc00117 	ldw	ra,4(sp)
 8000a94:	df000017 	ldw	fp,0(sp)
 8000a98:	dec00204 	addi	sp,sp,8
 8000a9c:	f800283a 	ret

08000aa0 <__sfp_lock_acquire>:
__LOCK_INIT_RECURSIVE(static, __sfp_lock);
__LOCK_INIT_RECURSIVE(static, __sinit_lock);

_VOID
_DEFUN_VOID(__sfp_lock_acquire)
{
 8000aa0:	deffff04 	addi	sp,sp,-4
 8000aa4:	df000015 	stw	fp,0(sp)
 8000aa8:	d839883a 	mov	fp,sp
  __lock_acquire_recursive (__sfp_lock);
}
 8000aac:	0001883a 	nop
 8000ab0:	e037883a 	mov	sp,fp
 8000ab4:	df000017 	ldw	fp,0(sp)
 8000ab8:	dec00104 	addi	sp,sp,4
 8000abc:	f800283a 	ret

08000ac0 <__sfp_lock_release>:

_VOID
_DEFUN_VOID(__sfp_lock_release)
{
 8000ac0:	deffff04 	addi	sp,sp,-4
 8000ac4:	df000015 	stw	fp,0(sp)
 8000ac8:	d839883a 	mov	fp,sp
  __lock_release_recursive (__sfp_lock);
}
 8000acc:	0001883a 	nop
 8000ad0:	e037883a 	mov	sp,fp
 8000ad4:	df000017 	ldw	fp,0(sp)
 8000ad8:	dec00104 	addi	sp,sp,4
 8000adc:	f800283a 	ret

08000ae0 <__sinit_lock_acquire>:

_VOID
_DEFUN_VOID(__sinit_lock_acquire)
{
 8000ae0:	deffff04 	addi	sp,sp,-4
 8000ae4:	df000015 	stw	fp,0(sp)
 8000ae8:	d839883a 	mov	fp,sp
  __lock_acquire_recursive (__sinit_lock);
}
 8000aec:	0001883a 	nop
 8000af0:	e037883a 	mov	sp,fp
 8000af4:	df000017 	ldw	fp,0(sp)
 8000af8:	dec00104 	addi	sp,sp,4
 8000afc:	f800283a 	ret

08000b00 <__sinit_lock_release>:

_VOID
_DEFUN_VOID(__sinit_lock_release)
{
 8000b00:	deffff04 	addi	sp,sp,-4
 8000b04:	df000015 	stw	fp,0(sp)
 8000b08:	d839883a 	mov	fp,sp
  __lock_release_recursive (__sinit_lock);
}
 8000b0c:	0001883a 	nop
 8000b10:	e037883a 	mov	sp,fp
 8000b14:	df000017 	ldw	fp,0(sp)
 8000b18:	dec00104 	addi	sp,sp,4
 8000b1c:	f800283a 	ret

08000b20 <__fp_lock>:

/* Walkable file locking routine.  */
static int
_DEFUN(__fp_lock, (ptr),
       FILE * ptr)
{
 8000b20:	defffe04 	addi	sp,sp,-8
 8000b24:	df000115 	stw	fp,4(sp)
 8000b28:	df000104 	addi	fp,sp,4
 8000b2c:	e13fff15 	stw	r4,-4(fp)
  _flockfile (ptr);

  return 0;
 8000b30:	0005883a 	mov	r2,zero
}
 8000b34:	e037883a 	mov	sp,fp
 8000b38:	df000017 	ldw	fp,0(sp)
 8000b3c:	dec00104 	addi	sp,sp,4
 8000b40:	f800283a 	ret

08000b44 <__fp_unlock>:

/* Walkable file unlocking routine.  */
static int
_DEFUN(__fp_unlock, (ptr),
       FILE * ptr)
{
 8000b44:	defffe04 	addi	sp,sp,-8
 8000b48:	df000115 	stw	fp,4(sp)
 8000b4c:	df000104 	addi	fp,sp,4
 8000b50:	e13fff15 	stw	r4,-4(fp)
  _funlockfile (ptr);

  return 0;
 8000b54:	0005883a 	mov	r2,zero
}
 8000b58:	e037883a 	mov	sp,fp
 8000b5c:	df000017 	ldw	fp,0(sp)
 8000b60:	dec00104 	addi	sp,sp,4
 8000b64:	f800283a 	ret

08000b68 <__fp_lock_all>:

_VOID
_DEFUN_VOID(__fp_lock_all)
{
 8000b68:	defffe04 	addi	sp,sp,-8
 8000b6c:	dfc00115 	stw	ra,4(sp)
 8000b70:	df000015 	stw	fp,0(sp)
 8000b74:	d839883a 	mov	fp,sp
  __sfp_lock_acquire ();
 8000b78:	8000aa00 	call	8000aa0 <__sfp_lock_acquire>

  _CAST_VOID _fwalk (_REENT, __fp_lock);
 8000b7c:	d0a00017 	ldw	r2,-32768(gp)
 8000b80:	01420034 	movhi	r5,2048
 8000b84:	2942c804 	addi	r5,r5,2848
 8000b88:	1009883a 	mov	r4,r2
 8000b8c:	80011c40 	call	80011c4 <_fwalk>
}
 8000b90:	0001883a 	nop
 8000b94:	e037883a 	mov	sp,fp
 8000b98:	dfc00117 	ldw	ra,4(sp)
 8000b9c:	df000017 	ldw	fp,0(sp)
 8000ba0:	dec00204 	addi	sp,sp,8
 8000ba4:	f800283a 	ret

08000ba8 <__fp_unlock_all>:

_VOID
_DEFUN_VOID(__fp_unlock_all)
{
 8000ba8:	defffe04 	addi	sp,sp,-8
 8000bac:	dfc00115 	stw	ra,4(sp)
 8000bb0:	df000015 	stw	fp,0(sp)
 8000bb4:	d839883a 	mov	fp,sp
  _CAST_VOID _fwalk (_REENT, __fp_unlock);
 8000bb8:	d0a00017 	ldw	r2,-32768(gp)
 8000bbc:	01420034 	movhi	r5,2048
 8000bc0:	2942d104 	addi	r5,r5,2884
 8000bc4:	1009883a 	mov	r4,r2
 8000bc8:	80011c40 	call	80011c4 <_fwalk>

  __sfp_lock_release ();
 8000bcc:	8000ac00 	call	8000ac0 <__sfp_lock_release>
}
 8000bd0:	0001883a 	nop
 8000bd4:	e037883a 	mov	sp,fp
 8000bd8:	dfc00117 	ldw	ra,4(sp)
 8000bdc:	df000017 	ldw	fp,0(sp)
 8000be0:	dec00204 	addi	sp,sp,8
 8000be4:	f800283a 	ret

08000be8 <__sfvwrite_r>:
int
_DEFUN(__sfvwrite_r, (ptr, fp, uio),
       struct _reent *ptr _AND
       register FILE *fp _AND
       register struct __suio *uio)
{
 8000be8:	defff004 	addi	sp,sp,-64
 8000bec:	dfc00f15 	stw	ra,60(sp)
 8000bf0:	df000e15 	stw	fp,56(sp)
 8000bf4:	dd800d15 	stw	r22,52(sp)
 8000bf8:	dd400c15 	stw	r21,48(sp)
 8000bfc:	dd000b15 	stw	r20,44(sp)
 8000c00:	dcc00a15 	stw	r19,40(sp)
 8000c04:	dc800915 	stw	r18,36(sp)
 8000c08:	dc400815 	stw	r17,32(sp)
 8000c0c:	dc000715 	stw	r16,28(sp)
 8000c10:	df000e04 	addi	fp,sp,56
 8000c14:	e13ff815 	stw	r4,-32(fp)
 8000c18:	2821883a 	mov	r16,r5
 8000c1c:	302b883a 	mov	r21,r6
  register size_t len;
  register _CONST char *p = NULL;
 8000c20:	0027883a 	mov	r19,zero
  register struct __siov *iov;
  register _READ_WRITE_RETURN_TYPE w, s;
  char *nl;
  int nlknown, nldist;

  if ((len = uio->uio_resid) == 0)
 8000c24:	ac800217 	ldw	r18,8(r21)
 8000c28:	9000021e 	bne	r18,zero,8000c34 <__sfvwrite_r+0x4c>
    return 0;
 8000c2c:	0005883a 	mov	r2,zero
 8000c30:	00015806 	br	8001194 <__sfvwrite_r+0x5ac>

  /* make sure we can write */
  if (cantwrite (ptr, fp))
 8000c34:	8080030b 	ldhu	r2,12(r16)
 8000c38:	10bfffcc 	andi	r2,r2,65535
 8000c3c:	1080020c 	andi	r2,r2,8
 8000c40:	10000226 	beq	r2,zero,8000c4c <__sfvwrite_r+0x64>
 8000c44:	80800417 	ldw	r2,16(r16)
 8000c48:	1000061e 	bne	r2,zero,8000c64 <__sfvwrite_r+0x7c>
 8000c4c:	800b883a 	mov	r5,r16
 8000c50:	e13ff817 	ldw	r4,-32(fp)
 8000c54:	80038ec0 	call	80038ec <__swsetup_r>
 8000c58:	10000226 	beq	r2,zero,8000c64 <__sfvwrite_r+0x7c>
    return EOF;
 8000c5c:	00bfffc4 	movi	r2,-1
 8000c60:	00014c06 	br	8001194 <__sfvwrite_r+0x5ac>

  iov = uio->uio_iov;
 8000c64:	ad000017 	ldw	r20,0(r21)
  len = 0;
 8000c68:	0025883a 	mov	r18,zero
      while (uio->uio_resid > 0);
      return 0;
    }
#endif

  if (fp->_flags & __SNBF)
 8000c6c:	8080030b 	ldhu	r2,12(r16)
 8000c70:	10bfffcc 	andi	r2,r2,65535
 8000c74:	1080008c 	andi	r2,r2,2
 8000c78:	10001f26 	beq	r2,zero,8000cf8 <__sfvwrite_r+0x110>
       * Unbuffered: Split buffer in the largest multiple of BUFSIZ < INT_MAX
       * as some legacy code may expect int instead of size_t.
       */
      do
	{
	  GETIOV (;);
 8000c7c:	00000306 	br	8000c8c <__sfvwrite_r+0xa4>
 8000c80:	a4c00017 	ldw	r19,0(r20)
 8000c84:	a4800117 	ldw	r18,4(r20)
 8000c88:	a5000204 	addi	r20,r20,8
 8000c8c:	903ffc26 	beq	r18,zero,8000c80 <__sfvwrite_r+0x98>
	  w = fp->_write (ptr, fp->_cookie, p,
 8000c90:	82000917 	ldw	r8,36(r16)
 8000c94:	81000717 	ldw	r4,28(r16)
			  MIN (len, INT_MAX - INT_MAX % BUFSIZ));
 8000c98:	9005883a 	mov	r2,r18
 8000c9c:	00e00034 	movhi	r3,32768
 8000ca0:	18ff0004 	addi	r3,r3,-1024
 8000ca4:	1880022e 	bgeu	r3,r2,8000cb0 <__sfvwrite_r+0xc8>
 8000ca8:	00a00034 	movhi	r2,32768
 8000cac:	10bf0004 	addi	r2,r2,-1024
       * as some legacy code may expect int instead of size_t.
       */
      do
	{
	  GETIOV (;);
	  w = fp->_write (ptr, fp->_cookie, p,
 8000cb0:	100f883a 	mov	r7,r2
 8000cb4:	980d883a 	mov	r6,r19
 8000cb8:	200b883a 	mov	r5,r4
 8000cbc:	e13ff817 	ldw	r4,-32(fp)
 8000cc0:	403ee83a 	callr	r8
 8000cc4:	1023883a 	mov	r17,r2
			  MIN (len, INT_MAX - INT_MAX % BUFSIZ));
	  if (w <= 0)
 8000cc8:	0441290e 	bge	zero,r17,8001170 <__sfvwrite_r+0x588>
	    goto err;
	  p += w;
 8000ccc:	8805883a 	mov	r2,r17
 8000cd0:	98a7883a 	add	r19,r19,r2
	  len -= w;
 8000cd4:	8805883a 	mov	r2,r17
 8000cd8:	90a5c83a 	sub	r18,r18,r2
	}
      while ((uio->uio_resid -= w) != 0);
 8000cdc:	a8800217 	ldw	r2,8(r21)
 8000ce0:	8807883a 	mov	r3,r17
 8000ce4:	10c5c83a 	sub	r2,r2,r3
 8000ce8:	a8800215 	stw	r2,8(r21)
 8000cec:	a8800217 	ldw	r2,8(r21)
 8000cf0:	103fe61e 	bne	r2,zero,8000c8c <__sfvwrite_r+0xa4>
 8000cf4:	00011c06 	br	8001168 <__sfvwrite_r+0x580>
    }
  else if ((fp->_flags & __SLBF) == 0)
 8000cf8:	8080030b 	ldhu	r2,12(r16)
 8000cfc:	10bfffcc 	andi	r2,r2,65535
 8000d00:	1080004c 	andi	r2,r2,1
 8000d04:	1000b51e 	bne	r2,zero,8000fdc <__sfvwrite_r+0x3f4>
       * we are dealing with the asprintf routines, we will
       * dynamically increase the buffer size as needed.
       */
      do
	{
	  GETIOV (;);
 8000d08:	00000306 	br	8000d18 <__sfvwrite_r+0x130>
 8000d0c:	a4c00017 	ldw	r19,0(r20)
 8000d10:	a4800117 	ldw	r18,4(r20)
 8000d14:	a5000204 	addi	r20,r20,8
 8000d18:	903ffc26 	beq	r18,zero,8000d0c <__sfvwrite_r+0x124>
	  w = fp->_w;
 8000d1c:	84400217 	ldw	r17,8(r16)
	  if (fp->_flags & __SSTR)
 8000d20:	8080030b 	ldhu	r2,12(r16)
 8000d24:	10bfffcc 	andi	r2,r2,65535
 8000d28:	1080800c 	andi	r2,r2,512
 8000d2c:	10006b26 	beq	r2,zero,8000edc <__sfvwrite_r+0x2f4>
	    {
	      if (len >= w && fp->_flags & (__SMBF | __SOPT))
 8000d30:	8805883a 	mov	r2,r17
 8000d34:	90805736 	bltu	r18,r2,8000e94 <__sfvwrite_r+0x2ac>
 8000d38:	8080030b 	ldhu	r2,12(r16)
 8000d3c:	10bfffcc 	andi	r2,r2,65535
 8000d40:	1081200c 	andi	r2,r2,1152
 8000d44:	10005326 	beq	r2,zero,8000e94 <__sfvwrite_r+0x2ac>
		{ /* must be asprintf family */
		  unsigned char *str;
		  int curpos = (fp->_p - fp->_bf._base);
 8000d48:	80800017 	ldw	r2,0(r16)
 8000d4c:	1007883a 	mov	r3,r2
 8000d50:	80800417 	ldw	r2,16(r16)
 8000d54:	1885c83a 	sub	r2,r3,r2
 8000d58:	e0bff615 	stw	r2,-40(fp)
		     than (1+sqrt(5))/2 to accomodate malloc
		     overhead. asprintf EXPECTS us to overallocate, so
		     that it can add a trailing \0 without
		     reallocating.  The new allocation should thus be
		     max(prev_size*1.5, curpos+len+1). */
		  int newsize = fp->_bf._size * 3 / 2;
 8000d5c:	80c00517 	ldw	r3,20(r16)
 8000d60:	1805883a 	mov	r2,r3
 8000d64:	1085883a 	add	r2,r2,r2
 8000d68:	10c5883a 	add	r2,r2,r3
 8000d6c:	1006d7fa 	srli	r3,r2,31
 8000d70:	1885883a 	add	r2,r3,r2
 8000d74:	1005d07a 	srai	r2,r2,1
 8000d78:	e0bff515 	stw	r2,-44(fp)
		  if (newsize < curpos + len + 1)
 8000d7c:	e0bff617 	ldw	r2,-40(fp)
 8000d80:	1485883a 	add	r2,r2,r18
 8000d84:	10800044 	addi	r2,r2,1
 8000d88:	e0fff517 	ldw	r3,-44(fp)
 8000d8c:	1880042e 	bgeu	r3,r2,8000da0 <__sfvwrite_r+0x1b8>
		    newsize = curpos + len + 1;
 8000d90:	e0bff617 	ldw	r2,-40(fp)
 8000d94:	1485883a 	add	r2,r2,r18
 8000d98:	10800044 	addi	r2,r2,1
 8000d9c:	e0bff515 	stw	r2,-44(fp)
		  if (fp->_flags & __SOPT)
 8000da0:	8080030b 	ldhu	r2,12(r16)
 8000da4:	10bfffcc 	andi	r2,r2,65535
 8000da8:	1081000c 	andi	r2,r2,1024
 8000dac:	10001726 	beq	r2,zero,8000e0c <__sfvwrite_r+0x224>
		    {
		      /* asnprintf leaves original buffer alone.  */
		      str = (unsigned char *)_malloc_r (ptr, newsize);
 8000db0:	e0bff517 	ldw	r2,-44(fp)
 8000db4:	100b883a 	mov	r5,r2
 8000db8:	e13ff817 	ldw	r4,-32(fp)
 8000dbc:	800172c0 	call	800172c <_malloc_r>
 8000dc0:	e0bff415 	stw	r2,-48(fp)
		      if (!str)
 8000dc4:	e0bff417 	ldw	r2,-48(fp)
 8000dc8:	1000041e 	bne	r2,zero,8000ddc <__sfvwrite_r+0x1f4>
			{
			  ptr->_errno = ENOMEM;
 8000dcc:	e0bff817 	ldw	r2,-32(fp)
 8000dd0:	00c00304 	movi	r3,12
 8000dd4:	10c00015 	stw	r3,0(r2)
			  goto err;
 8000dd8:	0000ea06 	br	8001184 <__sfvwrite_r+0x59c>
			}
		      memcpy (str, fp->_bf._base, curpos);
 8000ddc:	80800417 	ldw	r2,16(r16)
 8000de0:	e0fff617 	ldw	r3,-40(fp)
 8000de4:	180d883a 	mov	r6,r3
 8000de8:	100b883a 	mov	r5,r2
 8000dec:	e13ff417 	ldw	r4,-48(fp)
 8000df0:	80024640 	call	8002464 <memcpy>
		      fp->_flags = (fp->_flags & ~__SOPT) | __SMBF;
 8000df4:	80c0030b 	ldhu	r3,12(r16)
 8000df8:	00bedfc4 	movi	r2,-1153
 8000dfc:	1884703a 	and	r2,r3,r2
 8000e00:	10802014 	ori	r2,r2,128
 8000e04:	8080030d 	sth	r2,12(r16)
 8000e08:	00001506 	br	8000e60 <__sfvwrite_r+0x278>
		    }
		  else
		    {
		      str = (unsigned char *)_realloc_r (ptr, fp->_bf._base,
 8000e0c:	80800417 	ldw	r2,16(r16)
 8000e10:	e0fff517 	ldw	r3,-44(fp)
 8000e14:	180d883a 	mov	r6,r3
 8000e18:	100b883a 	mov	r5,r2
 8000e1c:	e13ff817 	ldw	r4,-32(fp)
 8000e20:	80029b80 	call	80029b8 <_realloc_r>
 8000e24:	e0bff415 	stw	r2,-48(fp)
							 newsize);
		      if (!str)
 8000e28:	e0bff417 	ldw	r2,-48(fp)
 8000e2c:	10000c1e 	bne	r2,zero,8000e60 <__sfvwrite_r+0x278>
			{
			  /* Free buffer which is no longer used and clear
			     __SMBF flag to avoid double free in fclose.  */
			  _free_r (ptr, fp->_bf._base);
 8000e30:	80800417 	ldw	r2,16(r16)
 8000e34:	100b883a 	mov	r5,r2
 8000e38:	e13ff817 	ldw	r4,-32(fp)
 8000e3c:	80040300 	call	8004030 <_free_r>
			  fp->_flags &=  ~__SMBF;
 8000e40:	80c0030b 	ldhu	r3,12(r16)
 8000e44:	00bfdfc4 	movi	r2,-129
 8000e48:	1884703a 	and	r2,r3,r2
 8000e4c:	8080030d 	sth	r2,12(r16)
			  /* Ensure correct errno, even if free changed it.  */
			  ptr->_errno = ENOMEM;
 8000e50:	e0bff817 	ldw	r2,-32(fp)
 8000e54:	00c00304 	movi	r3,12
 8000e58:	10c00015 	stw	r3,0(r2)
			  goto err;
 8000e5c:	0000c906 	br	8001184 <__sfvwrite_r+0x59c>
			}
		    }
		  fp->_bf._base = str;
 8000e60:	e0bff417 	ldw	r2,-48(fp)
 8000e64:	80800415 	stw	r2,16(r16)
		  fp->_p = str + curpos;
 8000e68:	e0bff617 	ldw	r2,-40(fp)
 8000e6c:	e0fff417 	ldw	r3,-48(fp)
 8000e70:	1885883a 	add	r2,r3,r2
 8000e74:	80800015 	stw	r2,0(r16)
		  fp->_bf._size = newsize;
 8000e78:	e0bff517 	ldw	r2,-44(fp)
 8000e7c:	80800515 	stw	r2,20(r16)
		  w = len;
 8000e80:	9023883a 	mov	r17,r18
		  fp->_w = newsize - curpos;
 8000e84:	e0fff517 	ldw	r3,-44(fp)
 8000e88:	e0bff617 	ldw	r2,-40(fp)
 8000e8c:	1885c83a 	sub	r2,r3,r2
 8000e90:	80800215 	stw	r2,8(r16)
		}
	      if (len < w)
 8000e94:	8805883a 	mov	r2,r17
 8000e98:	9080012e 	bgeu	r18,r2,8000ea0 <__sfvwrite_r+0x2b8>
		w = len;
 8000e9c:	9023883a 	mov	r17,r18
	      COPY (w);		/* copy MIN(fp->_w,len), */
 8000ea0:	80800017 	ldw	r2,0(r16)
 8000ea4:	8807883a 	mov	r3,r17
 8000ea8:	180d883a 	mov	r6,r3
 8000eac:	980b883a 	mov	r5,r19
 8000eb0:	1009883a 	mov	r4,r2
 8000eb4:	80025ec0 	call	80025ec <memmove>
	      fp->_w -= w;
 8000eb8:	80800217 	ldw	r2,8(r16)
 8000ebc:	1445c83a 	sub	r2,r2,r17
 8000ec0:	80800215 	stw	r2,8(r16)
	      fp->_p += w;
 8000ec4:	80800017 	ldw	r2,0(r16)
 8000ec8:	8807883a 	mov	r3,r17
 8000ecc:	10c5883a 	add	r2,r2,r3
 8000ed0:	80800015 	stw	r2,0(r16)
	      w = len;		/* but pretend copied all */
 8000ed4:	9023883a 	mov	r17,r18
 8000ed8:	00003506 	br	8000fb0 <__sfvwrite_r+0x3c8>
	    }
	  else if (fp->_p > fp->_bf._base || len < fp->_bf._size)
 8000edc:	80800017 	ldw	r2,0(r16)
 8000ee0:	80c00417 	ldw	r3,16(r16)
 8000ee4:	18800236 	bltu	r3,r2,8000ef0 <__sfvwrite_r+0x308>
 8000ee8:	80800517 	ldw	r2,20(r16)
 8000eec:	9080182e 	bgeu	r18,r2,8000f50 <__sfvwrite_r+0x368>
	    {
	      /* pass through the buffer */
	      w = MIN (len, w);
 8000ef0:	8805883a 	mov	r2,r17
 8000ef4:	9080012e 	bgeu	r18,r2,8000efc <__sfvwrite_r+0x314>
 8000ef8:	9005883a 	mov	r2,r18
 8000efc:	1023883a 	mov	r17,r2
	      COPY (w);
 8000f00:	80800017 	ldw	r2,0(r16)
 8000f04:	8807883a 	mov	r3,r17
 8000f08:	180d883a 	mov	r6,r3
 8000f0c:	980b883a 	mov	r5,r19
 8000f10:	1009883a 	mov	r4,r2
 8000f14:	80025ec0 	call	80025ec <memmove>
	      fp->_w -= w;
 8000f18:	80800217 	ldw	r2,8(r16)
 8000f1c:	1445c83a 	sub	r2,r2,r17
 8000f20:	80800215 	stw	r2,8(r16)
	      fp->_p += w;
 8000f24:	80800017 	ldw	r2,0(r16)
 8000f28:	8807883a 	mov	r3,r17
 8000f2c:	10c5883a 	add	r2,r2,r3
 8000f30:	80800015 	stw	r2,0(r16)
	      if (fp->_w == 0 && _fflush_r (ptr, fp))
 8000f34:	80800217 	ldw	r2,8(r16)
 8000f38:	10001c1e 	bne	r2,zero,8000fac <__sfvwrite_r+0x3c4>
 8000f3c:	800b883a 	mov	r5,r16
 8000f40:	e13ff817 	ldw	r4,-32(fp)
 8000f44:	8003f540 	call	8003f54 <_fflush_r>
 8000f48:	10001826 	beq	r2,zero,8000fac <__sfvwrite_r+0x3c4>
		goto err;
 8000f4c:	00008d06 	br	8001184 <__sfvwrite_r+0x59c>
	    }
	  else
	    {
	      /* write directly */
	      w = ((int)MIN (len, INT_MAX)) / fp->_bf._size * fp->_bf._size;
 8000f50:	9005883a 	mov	r2,r18
 8000f54:	00e00034 	movhi	r3,32768
 8000f58:	10c00236 	bltu	r2,r3,8000f64 <__sfvwrite_r+0x37c>
 8000f5c:	00a00034 	movhi	r2,32768
 8000f60:	10bfffc4 	addi	r2,r2,-1
 8000f64:	1007883a 	mov	r3,r2
 8000f68:	80800517 	ldw	r2,20(r16)
 8000f6c:	100b883a 	mov	r5,r2
 8000f70:	1809883a 	mov	r4,r3
 8000f74:	8004b300 	call	8004b30 <__divsi3>
 8000f78:	1007883a 	mov	r3,r2
 8000f7c:	80800517 	ldw	r2,20(r16)
 8000f80:	18a3383a 	mul	r17,r3,r2
	      w = fp->_write (ptr, fp->_cookie, p, w);
 8000f84:	80800917 	ldw	r2,36(r16)
 8000f88:	80c00717 	ldw	r3,28(r16)
 8000f8c:	880f883a 	mov	r7,r17
 8000f90:	980d883a 	mov	r6,r19
 8000f94:	180b883a 	mov	r5,r3
 8000f98:	e13ff817 	ldw	r4,-32(fp)
 8000f9c:	103ee83a 	callr	r2
 8000fa0:	1023883a 	mov	r17,r2
	      if (w <= 0)
 8000fa4:	0440740e 	bge	zero,r17,8001178 <__sfvwrite_r+0x590>
 8000fa8:	00000106 	br	8000fb0 <__sfvwrite_r+0x3c8>
	      /* pass through the buffer */
	      w = MIN (len, w);
	      COPY (w);
	      fp->_w -= w;
	      fp->_p += w;
	      if (fp->_w == 0 && _fflush_r (ptr, fp))
 8000fac:	0001883a 	nop
	      w = ((int)MIN (len, INT_MAX)) / fp->_bf._size * fp->_bf._size;
	      w = fp->_write (ptr, fp->_cookie, p, w);
	      if (w <= 0)
		goto err;
	    }
	  p += w;
 8000fb0:	8805883a 	mov	r2,r17
 8000fb4:	98a7883a 	add	r19,r19,r2
	  len -= w;
 8000fb8:	8805883a 	mov	r2,r17
 8000fbc:	90a5c83a 	sub	r18,r18,r2
	}
      while ((uio->uio_resid -= w) != 0);
 8000fc0:	a8800217 	ldw	r2,8(r21)
 8000fc4:	8807883a 	mov	r3,r17
 8000fc8:	10c5c83a 	sub	r2,r2,r3
 8000fcc:	a8800215 	stw	r2,8(r21)
 8000fd0:	a8800217 	ldw	r2,8(r21)
 8000fd4:	103f501e 	bne	r2,zero,8000d18 <__sfvwrite_r+0x130>
 8000fd8:	00006306 	br	8001168 <__sfvwrite_r+0x580>
       * must check for newlines.  Compute the distance
       * to the first newline (including the newline),
       * or `infinity' if there is none, then pretend
       * that the amount to write is MIN(len,nldist).
       */
      nlknown = 0;
 8000fdc:	e03ff215 	stw	zero,-56(fp)
      nldist = 0;
 8000fe0:	e03ff315 	stw	zero,-52(fp)
      do
	{
	  GETIOV (nlknown = 0);
 8000fe4:	00000406 	br	8000ff8 <__sfvwrite_r+0x410>
 8000fe8:	e03ff215 	stw	zero,-56(fp)
 8000fec:	a4c00017 	ldw	r19,0(r20)
 8000ff0:	a4800117 	ldw	r18,4(r20)
 8000ff4:	a5000204 	addi	r20,r20,8
 8000ff8:	903ffb26 	beq	r18,zero,8000fe8 <__sfvwrite_r+0x400>
	  if (!nlknown)
 8000ffc:	e0bff217 	ldw	r2,-56(fp)
 8001000:	1000111e 	bne	r2,zero,8001048 <__sfvwrite_r+0x460>
	    {
	      nl = memchr ((_PTR) p, '\n', len);
 8001004:	900d883a 	mov	r6,r18
 8001008:	01400284 	movi	r5,10
 800100c:	9809883a 	mov	r4,r19
 8001010:	80022a80 	call	80022a8 <memchr>
 8001014:	e0bff715 	stw	r2,-36(fp)
	      nldist = nl ? nl + 1 - p : len + 1;
 8001018:	e0bff717 	ldw	r2,-36(fp)
 800101c:	10000626 	beq	r2,zero,8001038 <__sfvwrite_r+0x450>
 8001020:	e0bff717 	ldw	r2,-36(fp)
 8001024:	10800044 	addi	r2,r2,1
 8001028:	1007883a 	mov	r3,r2
 800102c:	9805883a 	mov	r2,r19
 8001030:	1885c83a 	sub	r2,r3,r2
 8001034:	00000106 	br	800103c <__sfvwrite_r+0x454>
 8001038:	90800044 	addi	r2,r18,1
 800103c:	e0bff315 	stw	r2,-52(fp)
	      nlknown = 1;
 8001040:	00800044 	movi	r2,1
 8001044:	e0bff215 	stw	r2,-56(fp)
	    }
	  s = MIN (len, nldist);
 8001048:	e0bff317 	ldw	r2,-52(fp)
 800104c:	9080012e 	bgeu	r18,r2,8001054 <__sfvwrite_r+0x46c>
 8001050:	9005883a 	mov	r2,r18
 8001054:	102d883a 	mov	r22,r2
	  w = fp->_w + fp->_bf._size;
 8001058:	80c00217 	ldw	r3,8(r16)
 800105c:	80800517 	ldw	r2,20(r16)
 8001060:	18a3883a 	add	r17,r3,r2
	  if (fp->_p > fp->_bf._base && s > w)
 8001064:	80800017 	ldw	r2,0(r16)
 8001068:	80c00417 	ldw	r3,16(r16)
 800106c:	1880102e 	bgeu	r3,r2,80010b0 <__sfvwrite_r+0x4c8>
 8001070:	8d800f0e 	bge	r17,r22,80010b0 <__sfvwrite_r+0x4c8>
	    {
	      COPY (w);
 8001074:	80800017 	ldw	r2,0(r16)
 8001078:	8807883a 	mov	r3,r17
 800107c:	180d883a 	mov	r6,r3
 8001080:	980b883a 	mov	r5,r19
 8001084:	1009883a 	mov	r4,r2
 8001088:	80025ec0 	call	80025ec <memmove>
	      /* fp->_w -= w; */
	      fp->_p += w;
 800108c:	80800017 	ldw	r2,0(r16)
 8001090:	8807883a 	mov	r3,r17
 8001094:	10c5883a 	add	r2,r2,r3
 8001098:	80800015 	stw	r2,0(r16)
	      if (_fflush_r (ptr, fp))
 800109c:	800b883a 	mov	r5,r16
 80010a0:	e13ff817 	ldw	r4,-32(fp)
 80010a4:	8003f540 	call	8003f54 <_fflush_r>
 80010a8:	10001b26 	beq	r2,zero,8001118 <__sfvwrite_r+0x530>
		goto err;
 80010ac:	00003506 	br	8001184 <__sfvwrite_r+0x59c>
	    }
	  else if (s >= (w = fp->_bf._size))
 80010b0:	84400517 	ldw	r17,20(r16)
 80010b4:	b4400a16 	blt	r22,r17,80010e0 <__sfvwrite_r+0x4f8>
	    {
	      w = fp->_write (ptr, fp->_cookie, p, w);
 80010b8:	80800917 	ldw	r2,36(r16)
 80010bc:	80c00717 	ldw	r3,28(r16)
 80010c0:	880f883a 	mov	r7,r17
 80010c4:	980d883a 	mov	r6,r19
 80010c8:	180b883a 	mov	r5,r3
 80010cc:	e13ff817 	ldw	r4,-32(fp)
 80010d0:	103ee83a 	callr	r2
 80010d4:	1023883a 	mov	r17,r2
	      if (w <= 0)
 80010d8:	04400f16 	blt	zero,r17,8001118 <__sfvwrite_r+0x530>
		goto err;
 80010dc:	00002906 	br	8001184 <__sfvwrite_r+0x59c>
	    }
	  else
	    {
	      w = s;
 80010e0:	b023883a 	mov	r17,r22
	      COPY (w);
 80010e4:	80800017 	ldw	r2,0(r16)
 80010e8:	8807883a 	mov	r3,r17
 80010ec:	180d883a 	mov	r6,r3
 80010f0:	980b883a 	mov	r5,r19
 80010f4:	1009883a 	mov	r4,r2
 80010f8:	80025ec0 	call	80025ec <memmove>
	      fp->_w -= w;
 80010fc:	80800217 	ldw	r2,8(r16)
 8001100:	1445c83a 	sub	r2,r2,r17
 8001104:	80800215 	stw	r2,8(r16)
	      fp->_p += w;
 8001108:	80800017 	ldw	r2,0(r16)
 800110c:	8807883a 	mov	r3,r17
 8001110:	10c5883a 	add	r2,r2,r3
 8001114:	80800015 	stw	r2,0(r16)
	    }
	  if ((nldist -= w) == 0)
 8001118:	e0bff317 	ldw	r2,-52(fp)
 800111c:	1445c83a 	sub	r2,r2,r17
 8001120:	e0bff315 	stw	r2,-52(fp)
 8001124:	e0bff317 	ldw	r2,-52(fp)
 8001128:	1000051e 	bne	r2,zero,8001140 <__sfvwrite_r+0x558>
	    {
	      /* copied the newline: flush and forget */
	      if (_fflush_r (ptr, fp))
 800112c:	800b883a 	mov	r5,r16
 8001130:	e13ff817 	ldw	r4,-32(fp)
 8001134:	8003f540 	call	8003f54 <_fflush_r>
 8001138:	1000111e 	bne	r2,zero,8001180 <__sfvwrite_r+0x598>
		goto err;
	      nlknown = 0;
 800113c:	e03ff215 	stw	zero,-56(fp)
	    }
	  p += w;
 8001140:	8805883a 	mov	r2,r17
 8001144:	98a7883a 	add	r19,r19,r2
	  len -= w;
 8001148:	8805883a 	mov	r2,r17
 800114c:	90a5c83a 	sub	r18,r18,r2
	}
      while ((uio->uio_resid -= w) != 0);
 8001150:	a8800217 	ldw	r2,8(r21)
 8001154:	8807883a 	mov	r3,r17
 8001158:	10c5c83a 	sub	r2,r2,r3
 800115c:	a8800215 	stw	r2,8(r21)
 8001160:	a8800217 	ldw	r2,8(r21)
 8001164:	103fa41e 	bne	r2,zero,8000ff8 <__sfvwrite_r+0x410>
    }
  return 0;
 8001168:	0005883a 	mov	r2,zero
 800116c:	00000906 	br	8001194 <__sfvwrite_r+0x5ac>
	{
	  GETIOV (;);
	  w = fp->_write (ptr, fp->_cookie, p,
			  MIN (len, INT_MAX - INT_MAX % BUFSIZ));
	  if (w <= 0)
	    goto err;
 8001170:	0001883a 	nop
 8001174:	00000306 	br	8001184 <__sfvwrite_r+0x59c>
	    {
	      /* write directly */
	      w = ((int)MIN (len, INT_MAX)) / fp->_bf._size * fp->_bf._size;
	      w = fp->_write (ptr, fp->_cookie, p, w);
	      if (w <= 0)
		goto err;
 8001178:	0001883a 	nop
 800117c:	00000106 	br	8001184 <__sfvwrite_r+0x59c>
	    }
	  if ((nldist -= w) == 0)
	    {
	      /* copied the newline: flush and forget */
	      if (_fflush_r (ptr, fp))
		goto err;
 8001180:	0001883a 	nop
      while ((uio->uio_resid -= w) != 0);
    }
  return 0;

err:
  fp->_flags |= __SERR;
 8001184:	8080030b 	ldhu	r2,12(r16)
 8001188:	10801014 	ori	r2,r2,64
 800118c:	8080030d 	sth	r2,12(r16)
  return EOF;
 8001190:	00bfffc4 	movi	r2,-1
}
 8001194:	e6fff904 	addi	sp,fp,-28
 8001198:	dfc00817 	ldw	ra,32(sp)
 800119c:	df000717 	ldw	fp,28(sp)
 80011a0:	dd800617 	ldw	r22,24(sp)
 80011a4:	dd400517 	ldw	r21,20(sp)
 80011a8:	dd000417 	ldw	r20,16(sp)
 80011ac:	dcc00317 	ldw	r19,12(sp)
 80011b0:	dc800217 	ldw	r18,8(sp)
 80011b4:	dc400117 	ldw	r17,4(sp)
 80011b8:	dc000017 	ldw	r16,0(sp)
 80011bc:	dec00904 	addi	sp,sp,36
 80011c0:	f800283a 	ret

080011c4 <_fwalk>:

int
_DEFUN(_fwalk, (ptr, function),
       struct _reent *ptr _AND
       register int (*function) (FILE *))
{
 80011c4:	defff804 	addi	sp,sp,-32
 80011c8:	dfc00715 	stw	ra,28(sp)
 80011cc:	df000615 	stw	fp,24(sp)
 80011d0:	dd000515 	stw	r20,20(sp)
 80011d4:	dcc00415 	stw	r19,16(sp)
 80011d8:	dc800315 	stw	r18,12(sp)
 80011dc:	dc400215 	stw	r17,8(sp)
 80011e0:	dc000115 	stw	r16,4(sp)
 80011e4:	df000604 	addi	fp,sp,24
 80011e8:	e13ffa15 	stw	r4,-24(fp)
 80011ec:	2829883a 	mov	r20,r5
  register FILE *fp;
  register int n, ret = 0;
 80011f0:	0027883a 	mov	r19,zero
   * removed.
   *
   * Avoid locking this list while walking it or else you will
   * introduce a potential deadlock in [at least] refill.c.
   */
  for (g = &ptr->__sglue; g != NULL; g = g->_next)
 80011f4:	e0bffa17 	ldw	r2,-24(fp)
 80011f8:	1440b804 	addi	r17,r2,736
 80011fc:	00001b06 	br	800126c <_fwalk+0xa8>
    for (fp = g->_iobs, n = g->_niobs; --n >= 0; fp++)
 8001200:	8c000217 	ldw	r16,8(r17)
 8001204:	8c800117 	ldw	r18,4(r17)
 8001208:	00001506 	br	8001260 <_fwalk+0x9c>
      if (fp->_flags != 0 && fp->_flags != 1 && fp->_file != -1)
 800120c:	8080030b 	ldhu	r2,12(r16)
 8001210:	10bfffcc 	andi	r2,r2,65535
 8001214:	10a0001c 	xori	r2,r2,32768
 8001218:	10a00004 	addi	r2,r2,-32768
 800121c:	10000f26 	beq	r2,zero,800125c <_fwalk+0x98>
 8001220:	8080030b 	ldhu	r2,12(r16)
 8001224:	10bfffcc 	andi	r2,r2,65535
 8001228:	10a0001c 	xori	r2,r2,32768
 800122c:	10a00004 	addi	r2,r2,-32768
 8001230:	10800060 	cmpeqi	r2,r2,1
 8001234:	1000091e 	bne	r2,zero,800125c <_fwalk+0x98>
 8001238:	8080038b 	ldhu	r2,14(r16)
 800123c:	10bfffcc 	andi	r2,r2,65535
 8001240:	10a0001c 	xori	r2,r2,32768
 8001244:	10a00004 	addi	r2,r2,-32768
 8001248:	10bfffe0 	cmpeqi	r2,r2,-1
 800124c:	1000031e 	bne	r2,zero,800125c <_fwalk+0x98>
	ret |= (*function) (fp);
 8001250:	8009883a 	mov	r4,r16
 8001254:	a03ee83a 	callr	r20
 8001258:	98a6b03a 	or	r19,r19,r2
   *
   * Avoid locking this list while walking it or else you will
   * introduce a potential deadlock in [at least] refill.c.
   */
  for (g = &ptr->__sglue; g != NULL; g = g->_next)
    for (fp = g->_iobs, n = g->_niobs; --n >= 0; fp++)
 800125c:	84001a04 	addi	r16,r16,104
 8001260:	94bfffc4 	addi	r18,r18,-1
 8001264:	903fe90e 	bge	r18,zero,800120c <_fwalk+0x48>
   * removed.
   *
   * Avoid locking this list while walking it or else you will
   * introduce a potential deadlock in [at least] refill.c.
   */
  for (g = &ptr->__sglue; g != NULL; g = g->_next)
 8001268:	8c400017 	ldw	r17,0(r17)
 800126c:	883fe41e 	bne	r17,zero,8001200 <_fwalk+0x3c>
    for (fp = g->_iobs, n = g->_niobs; --n >= 0; fp++)
      if (fp->_flags != 0 && fp->_flags != 1 && fp->_file != -1)
	ret |= (*function) (fp);

  return ret;
 8001270:	9805883a 	mov	r2,r19
}
 8001274:	e6fffb04 	addi	sp,fp,-20
 8001278:	dfc00617 	ldw	ra,24(sp)
 800127c:	df000517 	ldw	fp,20(sp)
 8001280:	dd000417 	ldw	r20,16(sp)
 8001284:	dcc00317 	ldw	r19,12(sp)
 8001288:	dc800217 	ldw	r18,8(sp)
 800128c:	dc400117 	ldw	r17,4(sp)
 8001290:	dc000017 	ldw	r16,0(sp)
 8001294:	dec00704 	addi	sp,sp,28
 8001298:	f800283a 	ret

0800129c <_fwalk_reent>:
   I/O function (e.g. _fclose_r).  */
int
_DEFUN(_fwalk_reent, (ptr, reent_function),
       struct _reent *ptr _AND
       register int (*reent_function) (struct _reent *, FILE *))
{
 800129c:	defff804 	addi	sp,sp,-32
 80012a0:	dfc00715 	stw	ra,28(sp)
 80012a4:	df000615 	stw	fp,24(sp)
 80012a8:	dd000515 	stw	r20,20(sp)
 80012ac:	dcc00415 	stw	r19,16(sp)
 80012b0:	dc800315 	stw	r18,12(sp)
 80012b4:	dc400215 	stw	r17,8(sp)
 80012b8:	dc000115 	stw	r16,4(sp)
 80012bc:	df000604 	addi	fp,sp,24
 80012c0:	e13ffa15 	stw	r4,-24(fp)
 80012c4:	2829883a 	mov	r20,r5
  register FILE *fp;
  register int n, ret = 0;
 80012c8:	0027883a 	mov	r19,zero
   * removed.
   *
   * Avoid locking this list while walking it or else you will
   * introduce a potential deadlock in [at least] refill.c.
   */
  for (g = &ptr->__sglue; g != NULL; g = g->_next)
 80012cc:	e0bffa17 	ldw	r2,-24(fp)
 80012d0:	1440b804 	addi	r17,r2,736
 80012d4:	00001c06 	br	8001348 <_fwalk_reent+0xac>
    for (fp = g->_iobs, n = g->_niobs; --n >= 0; fp++)
 80012d8:	8c000217 	ldw	r16,8(r17)
 80012dc:	8c800117 	ldw	r18,4(r17)
 80012e0:	00001606 	br	800133c <_fwalk_reent+0xa0>
      if (fp->_flags != 0 && fp->_flags != 1 && fp->_file != -1)
 80012e4:	8080030b 	ldhu	r2,12(r16)
 80012e8:	10bfffcc 	andi	r2,r2,65535
 80012ec:	10a0001c 	xori	r2,r2,32768
 80012f0:	10a00004 	addi	r2,r2,-32768
 80012f4:	10001026 	beq	r2,zero,8001338 <_fwalk_reent+0x9c>
 80012f8:	8080030b 	ldhu	r2,12(r16)
 80012fc:	10bfffcc 	andi	r2,r2,65535
 8001300:	10a0001c 	xori	r2,r2,32768
 8001304:	10a00004 	addi	r2,r2,-32768
 8001308:	10800060 	cmpeqi	r2,r2,1
 800130c:	10000a1e 	bne	r2,zero,8001338 <_fwalk_reent+0x9c>
 8001310:	8080038b 	ldhu	r2,14(r16)
 8001314:	10bfffcc 	andi	r2,r2,65535
 8001318:	10a0001c 	xori	r2,r2,32768
 800131c:	10a00004 	addi	r2,r2,-32768
 8001320:	10bfffe0 	cmpeqi	r2,r2,-1
 8001324:	1000041e 	bne	r2,zero,8001338 <_fwalk_reent+0x9c>
	ret |= (*reent_function) (ptr, fp);
 8001328:	800b883a 	mov	r5,r16
 800132c:	e13ffa17 	ldw	r4,-24(fp)
 8001330:	a03ee83a 	callr	r20
 8001334:	98a6b03a 	or	r19,r19,r2
   *
   * Avoid locking this list while walking it or else you will
   * introduce a potential deadlock in [at least] refill.c.
   */
  for (g = &ptr->__sglue; g != NULL; g = g->_next)
    for (fp = g->_iobs, n = g->_niobs; --n >= 0; fp++)
 8001338:	84001a04 	addi	r16,r16,104
 800133c:	94bfffc4 	addi	r18,r18,-1
 8001340:	903fe80e 	bge	r18,zero,80012e4 <_fwalk_reent+0x48>
   * removed.
   *
   * Avoid locking this list while walking it or else you will
   * introduce a potential deadlock in [at least] refill.c.
   */
  for (g = &ptr->__sglue; g != NULL; g = g->_next)
 8001344:	8c400017 	ldw	r17,0(r17)
 8001348:	883fe31e 	bne	r17,zero,80012d8 <_fwalk_reent+0x3c>
    for (fp = g->_iobs, n = g->_niobs; --n >= 0; fp++)
      if (fp->_flags != 0 && fp->_flags != 1 && fp->_file != -1)
	ret |= (*reent_function) (ptr, fp);

  return ret;
 800134c:	9805883a 	mov	r2,r19
}
 8001350:	e6fffb04 	addi	sp,fp,-20
 8001354:	dfc00617 	ldw	ra,24(sp)
 8001358:	df000517 	ldw	fp,20(sp)
 800135c:	dd000417 	ldw	r20,16(sp)
 8001360:	dcc00317 	ldw	r19,12(sp)
 8001364:	dc800217 	ldw	r18,8(sp)
 8001368:	dc400117 	ldw	r17,4(sp)
 800136c:	dc000017 	ldw	r16,0(sp)
 8001370:	dec00704 	addi	sp,sp,28
 8001374:	f800283a 	ret

08001378 <malloc_extend_top>:
#if __STD_C
static void malloc_extend_top(RARG INTERNAL_SIZE_T nb)
#else
static void malloc_extend_top(RARG nb) RDECL INTERNAL_SIZE_T nb;
#endif
{
 8001378:	defff104 	addi	sp,sp,-60
 800137c:	dfc00e15 	stw	ra,56(sp)
 8001380:	df000d15 	stw	fp,52(sp)
 8001384:	df000d04 	addi	fp,sp,52
 8001388:	e13ffe15 	stw	r4,-8(fp)
 800138c:	e17fff15 	stw	r5,-4(fp)
  char*     brk;                  /* return value from sbrk */
  INTERNAL_SIZE_T front_misalign; /* unusable bytes at front of sbrked space */
  INTERNAL_SIZE_T correction;     /* bytes for 2nd sbrk call */
  int correction_failed = 0;      /* whether we should relax the assertion */
 8001390:	e03ff715 	stw	zero,-36(fp)
  char*     new_brk;              /* return of 2nd sbrk call */
  INTERNAL_SIZE_T top_size;       /* new size of top chunk */

  mchunkptr old_top     = top;  /* Record state of old top */
 8001394:	00820134 	movhi	r2,2052
 8001398:	1083df04 	addi	r2,r2,3964
 800139c:	10800217 	ldw	r2,8(r2)
 80013a0:	e0bff815 	stw	r2,-32(fp)
  INTERNAL_SIZE_T old_top_size = chunksize(old_top);
 80013a4:	e0bff817 	ldw	r2,-32(fp)
 80013a8:	10c00117 	ldw	r3,4(r2)
 80013ac:	00bfff04 	movi	r2,-4
 80013b0:	1884703a 	and	r2,r3,r2
 80013b4:	e0bff915 	stw	r2,-28(fp)
  char*     old_end      = (char*)(chunk_at_offset(old_top, old_top_size));
 80013b8:	e0fff817 	ldw	r3,-32(fp)
 80013bc:	e0bff917 	ldw	r2,-28(fp)
 80013c0:	1885883a 	add	r2,r3,r2
 80013c4:	e0bffa15 	stw	r2,-24(fp)

  /* Pad request with top_pad plus minimal overhead */
  
  INTERNAL_SIZE_T    sbrk_size     = nb + top_pad + MINSIZE;
 80013c8:	d0e6e317 	ldw	r3,-25716(gp)
 80013cc:	e0bfff17 	ldw	r2,-4(fp)
 80013d0:	1885883a 	add	r2,r3,r2
 80013d4:	10800404 	addi	r2,r2,16
 80013d8:	e0bff615 	stw	r2,-40(fp)
  unsigned long pagesz    = malloc_getpagesize;
 80013dc:	00840004 	movi	r2,4096
 80013e0:	e0bffb15 	stw	r2,-20(fp)

  /* If not the first time through, round to preserve page boundary */
  /* Otherwise, we need to correct to a page size below anyway. */
  /* (We also correct below if an intervening foreign sbrk call.) */

  if (sbrk_base != (char*)(-1))
 80013e4:	d0a00317 	ldw	r2,-32756(gp)
 80013e8:	10bfffe0 	cmpeqi	r2,r2,-1
 80013ec:	1000081e 	bne	r2,zero,8001410 <malloc_extend_top+0x98>
    sbrk_size = (sbrk_size + (pagesz - 1)) & ~(pagesz - 1);
 80013f0:	e0fffb17 	ldw	r3,-20(fp)
 80013f4:	e0bff617 	ldw	r2,-40(fp)
 80013f8:	1885883a 	add	r2,r3,r2
 80013fc:	10ffffc4 	addi	r3,r2,-1
 8001400:	e0bffb17 	ldw	r2,-20(fp)
 8001404:	0085c83a 	sub	r2,zero,r2
 8001408:	1884703a 	and	r2,r3,r2
 800140c:	e0bff615 	stw	r2,-40(fp)

  brk = (char*)(MORECORE (sbrk_size));
 8001410:	e0bff617 	ldw	r2,-40(fp)
 8001414:	100b883a 	mov	r5,r2
 8001418:	e13ffe17 	ldw	r4,-8(fp)
 800141c:	80035a80 	call	80035a8 <_sbrk_r>
 8001420:	e0bff315 	stw	r2,-52(fp)

  /* Fail if sbrk failed or if a foreign sbrk call killed our space */
  if (brk == (char*)(MORECORE_FAILURE) || 
 8001424:	e0bff317 	ldw	r2,-52(fp)
 8001428:	10bfffe0 	cmpeqi	r2,r2,-1
 800142c:	1000b91e 	bne	r2,zero,8001714 <malloc_extend_top+0x39c>
 8001430:	e0fff317 	ldw	r3,-52(fp)
 8001434:	e0bffa17 	ldw	r2,-24(fp)
 8001438:	1880042e 	bgeu	r3,r2,800144c <malloc_extend_top+0xd4>
      (brk < old_end && old_top != initial_top))
 800143c:	00820134 	movhi	r2,2052
 8001440:	1083df04 	addi	r2,r2,3964
 8001444:	e0fff817 	ldw	r3,-32(fp)
 8001448:	1880b21e 	bne	r3,r2,8001714 <malloc_extend_top+0x39c>
    return;

  sbrked_mem += sbrk_size;
 800144c:	00820134 	movhi	r2,2052
 8001450:	10908a04 	addi	r2,r2,16936
 8001454:	10800017 	ldw	r2,0(r2)
 8001458:	1007883a 	mov	r3,r2
 800145c:	e0bff617 	ldw	r2,-40(fp)
 8001460:	1885883a 	add	r2,r3,r2
 8001464:	1007883a 	mov	r3,r2
 8001468:	00820134 	movhi	r2,2052
 800146c:	10908a04 	addi	r2,r2,16936
 8001470:	10c00015 	stw	r3,0(r2)

  if (brk == old_end /* can just add bytes to current top, unless
 8001474:	e0fff317 	ldw	r3,-52(fp)
 8001478:	e0bffa17 	ldw	r2,-24(fp)
 800147c:	1880101e 	bne	r3,r2,80014c0 <malloc_extend_top+0x148>
			previous correction failed */
      && ((POINTER_UINT)old_end & (pagesz - 1)) == 0)
 8001480:	e0bffb17 	ldw	r2,-20(fp)
 8001484:	10ffffc4 	addi	r3,r2,-1
 8001488:	e0bffa17 	ldw	r2,-24(fp)
 800148c:	1884703a 	and	r2,r3,r2
 8001490:	10000b1e 	bne	r2,zero,80014c0 <malloc_extend_top+0x148>
  {
    top_size = sbrk_size + old_top_size;
 8001494:	e0fff617 	ldw	r3,-40(fp)
 8001498:	e0bff917 	ldw	r2,-28(fp)
 800149c:	1885883a 	add	r2,r3,r2
 80014a0:	e0bffc15 	stw	r2,-16(fp)
    set_head(top, top_size | PREV_INUSE);
 80014a4:	00820134 	movhi	r2,2052
 80014a8:	1083df04 	addi	r2,r2,3964
 80014ac:	10800217 	ldw	r2,8(r2)
 80014b0:	e0fffc17 	ldw	r3,-16(fp)
 80014b4:	18c00054 	ori	r3,r3,1
 80014b8:	10c00115 	stw	r3,4(r2)
 80014bc:	00008006 	br	80016c0 <malloc_extend_top+0x348>
  }
  else
  {
    if (sbrk_base == (char*)(-1))  /* First time through. Record base */
 80014c0:	d0a00317 	ldw	r2,-32756(gp)
 80014c4:	10bfffd8 	cmpnei	r2,r2,-1
 80014c8:	1000031e 	bne	r2,zero,80014d8 <malloc_extend_top+0x160>
      sbrk_base = brk;
 80014cc:	e0bff317 	ldw	r2,-52(fp)
 80014d0:	d0a00315 	stw	r2,-32756(gp)
 80014d4:	00000a06 	br	8001500 <malloc_extend_top+0x188>
    else  /* Someone else called sbrk().  Count those bytes as sbrked_mem. */
      sbrked_mem += brk - (char*)old_end;
 80014d8:	00820134 	movhi	r2,2052
 80014dc:	10908a04 	addi	r2,r2,16936
 80014e0:	10c00017 	ldw	r3,0(r2)
 80014e4:	e13ff317 	ldw	r4,-52(fp)
 80014e8:	e0bffa17 	ldw	r2,-24(fp)
 80014ec:	2085c83a 	sub	r2,r4,r2
 80014f0:	1887883a 	add	r3,r3,r2
 80014f4:	00820134 	movhi	r2,2052
 80014f8:	10908a04 	addi	r2,r2,16936
 80014fc:	10c00015 	stw	r3,0(r2)

    /* Guarantee alignment of first new chunk made from this space */
    front_misalign = (POINTER_UINT)chunk2mem(brk) & MALLOC_ALIGN_MASK;
 8001500:	e0bff317 	ldw	r2,-52(fp)
 8001504:	10800204 	addi	r2,r2,8
 8001508:	108001cc 	andi	r2,r2,7
 800150c:	e0bffd15 	stw	r2,-12(fp)
    if (front_misalign > 0) 
 8001510:	e0bffd17 	ldw	r2,-12(fp)
 8001514:	10000926 	beq	r2,zero,800153c <malloc_extend_top+0x1c4>
    {
      correction = (MALLOC_ALIGNMENT) - front_misalign;
 8001518:	00c00204 	movi	r3,8
 800151c:	e0bffd17 	ldw	r2,-12(fp)
 8001520:	1885c83a 	sub	r2,r3,r2
 8001524:	e0bff415 	stw	r2,-48(fp)
      brk += correction;
 8001528:	e0fff317 	ldw	r3,-52(fp)
 800152c:	e0bff417 	ldw	r2,-48(fp)
 8001530:	1885883a 	add	r2,r3,r2
 8001534:	e0bff315 	stw	r2,-52(fp)
 8001538:	00000106 	br	8001540 <malloc_extend_top+0x1c8>
    }
    else
      correction = 0;
 800153c:	e03ff415 	stw	zero,-48(fp)

    /* Guarantee the next brk will be at a page boundary */
    correction += pagesz - ((POINTER_UINT)(brk + sbrk_size) & (pagesz - 1));
 8001540:	e0fff317 	ldw	r3,-52(fp)
 8001544:	e0bff617 	ldw	r2,-40(fp)
 8001548:	1885883a 	add	r2,r3,r2
 800154c:	1007883a 	mov	r3,r2
 8001550:	e0bffb17 	ldw	r2,-20(fp)
 8001554:	10bfffc4 	addi	r2,r2,-1
 8001558:	1884703a 	and	r2,r3,r2
 800155c:	e0fffb17 	ldw	r3,-20(fp)
 8001560:	1885c83a 	sub	r2,r3,r2
 8001564:	e0fff417 	ldw	r3,-48(fp)
 8001568:	1885883a 	add	r2,r3,r2
 800156c:	e0bff415 	stw	r2,-48(fp)

    /* Allocate correction */
    new_brk = (char*)(MORECORE (correction));
 8001570:	e0bff417 	ldw	r2,-48(fp)
 8001574:	100b883a 	mov	r5,r2
 8001578:	e13ffe17 	ldw	r4,-8(fp)
 800157c:	80035a80 	call	80035a8 <_sbrk_r>
 8001580:	e0bff515 	stw	r2,-44(fp)
    if (new_brk == (char*)(MORECORE_FAILURE))
 8001584:	e0bff517 	ldw	r2,-44(fp)
 8001588:	10bfffd8 	cmpnei	r2,r2,-1
 800158c:	1000051e 	bne	r2,zero,80015a4 <malloc_extend_top+0x22c>
      {
	correction = 0;
 8001590:	e03ff415 	stw	zero,-48(fp)
	correction_failed = 1;
 8001594:	00800044 	movi	r2,1
 8001598:	e0bff715 	stw	r2,-36(fp)
	new_brk = brk;
 800159c:	e0bff317 	ldw	r2,-52(fp)
 80015a0:	e0bff515 	stw	r2,-44(fp)
      }

    sbrked_mem += correction;
 80015a4:	00820134 	movhi	r2,2052
 80015a8:	10908a04 	addi	r2,r2,16936
 80015ac:	10800017 	ldw	r2,0(r2)
 80015b0:	1007883a 	mov	r3,r2
 80015b4:	e0bff417 	ldw	r2,-48(fp)
 80015b8:	1885883a 	add	r2,r3,r2
 80015bc:	1007883a 	mov	r3,r2
 80015c0:	00820134 	movhi	r2,2052
 80015c4:	10908a04 	addi	r2,r2,16936
 80015c8:	10c00015 	stw	r3,0(r2)

    top = (mchunkptr)brk;
 80015cc:	00820134 	movhi	r2,2052
 80015d0:	1083df04 	addi	r2,r2,3964
 80015d4:	e0fff317 	ldw	r3,-52(fp)
 80015d8:	10c00215 	stw	r3,8(r2)
    top_size = new_brk - brk + correction;
 80015dc:	e0fff517 	ldw	r3,-44(fp)
 80015e0:	e0bff317 	ldw	r2,-52(fp)
 80015e4:	1885c83a 	sub	r2,r3,r2
 80015e8:	1007883a 	mov	r3,r2
 80015ec:	e0bff417 	ldw	r2,-48(fp)
 80015f0:	1885883a 	add	r2,r3,r2
 80015f4:	e0bffc15 	stw	r2,-16(fp)
    set_head(top, top_size | PREV_INUSE);
 80015f8:	00820134 	movhi	r2,2052
 80015fc:	1083df04 	addi	r2,r2,3964
 8001600:	10800217 	ldw	r2,8(r2)
 8001604:	e0fffc17 	ldw	r3,-16(fp)
 8001608:	18c00054 	ori	r3,r3,1
 800160c:	10c00115 	stw	r3,4(r2)

    if (old_top != initial_top)
 8001610:	00820134 	movhi	r2,2052
 8001614:	1083df04 	addi	r2,r2,3964
 8001618:	e0fff817 	ldw	r3,-32(fp)
 800161c:	18802826 	beq	r3,r2,80016c0 <malloc_extend_top+0x348>

      /* There must have been an intervening foreign sbrk call. */
      /* A double fencepost is necessary to prevent consolidation */

      /* If not enough space to do this, then user did something very wrong */
      if (old_top_size < MINSIZE) 
 8001620:	e0bff917 	ldw	r2,-28(fp)
 8001624:	10800428 	cmpgeui	r2,r2,16
 8001628:	1000061e 	bne	r2,zero,8001644 <malloc_extend_top+0x2cc>
      {
        set_head(top, PREV_INUSE); /* will force null return from malloc */
 800162c:	00820134 	movhi	r2,2052
 8001630:	1083df04 	addi	r2,r2,3964
 8001634:	10800217 	ldw	r2,8(r2)
 8001638:	00c00044 	movi	r3,1
 800163c:	10c00115 	stw	r3,4(r2)
        return;
 8001640:	00003506 	br	8001718 <malloc_extend_top+0x3a0>
      }

      /* Also keep size a multiple of MALLOC_ALIGNMENT */
      old_top_size = (old_top_size - 3*SIZE_SZ) & ~MALLOC_ALIGN_MASK;
 8001644:	e0bff917 	ldw	r2,-28(fp)
 8001648:	10fffd04 	addi	r3,r2,-12
 800164c:	00bffe04 	movi	r2,-8
 8001650:	1884703a 	and	r2,r3,r2
 8001654:	e0bff915 	stw	r2,-28(fp)
      set_head_size(old_top, old_top_size);
 8001658:	e0bff817 	ldw	r2,-32(fp)
 800165c:	10800117 	ldw	r2,4(r2)
 8001660:	10c0004c 	andi	r3,r2,1
 8001664:	e0bff917 	ldw	r2,-28(fp)
 8001668:	1886b03a 	or	r3,r3,r2
 800166c:	e0bff817 	ldw	r2,-32(fp)
 8001670:	10c00115 	stw	r3,4(r2)
      chunk_at_offset(old_top, old_top_size          )->size =
 8001674:	e0fff817 	ldw	r3,-32(fp)
 8001678:	e0bff917 	ldw	r2,-28(fp)
 800167c:	1885883a 	add	r2,r3,r2
 8001680:	00c00144 	movi	r3,5
 8001684:	10c00115 	stw	r3,4(r2)
        SIZE_SZ|PREV_INUSE;
      chunk_at_offset(old_top, old_top_size + SIZE_SZ)->size =
 8001688:	e0bff917 	ldw	r2,-28(fp)
 800168c:	10800104 	addi	r2,r2,4
 8001690:	e0fff817 	ldw	r3,-32(fp)
 8001694:	1885883a 	add	r2,r3,r2
 8001698:	00c00144 	movi	r3,5
 800169c:	10c00115 	stw	r3,4(r2)
        SIZE_SZ|PREV_INUSE;
      /* If possible, release the rest. */
      if (old_top_size >= MINSIZE) 
 80016a0:	e0bff917 	ldw	r2,-28(fp)
 80016a4:	10800430 	cmpltui	r2,r2,16
 80016a8:	1000051e 	bne	r2,zero,80016c0 <malloc_extend_top+0x348>
        fREe(RCALL chunk2mem(old_top));
 80016ac:	e0bff817 	ldw	r2,-32(fp)
 80016b0:	10800204 	addi	r2,r2,8
 80016b4:	100b883a 	mov	r5,r2
 80016b8:	e13ffe17 	ldw	r4,-8(fp)
 80016bc:	80040300 	call	8004030 <_free_r>
    }
  }

  if ((unsigned long)sbrked_mem > (unsigned long)max_sbrked_mem) 
 80016c0:	00820134 	movhi	r2,2052
 80016c4:	10908a04 	addi	r2,r2,16936
 80016c8:	10800017 	ldw	r2,0(r2)
 80016cc:	1007883a 	mov	r3,r2
 80016d0:	d0a6e417 	ldw	r2,-25712(gp)
 80016d4:	10c0042e 	bgeu	r2,r3,80016e8 <malloc_extend_top+0x370>
    max_sbrked_mem = sbrked_mem;
 80016d8:	00820134 	movhi	r2,2052
 80016dc:	10908a04 	addi	r2,r2,16936
 80016e0:	10800017 	ldw	r2,0(r2)
 80016e4:	d0a6e415 	stw	r2,-25712(gp)
#if HAVE_MMAP
  if ((unsigned long)(mmapped_mem + sbrked_mem) > (unsigned long)max_total_mem) 
    max_total_mem = mmapped_mem + sbrked_mem;
#else
  if ((unsigned long)(sbrked_mem) > (unsigned long)max_total_mem) 
 80016e8:	00820134 	movhi	r2,2052
 80016ec:	10908a04 	addi	r2,r2,16936
 80016f0:	10800017 	ldw	r2,0(r2)
 80016f4:	1007883a 	mov	r3,r2
 80016f8:	d0a6e517 	ldw	r2,-25708(gp)
 80016fc:	10c0062e 	bgeu	r2,r3,8001718 <malloc_extend_top+0x3a0>
    max_total_mem = sbrked_mem;
 8001700:	00820134 	movhi	r2,2052
 8001704:	10908a04 	addi	r2,r2,16936
 8001708:	10800017 	ldw	r2,0(r2)
 800170c:	d0a6e515 	stw	r2,-25708(gp)
 8001710:	00000106 	br	8001718 <malloc_extend_top+0x3a0>
  brk = (char*)(MORECORE (sbrk_size));

  /* Fail if sbrk failed or if a foreign sbrk call killed our space */
  if (brk == (char*)(MORECORE_FAILURE) || 
      (brk < old_end && old_top != initial_top))
    return;
 8001714:	0001883a 	nop
#endif

  /* We always land on a page boundary */
  assert(((unsigned long)((char*)top + top_size) & (pagesz - 1)) == 0
	 || correction_failed);
}
 8001718:	e037883a 	mov	sp,fp
 800171c:	dfc00117 	ldw	ra,4(sp)
 8001720:	df000017 	ldw	fp,0(sp)
 8001724:	dec00204 	addi	sp,sp,8
 8001728:	f800283a 	ret

0800172c <_malloc_r>:
#if __STD_C
Void_t* mALLOc(RARG size_t bytes)
#else
Void_t* mALLOc(RARG bytes) RDECL size_t bytes;
#endif
{
 800172c:	deffef04 	addi	sp,sp,-68
 8001730:	dfc01015 	stw	ra,64(sp)
 8001734:	df000f15 	stw	fp,60(sp)
 8001738:	df000f04 	addi	fp,sp,60
 800173c:	e13ffe15 	stw	r4,-8(fp)
 8001740:	e17fff15 	stw	r5,-4(fp)
  int       startidx;                /* first bin of a traversed block */
  mchunkptr fwd;                     /* misc temp for linking */
  mchunkptr bck;                     /* misc temp for linking */
  mbinptr q;                         /* misc temp */

  INTERNAL_SIZE_T nb  = request2size(bytes);  /* padded request size; */
 8001744:	e0bfff17 	ldw	r2,-4(fp)
 8001748:	108002c4 	addi	r2,r2,11
 800174c:	108005f0 	cmpltui	r2,r2,23
 8001750:	1000051e 	bne	r2,zero,8001768 <_malloc_r+0x3c>
 8001754:	e0bfff17 	ldw	r2,-4(fp)
 8001758:	10c002c4 	addi	r3,r2,11
 800175c:	00bffe04 	movi	r2,-8
 8001760:	1884703a 	and	r2,r3,r2
 8001764:	00000106 	br	800176c <_malloc_r+0x40>
 8001768:	00800404 	movi	r2,16
 800176c:	e0bffa15 	stw	r2,-24(fp)

  /* Check for overflow and just fail, if so. */
  if (nb > INT_MAX || nb < bytes)
 8001770:	e0bffa17 	ldw	r2,-24(fp)
 8001774:	10000316 	blt	r2,zero,8001784 <_malloc_r+0x58>
 8001778:	e0fffa17 	ldw	r3,-24(fp)
 800177c:	e0bfff17 	ldw	r2,-4(fp)
 8001780:	1880052e 	bgeu	r3,r2,8001798 <_malloc_r+0x6c>
  {
    RERRNO = ENOMEM;
 8001784:	e0bffe17 	ldw	r2,-8(fp)
 8001788:	00c00304 	movi	r3,12
 800178c:	10c00015 	stw	r3,0(r2)
    return 0;
 8001790:	0005883a 	mov	r2,zero
 8001794:	0002bf06 	br	8002294 <_malloc_r+0xb68>
  }

  MALLOC_LOCK;
 8001798:	e13ffe17 	ldw	r4,-8(fp)
 800179c:	80052440 	call	8005244 <__malloc_lock>

  /* Check for exact match in a bin */

  if (is_small_request(nb))  /* Faster version for small requests */
 80017a0:	e0bffa17 	ldw	r2,-24(fp)
 80017a4:	10807e28 	cmpgeui	r2,r2,504
 80017a8:	10003f1e 	bne	r2,zero,80018a8 <_malloc_r+0x17c>
  {
    idx = smallbin_index(nb); 
 80017ac:	e0bffa17 	ldw	r2,-24(fp)
 80017b0:	1004d0fa 	srli	r2,r2,3
 80017b4:	e0bff215 	stw	r2,-56(fp)

    /* No traversal or size check necessary for small bins.  */

    q = bin_at(idx);
 80017b8:	e0bff217 	ldw	r2,-56(fp)
 80017bc:	10800044 	addi	r2,r2,1
 80017c0:	1085883a 	add	r2,r2,r2
 80017c4:	1085883a 	add	r2,r2,r2
 80017c8:	1087883a 	add	r3,r2,r2
 80017cc:	00820134 	movhi	r2,2052
 80017d0:	1083df04 	addi	r2,r2,3964
 80017d4:	1885883a 	add	r2,r3,r2
 80017d8:	10bffe04 	addi	r2,r2,-8
 80017dc:	e0bff915 	stw	r2,-28(fp)
    victim = last(q);
 80017e0:	e0bff917 	ldw	r2,-28(fp)
 80017e4:	10800317 	ldw	r2,12(r2)
 80017e8:	e0bff115 	stw	r2,-60(fp)

#if MALLOC_ALIGN != 16
    /* Also scan the next one, since it would have a remainder < MINSIZE */
    if (victim == q)
 80017ec:	e0fff117 	ldw	r3,-60(fp)
 80017f0:	e0bff917 	ldw	r2,-28(fp)
 80017f4:	1880061e 	bne	r3,r2,8001810 <_malloc_r+0xe4>
    {
      q = next_bin(q);
 80017f8:	e0bff917 	ldw	r2,-28(fp)
 80017fc:	10800204 	addi	r2,r2,8
 8001800:	e0bff915 	stw	r2,-28(fp)
      victim = last(q);
 8001804:	e0bff917 	ldw	r2,-28(fp)
 8001808:	10800317 	ldw	r2,12(r2)
 800180c:	e0bff115 	stw	r2,-60(fp)
    }
#endif
    if (victim != q)
 8001810:	e0fff117 	ldw	r3,-60(fp)
 8001814:	e0bff917 	ldw	r2,-28(fp)
 8001818:	18801f26 	beq	r3,r2,8001898 <_malloc_r+0x16c>
    {
      victim_size = chunksize(victim);
 800181c:	e0bff117 	ldw	r2,-60(fp)
 8001820:	10c00117 	ldw	r3,4(r2)
 8001824:	00bfff04 	movi	r2,-4
 8001828:	1884703a 	and	r2,r3,r2
 800182c:	e0bffb15 	stw	r2,-20(fp)
      unlink(victim, bck, fwd);
 8001830:	e0bff117 	ldw	r2,-60(fp)
 8001834:	10800317 	ldw	r2,12(r2)
 8001838:	e0bff815 	stw	r2,-32(fp)
 800183c:	e0bff117 	ldw	r2,-60(fp)
 8001840:	10800217 	ldw	r2,8(r2)
 8001844:	e0bff715 	stw	r2,-36(fp)
 8001848:	e0bff717 	ldw	r2,-36(fp)
 800184c:	e0fff817 	ldw	r3,-32(fp)
 8001850:	10c00315 	stw	r3,12(r2)
 8001854:	e0bff817 	ldw	r2,-32(fp)
 8001858:	e0fff717 	ldw	r3,-36(fp)
 800185c:	10c00215 	stw	r3,8(r2)
      set_inuse_bit_at_offset(victim, victim_size);
 8001860:	e0fff117 	ldw	r3,-60(fp)
 8001864:	e0bffb17 	ldw	r2,-20(fp)
 8001868:	1885883a 	add	r2,r3,r2
 800186c:	e13ff117 	ldw	r4,-60(fp)
 8001870:	e0fffb17 	ldw	r3,-20(fp)
 8001874:	20c7883a 	add	r3,r4,r3
 8001878:	18c00117 	ldw	r3,4(r3)
 800187c:	18c00054 	ori	r3,r3,1
 8001880:	10c00115 	stw	r3,4(r2)
      check_malloced_chunk(victim, nb);
      MALLOC_UNLOCK;
 8001884:	e13ffe17 	ldw	r4,-8(fp)
 8001888:	80052680 	call	8005268 <__malloc_unlock>
      return chunk2mem(victim);
 800188c:	e0bff117 	ldw	r2,-60(fp)
 8001890:	10800204 	addi	r2,r2,8
 8001894:	00027f06 	br	8002294 <_malloc_r+0xb68>
    }

    idx += 2; /* Set for bin scan below. We've already scanned 2 bins. */
 8001898:	e0bff217 	ldw	r2,-56(fp)
 800189c:	10800084 	addi	r2,r2,2
 80018a0:	e0bff215 	stw	r2,-56(fp)
 80018a4:	00007306 	br	8001a74 <_malloc_r+0x348>

  }
  else
  {
    idx = bin_index(nb);
 80018a8:	e0bffa17 	ldw	r2,-24(fp)
 80018ac:	1004d27a 	srli	r2,r2,9
 80018b0:	1000031e 	bne	r2,zero,80018c0 <_malloc_r+0x194>
 80018b4:	e0bffa17 	ldw	r2,-24(fp)
 80018b8:	1004d0fa 	srli	r2,r2,3
 80018bc:	00002906 	br	8001964 <_malloc_r+0x238>
 80018c0:	e0bffa17 	ldw	r2,-24(fp)
 80018c4:	1004d27a 	srli	r2,r2,9
 80018c8:	10800168 	cmpgeui	r2,r2,5
 80018cc:	1000041e 	bne	r2,zero,80018e0 <_malloc_r+0x1b4>
 80018d0:	e0bffa17 	ldw	r2,-24(fp)
 80018d4:	1004d1ba 	srli	r2,r2,6
 80018d8:	10800e04 	addi	r2,r2,56
 80018dc:	00002106 	br	8001964 <_malloc_r+0x238>
 80018e0:	e0bffa17 	ldw	r2,-24(fp)
 80018e4:	1004d27a 	srli	r2,r2,9
 80018e8:	10800568 	cmpgeui	r2,r2,21
 80018ec:	1000041e 	bne	r2,zero,8001900 <_malloc_r+0x1d4>
 80018f0:	e0bffa17 	ldw	r2,-24(fp)
 80018f4:	1004d27a 	srli	r2,r2,9
 80018f8:	108016c4 	addi	r2,r2,91
 80018fc:	00001906 	br	8001964 <_malloc_r+0x238>
 8001900:	e0bffa17 	ldw	r2,-24(fp)
 8001904:	1004d27a 	srli	r2,r2,9
 8001908:	10801568 	cmpgeui	r2,r2,85
 800190c:	1000041e 	bne	r2,zero,8001920 <_malloc_r+0x1f4>
 8001910:	e0bffa17 	ldw	r2,-24(fp)
 8001914:	1004d33a 	srli	r2,r2,12
 8001918:	10801b84 	addi	r2,r2,110
 800191c:	00001106 	br	8001964 <_malloc_r+0x238>
 8001920:	e0bffa17 	ldw	r2,-24(fp)
 8001924:	1004d27a 	srli	r2,r2,9
 8001928:	10805568 	cmpgeui	r2,r2,341
 800192c:	1000041e 	bne	r2,zero,8001940 <_malloc_r+0x214>
 8001930:	e0bffa17 	ldw	r2,-24(fp)
 8001934:	1004d3fa 	srli	r2,r2,15
 8001938:	10801dc4 	addi	r2,r2,119
 800193c:	00000906 	br	8001964 <_malloc_r+0x238>
 8001940:	e0bffa17 	ldw	r2,-24(fp)
 8001944:	1004d27a 	srli	r2,r2,9
 8001948:	10815568 	cmpgeui	r2,r2,1365
 800194c:	1000041e 	bne	r2,zero,8001960 <_malloc_r+0x234>
 8001950:	e0bffa17 	ldw	r2,-24(fp)
 8001954:	1004d4ba 	srli	r2,r2,18
 8001958:	10801f04 	addi	r2,r2,124
 800195c:	00000106 	br	8001964 <_malloc_r+0x238>
 8001960:	00801f84 	movi	r2,126
 8001964:	e0bff215 	stw	r2,-56(fp)
    bin = bin_at(idx);
 8001968:	e0bff217 	ldw	r2,-56(fp)
 800196c:	10800044 	addi	r2,r2,1
 8001970:	1085883a 	add	r2,r2,r2
 8001974:	1085883a 	add	r2,r2,r2
 8001978:	1087883a 	add	r3,r2,r2
 800197c:	00820134 	movhi	r2,2052
 8001980:	1083df04 	addi	r2,r2,3964
 8001984:	1885883a 	add	r2,r3,r2
 8001988:	10bffe04 	addi	r2,r2,-8
 800198c:	e0bff315 	stw	r2,-52(fp)

    for (victim = last(bin); victim != bin; victim = victim->bk)
 8001990:	e0bff317 	ldw	r2,-52(fp)
 8001994:	10800317 	ldw	r2,12(r2)
 8001998:	e0bff115 	stw	r2,-60(fp)
 800199c:	00002f06 	br	8001a5c <_malloc_r+0x330>
    {
      victim_size = chunksize(victim);
 80019a0:	e0bff117 	ldw	r2,-60(fp)
 80019a4:	10c00117 	ldw	r3,4(r2)
 80019a8:	00bfff04 	movi	r2,-4
 80019ac:	1884703a 	and	r2,r3,r2
 80019b0:	e0bffb15 	stw	r2,-20(fp)
      remainder_size = long_sub_size_t(victim_size, nb);
 80019b4:	e0fffb17 	ldw	r3,-20(fp)
 80019b8:	e0bffa17 	ldw	r2,-24(fp)
 80019bc:	1885c83a 	sub	r2,r3,r2
 80019c0:	e0bff415 	stw	r2,-48(fp)
      
      if (remainder_size >= (long)MINSIZE) /* too big */
 80019c4:	e0bff417 	ldw	r2,-48(fp)
 80019c8:	10800410 	cmplti	r2,r2,16
 80019cc:	1000041e 	bne	r2,zero,80019e0 <_malloc_r+0x2b4>
      {
        --idx; /* adjust to rescan below after checking last remainder */
 80019d0:	e0bff217 	ldw	r2,-56(fp)
 80019d4:	10bfffc4 	addi	r2,r2,-1
 80019d8:	e0bff215 	stw	r2,-56(fp)
        break;   
 80019dc:	00002206 	br	8001a68 <_malloc_r+0x33c>
      }

      else if (remainder_size >= 0) /* exact fit */
 80019e0:	e0bff417 	ldw	r2,-48(fp)
 80019e4:	10001a16 	blt	r2,zero,8001a50 <_malloc_r+0x324>
      {
        unlink(victim, bck, fwd);
 80019e8:	e0bff117 	ldw	r2,-60(fp)
 80019ec:	10800317 	ldw	r2,12(r2)
 80019f0:	e0bff815 	stw	r2,-32(fp)
 80019f4:	e0bff117 	ldw	r2,-60(fp)
 80019f8:	10800217 	ldw	r2,8(r2)
 80019fc:	e0bff715 	stw	r2,-36(fp)
 8001a00:	e0bff717 	ldw	r2,-36(fp)
 8001a04:	e0fff817 	ldw	r3,-32(fp)
 8001a08:	10c00315 	stw	r3,12(r2)
 8001a0c:	e0bff817 	ldw	r2,-32(fp)
 8001a10:	e0fff717 	ldw	r3,-36(fp)
 8001a14:	10c00215 	stw	r3,8(r2)
        set_inuse_bit_at_offset(victim, victim_size);
 8001a18:	e0fff117 	ldw	r3,-60(fp)
 8001a1c:	e0bffb17 	ldw	r2,-20(fp)
 8001a20:	1885883a 	add	r2,r3,r2
 8001a24:	e13ff117 	ldw	r4,-60(fp)
 8001a28:	e0fffb17 	ldw	r3,-20(fp)
 8001a2c:	20c7883a 	add	r3,r4,r3
 8001a30:	18c00117 	ldw	r3,4(r3)
 8001a34:	18c00054 	ori	r3,r3,1
 8001a38:	10c00115 	stw	r3,4(r2)
        check_malloced_chunk(victim, nb);
	MALLOC_UNLOCK;
 8001a3c:	e13ffe17 	ldw	r4,-8(fp)
 8001a40:	80052680 	call	8005268 <__malloc_unlock>
        return chunk2mem(victim);
 8001a44:	e0bff117 	ldw	r2,-60(fp)
 8001a48:	10800204 	addi	r2,r2,8
 8001a4c:	00021106 	br	8002294 <_malloc_r+0xb68>
  else
  {
    idx = bin_index(nb);
    bin = bin_at(idx);

    for (victim = last(bin); victim != bin; victim = victim->bk)
 8001a50:	e0bff117 	ldw	r2,-60(fp)
 8001a54:	10800317 	ldw	r2,12(r2)
 8001a58:	e0bff115 	stw	r2,-60(fp)
 8001a5c:	e0fff117 	ldw	r3,-60(fp)
 8001a60:	e0bff317 	ldw	r2,-52(fp)
 8001a64:	18bfce1e 	bne	r3,r2,80019a0 <_malloc_r+0x274>
	MALLOC_UNLOCK;
        return chunk2mem(victim);
      }
    }

    ++idx; 
 8001a68:	e0bff217 	ldw	r2,-56(fp)
 8001a6c:	10800044 	addi	r2,r2,1
 8001a70:	e0bff215 	stw	r2,-56(fp)

  }

  /* Try to use the last split-off remainder */

  if ( (victim = last_remainder->fd) != last_remainder)
 8001a74:	00820134 	movhi	r2,2052
 8001a78:	1083e104 	addi	r2,r2,3972
 8001a7c:	10800217 	ldw	r2,8(r2)
 8001a80:	e0bff115 	stw	r2,-60(fp)
 8001a84:	00820134 	movhi	r2,2052
 8001a88:	1083e104 	addi	r2,r2,3972
 8001a8c:	e0fff117 	ldw	r3,-60(fp)
 8001a90:	1880e626 	beq	r3,r2,8001e2c <_malloc_r+0x700>
  {
    victim_size = chunksize(victim);
 8001a94:	e0bff117 	ldw	r2,-60(fp)
 8001a98:	10c00117 	ldw	r3,4(r2)
 8001a9c:	00bfff04 	movi	r2,-4
 8001aa0:	1884703a 	and	r2,r3,r2
 8001aa4:	e0bffb15 	stw	r2,-20(fp)
    remainder_size = long_sub_size_t(victim_size, nb);
 8001aa8:	e0fffb17 	ldw	r3,-20(fp)
 8001aac:	e0bffa17 	ldw	r2,-24(fp)
 8001ab0:	1885c83a 	sub	r2,r3,r2
 8001ab4:	e0bff415 	stw	r2,-48(fp)

    if (remainder_size >= (long)MINSIZE) /* re-split */
 8001ab8:	e0bff417 	ldw	r2,-48(fp)
 8001abc:	10800410 	cmplti	r2,r2,16
 8001ac0:	1000271e 	bne	r2,zero,8001b60 <_malloc_r+0x434>
    {
      remainder = chunk_at_offset(victim, nb);
 8001ac4:	e0fff117 	ldw	r3,-60(fp)
 8001ac8:	e0bffa17 	ldw	r2,-24(fp)
 8001acc:	1885883a 	add	r2,r3,r2
 8001ad0:	e0bffc15 	stw	r2,-16(fp)
      set_head(victim, nb | PREV_INUSE);
 8001ad4:	e0bffa17 	ldw	r2,-24(fp)
 8001ad8:	10c00054 	ori	r3,r2,1
 8001adc:	e0bff117 	ldw	r2,-60(fp)
 8001ae0:	10c00115 	stw	r3,4(r2)
      link_last_remainder(remainder);
 8001ae4:	00c20134 	movhi	r3,2052
 8001ae8:	18c3e104 	addi	r3,r3,3972
 8001aec:	00820134 	movhi	r2,2052
 8001af0:	1083e104 	addi	r2,r2,3972
 8001af4:	e13ffc17 	ldw	r4,-16(fp)
 8001af8:	11000315 	stw	r4,12(r2)
 8001afc:	10800317 	ldw	r2,12(r2)
 8001b00:	18800215 	stw	r2,8(r3)
 8001b04:	00820134 	movhi	r2,2052
 8001b08:	1083e104 	addi	r2,r2,3972
 8001b0c:	e0fffc17 	ldw	r3,-16(fp)
 8001b10:	18800315 	stw	r2,12(r3)
 8001b14:	e0bffc17 	ldw	r2,-16(fp)
 8001b18:	10c00317 	ldw	r3,12(r2)
 8001b1c:	e0bffc17 	ldw	r2,-16(fp)
 8001b20:	10c00215 	stw	r3,8(r2)
      set_head(remainder, remainder_size | PREV_INUSE);
 8001b24:	e0bff417 	ldw	r2,-48(fp)
 8001b28:	10800054 	ori	r2,r2,1
 8001b2c:	1007883a 	mov	r3,r2
 8001b30:	e0bffc17 	ldw	r2,-16(fp)
 8001b34:	10c00115 	stw	r3,4(r2)
      set_foot(remainder, remainder_size);
 8001b38:	e0bff417 	ldw	r2,-48(fp)
 8001b3c:	e0fffc17 	ldw	r3,-16(fp)
 8001b40:	1885883a 	add	r2,r3,r2
 8001b44:	e0fff417 	ldw	r3,-48(fp)
 8001b48:	10c00015 	stw	r3,0(r2)
      check_malloced_chunk(victim, nb);
      MALLOC_UNLOCK;
 8001b4c:	e13ffe17 	ldw	r4,-8(fp)
 8001b50:	80052680 	call	8005268 <__malloc_unlock>
      return chunk2mem(victim);
 8001b54:	e0bff117 	ldw	r2,-60(fp)
 8001b58:	10800204 	addi	r2,r2,8
 8001b5c:	0001cd06 	br	8002294 <_malloc_r+0xb68>
    }

    clear_last_remainder;
 8001b60:	00c20134 	movhi	r3,2052
 8001b64:	18c3e104 	addi	r3,r3,3972
 8001b68:	00820134 	movhi	r2,2052
 8001b6c:	1083e104 	addi	r2,r2,3972
 8001b70:	01020134 	movhi	r4,2052
 8001b74:	2103e104 	addi	r4,r4,3972
 8001b78:	11000315 	stw	r4,12(r2)
 8001b7c:	10800317 	ldw	r2,12(r2)
 8001b80:	18800215 	stw	r2,8(r3)

    if (remainder_size >= 0)  /* exhaust */
 8001b84:	e0bff417 	ldw	r2,-48(fp)
 8001b88:	10000e16 	blt	r2,zero,8001bc4 <_malloc_r+0x498>
    {
      set_inuse_bit_at_offset(victim, victim_size);
 8001b8c:	e0fff117 	ldw	r3,-60(fp)
 8001b90:	e0bffb17 	ldw	r2,-20(fp)
 8001b94:	1885883a 	add	r2,r3,r2
 8001b98:	e13ff117 	ldw	r4,-60(fp)
 8001b9c:	e0fffb17 	ldw	r3,-20(fp)
 8001ba0:	20c7883a 	add	r3,r4,r3
 8001ba4:	18c00117 	ldw	r3,4(r3)
 8001ba8:	18c00054 	ori	r3,r3,1
 8001bac:	10c00115 	stw	r3,4(r2)
      check_malloced_chunk(victim, nb);
      MALLOC_UNLOCK;
 8001bb0:	e13ffe17 	ldw	r4,-8(fp)
 8001bb4:	80052680 	call	8005268 <__malloc_unlock>
      return chunk2mem(victim);
 8001bb8:	e0bff117 	ldw	r2,-60(fp)
 8001bbc:	10800204 	addi	r2,r2,8
 8001bc0:	0001b406 	br	8002294 <_malloc_r+0xb68>
    }

    /* Else place in bin */

    frontlink(victim, victim_size, remainder_index, bck, fwd);
 8001bc4:	e0bffb17 	ldw	r2,-20(fp)
 8001bc8:	10808028 	cmpgeui	r2,r2,512
 8001bcc:	10002c1e 	bne	r2,zero,8001c80 <_malloc_r+0x554>
 8001bd0:	e0bffb17 	ldw	r2,-20(fp)
 8001bd4:	1004d0fa 	srli	r2,r2,3
 8001bd8:	e0bffd15 	stw	r2,-12(fp)
 8001bdc:	00c20134 	movhi	r3,2052
 8001be0:	18c3df04 	addi	r3,r3,3964
 8001be4:	00820134 	movhi	r2,2052
 8001be8:	1083df04 	addi	r2,r2,3964
 8001bec:	11000117 	ldw	r4,4(r2)
 8001bf0:	e0bffd17 	ldw	r2,-12(fp)
 8001bf4:	1000010e 	bge	r2,zero,8001bfc <_malloc_r+0x4d0>
 8001bf8:	108000c4 	addi	r2,r2,3
 8001bfc:	1005d0ba 	srai	r2,r2,2
 8001c00:	100b883a 	mov	r5,r2
 8001c04:	00800044 	movi	r2,1
 8001c08:	1144983a 	sll	r2,r2,r5
 8001c0c:	2084b03a 	or	r2,r4,r2
 8001c10:	18800115 	stw	r2,4(r3)
 8001c14:	e0bffd17 	ldw	r2,-12(fp)
 8001c18:	10800044 	addi	r2,r2,1
 8001c1c:	1085883a 	add	r2,r2,r2
 8001c20:	1085883a 	add	r2,r2,r2
 8001c24:	1087883a 	add	r3,r2,r2
 8001c28:	00820134 	movhi	r2,2052
 8001c2c:	1083df04 	addi	r2,r2,3964
 8001c30:	1885883a 	add	r2,r3,r2
 8001c34:	10bffe04 	addi	r2,r2,-8
 8001c38:	e0bff815 	stw	r2,-32(fp)
 8001c3c:	e0bff817 	ldw	r2,-32(fp)
 8001c40:	10800217 	ldw	r2,8(r2)
 8001c44:	e0bff715 	stw	r2,-36(fp)
 8001c48:	e0bff117 	ldw	r2,-60(fp)
 8001c4c:	e0fff817 	ldw	r3,-32(fp)
 8001c50:	10c00315 	stw	r3,12(r2)
 8001c54:	e0bff117 	ldw	r2,-60(fp)
 8001c58:	e0fff717 	ldw	r3,-36(fp)
 8001c5c:	10c00215 	stw	r3,8(r2)
 8001c60:	e0bff817 	ldw	r2,-32(fp)
 8001c64:	e0fff117 	ldw	r3,-60(fp)
 8001c68:	10c00215 	stw	r3,8(r2)
 8001c6c:	e0bff817 	ldw	r2,-32(fp)
 8001c70:	10c00217 	ldw	r3,8(r2)
 8001c74:	e0bff717 	ldw	r2,-36(fp)
 8001c78:	10c00315 	stw	r3,12(r2)
 8001c7c:	00006b06 	br	8001e2c <_malloc_r+0x700>
 8001c80:	e0bffb17 	ldw	r2,-20(fp)
 8001c84:	1004d27a 	srli	r2,r2,9
 8001c88:	1000031e 	bne	r2,zero,8001c98 <_malloc_r+0x56c>
 8001c8c:	e0bffb17 	ldw	r2,-20(fp)
 8001c90:	1004d0fa 	srli	r2,r2,3
 8001c94:	00002906 	br	8001d3c <_malloc_r+0x610>
 8001c98:	e0bffb17 	ldw	r2,-20(fp)
 8001c9c:	1004d27a 	srli	r2,r2,9
 8001ca0:	10800168 	cmpgeui	r2,r2,5
 8001ca4:	1000041e 	bne	r2,zero,8001cb8 <_malloc_r+0x58c>
 8001ca8:	e0bffb17 	ldw	r2,-20(fp)
 8001cac:	1004d1ba 	srli	r2,r2,6
 8001cb0:	10800e04 	addi	r2,r2,56
 8001cb4:	00002106 	br	8001d3c <_malloc_r+0x610>
 8001cb8:	e0bffb17 	ldw	r2,-20(fp)
 8001cbc:	1004d27a 	srli	r2,r2,9
 8001cc0:	10800568 	cmpgeui	r2,r2,21
 8001cc4:	1000041e 	bne	r2,zero,8001cd8 <_malloc_r+0x5ac>
 8001cc8:	e0bffb17 	ldw	r2,-20(fp)
 8001ccc:	1004d27a 	srli	r2,r2,9
 8001cd0:	108016c4 	addi	r2,r2,91
 8001cd4:	00001906 	br	8001d3c <_malloc_r+0x610>
 8001cd8:	e0bffb17 	ldw	r2,-20(fp)
 8001cdc:	1004d27a 	srli	r2,r2,9
 8001ce0:	10801568 	cmpgeui	r2,r2,85
 8001ce4:	1000041e 	bne	r2,zero,8001cf8 <_malloc_r+0x5cc>
 8001ce8:	e0bffb17 	ldw	r2,-20(fp)
 8001cec:	1004d33a 	srli	r2,r2,12
 8001cf0:	10801b84 	addi	r2,r2,110
 8001cf4:	00001106 	br	8001d3c <_malloc_r+0x610>
 8001cf8:	e0bffb17 	ldw	r2,-20(fp)
 8001cfc:	1004d27a 	srli	r2,r2,9
 8001d00:	10805568 	cmpgeui	r2,r2,341
 8001d04:	1000041e 	bne	r2,zero,8001d18 <_malloc_r+0x5ec>
 8001d08:	e0bffb17 	ldw	r2,-20(fp)
 8001d0c:	1004d3fa 	srli	r2,r2,15
 8001d10:	10801dc4 	addi	r2,r2,119
 8001d14:	00000906 	br	8001d3c <_malloc_r+0x610>
 8001d18:	e0bffb17 	ldw	r2,-20(fp)
 8001d1c:	1004d27a 	srli	r2,r2,9
 8001d20:	10815568 	cmpgeui	r2,r2,1365
 8001d24:	1000041e 	bne	r2,zero,8001d38 <_malloc_r+0x60c>
 8001d28:	e0bffb17 	ldw	r2,-20(fp)
 8001d2c:	1004d4ba 	srli	r2,r2,18
 8001d30:	10801f04 	addi	r2,r2,124
 8001d34:	00000106 	br	8001d3c <_malloc_r+0x610>
 8001d38:	00801f84 	movi	r2,126
 8001d3c:	e0bffd15 	stw	r2,-12(fp)
 8001d40:	e0bffd17 	ldw	r2,-12(fp)
 8001d44:	10800044 	addi	r2,r2,1
 8001d48:	1085883a 	add	r2,r2,r2
 8001d4c:	1085883a 	add	r2,r2,r2
 8001d50:	1087883a 	add	r3,r2,r2
 8001d54:	00820134 	movhi	r2,2052
 8001d58:	1083df04 	addi	r2,r2,3964
 8001d5c:	1885883a 	add	r2,r3,r2
 8001d60:	10bffe04 	addi	r2,r2,-8
 8001d64:	e0bff815 	stw	r2,-32(fp)
 8001d68:	e0bff817 	ldw	r2,-32(fp)
 8001d6c:	10800217 	ldw	r2,8(r2)
 8001d70:	e0bff715 	stw	r2,-36(fp)
 8001d74:	e0fff717 	ldw	r3,-36(fp)
 8001d78:	e0bff817 	ldw	r2,-32(fp)
 8001d7c:	1880121e 	bne	r3,r2,8001dc8 <_malloc_r+0x69c>
 8001d80:	00c20134 	movhi	r3,2052
 8001d84:	18c3df04 	addi	r3,r3,3964
 8001d88:	00820134 	movhi	r2,2052
 8001d8c:	1083df04 	addi	r2,r2,3964
 8001d90:	11000117 	ldw	r4,4(r2)
 8001d94:	e0bffd17 	ldw	r2,-12(fp)
 8001d98:	1000010e 	bge	r2,zero,8001da0 <_malloc_r+0x674>
 8001d9c:	108000c4 	addi	r2,r2,3
 8001da0:	1005d0ba 	srai	r2,r2,2
 8001da4:	100b883a 	mov	r5,r2
 8001da8:	00800044 	movi	r2,1
 8001dac:	1144983a 	sll	r2,r2,r5
 8001db0:	2084b03a 	or	r2,r4,r2
 8001db4:	18800115 	stw	r2,4(r3)
 8001db8:	00000f06 	br	8001df8 <_malloc_r+0x6cc>
 8001dbc:	e0bff717 	ldw	r2,-36(fp)
 8001dc0:	10800217 	ldw	r2,8(r2)
 8001dc4:	e0bff715 	stw	r2,-36(fp)
 8001dc8:	e0fff717 	ldw	r3,-36(fp)
 8001dcc:	e0bff817 	ldw	r2,-32(fp)
 8001dd0:	18800626 	beq	r3,r2,8001dec <_malloc_r+0x6c0>
 8001dd4:	e0bff717 	ldw	r2,-36(fp)
 8001dd8:	10c00117 	ldw	r3,4(r2)
 8001ddc:	00bfff04 	movi	r2,-4
 8001de0:	1884703a 	and	r2,r3,r2
 8001de4:	e0fffb17 	ldw	r3,-20(fp)
 8001de8:	18bff436 	bltu	r3,r2,8001dbc <_malloc_r+0x690>
 8001dec:	e0bff717 	ldw	r2,-36(fp)
 8001df0:	10800317 	ldw	r2,12(r2)
 8001df4:	e0bff815 	stw	r2,-32(fp)
 8001df8:	e0bff117 	ldw	r2,-60(fp)
 8001dfc:	e0fff817 	ldw	r3,-32(fp)
 8001e00:	10c00315 	stw	r3,12(r2)
 8001e04:	e0bff117 	ldw	r2,-60(fp)
 8001e08:	e0fff717 	ldw	r3,-36(fp)
 8001e0c:	10c00215 	stw	r3,8(r2)
 8001e10:	e0bff817 	ldw	r2,-32(fp)
 8001e14:	e0fff117 	ldw	r3,-60(fp)
 8001e18:	10c00215 	stw	r3,8(r2)
 8001e1c:	e0bff817 	ldw	r2,-32(fp)
 8001e20:	10c00217 	ldw	r3,8(r2)
 8001e24:	e0bff717 	ldw	r2,-36(fp)
 8001e28:	10c00315 	stw	r3,12(r2)
  /* 
     If there are any possibly nonempty big-enough blocks, 
     search for best fitting chunk by scanning bins in blockwidth units.
  */

  if ( (block = idx2binblock(idx)) <= binblocks)  
 8001e2c:	e0bff217 	ldw	r2,-56(fp)
 8001e30:	1000010e 	bge	r2,zero,8001e38 <_malloc_r+0x70c>
 8001e34:	108000c4 	addi	r2,r2,3
 8001e38:	1005d0ba 	srai	r2,r2,2
 8001e3c:	1007883a 	mov	r3,r2
 8001e40:	00800044 	movi	r2,1
 8001e44:	10c4983a 	sll	r2,r2,r3
 8001e48:	e0bff515 	stw	r2,-44(fp)
 8001e4c:	00820134 	movhi	r2,2052
 8001e50:	1083df04 	addi	r2,r2,3964
 8001e54:	10c00117 	ldw	r3,4(r2)
 8001e58:	e0bff517 	ldw	r2,-44(fp)
 8001e5c:	1880c636 	bltu	r3,r2,8002178 <_malloc_r+0xa4c>
  {

    /* Get to the first marked block */

    if ( (block & binblocks) == 0) 
 8001e60:	00820134 	movhi	r2,2052
 8001e64:	1083df04 	addi	r2,r2,3964
 8001e68:	10c00117 	ldw	r3,4(r2)
 8001e6c:	e0bff517 	ldw	r2,-44(fp)
 8001e70:	1884703a 	and	r2,r3,r2
 8001e74:	1000151e 	bne	r2,zero,8001ecc <_malloc_r+0x7a0>
    {
      /* force to an even block boundary */
      idx = (idx & ~(BINBLOCKWIDTH - 1)) + BINBLOCKWIDTH;
 8001e78:	e0fff217 	ldw	r3,-56(fp)
 8001e7c:	00bfff04 	movi	r2,-4
 8001e80:	1884703a 	and	r2,r3,r2
 8001e84:	10800104 	addi	r2,r2,4
 8001e88:	e0bff215 	stw	r2,-56(fp)
      block <<= 1;
 8001e8c:	e0bff517 	ldw	r2,-44(fp)
 8001e90:	1085883a 	add	r2,r2,r2
 8001e94:	e0bff515 	stw	r2,-44(fp)
      while ((block & binblocks) == 0)
 8001e98:	00000606 	br	8001eb4 <_malloc_r+0x788>
      {
        idx += BINBLOCKWIDTH;
 8001e9c:	e0bff217 	ldw	r2,-56(fp)
 8001ea0:	10800104 	addi	r2,r2,4
 8001ea4:	e0bff215 	stw	r2,-56(fp)
        block <<= 1;
 8001ea8:	e0bff517 	ldw	r2,-44(fp)
 8001eac:	1085883a 	add	r2,r2,r2
 8001eb0:	e0bff515 	stw	r2,-44(fp)
    if ( (block & binblocks) == 0) 
    {
      /* force to an even block boundary */
      idx = (idx & ~(BINBLOCKWIDTH - 1)) + BINBLOCKWIDTH;
      block <<= 1;
      while ((block & binblocks) == 0)
 8001eb4:	00820134 	movhi	r2,2052
 8001eb8:	1083df04 	addi	r2,r2,3964
 8001ebc:	10c00117 	ldw	r3,4(r2)
 8001ec0:	e0bff517 	ldw	r2,-44(fp)
 8001ec4:	1884703a 	and	r2,r3,r2
 8001ec8:	103ff426 	beq	r2,zero,8001e9c <_malloc_r+0x770>
    }
      
    /* For each possibly nonempty block ... */
    for (;;)  
    {
      startidx = idx;          /* (track incomplete blocks) */
 8001ecc:	e0bff217 	ldw	r2,-56(fp)
 8001ed0:	e0bff615 	stw	r2,-40(fp)
      q = bin = bin_at(idx);
 8001ed4:	e0bff217 	ldw	r2,-56(fp)
 8001ed8:	10800044 	addi	r2,r2,1
 8001edc:	1085883a 	add	r2,r2,r2
 8001ee0:	1085883a 	add	r2,r2,r2
 8001ee4:	1087883a 	add	r3,r2,r2
 8001ee8:	00820134 	movhi	r2,2052
 8001eec:	1083df04 	addi	r2,r2,3964
 8001ef0:	1885883a 	add	r2,r3,r2
 8001ef4:	10bffe04 	addi	r2,r2,-8
 8001ef8:	e0bff315 	stw	r2,-52(fp)
 8001efc:	e0bff317 	ldw	r2,-52(fp)
 8001f00:	e0bff915 	stw	r2,-28(fp)
      /* For each bin in this block ... */
      do
      {
        /* Find and use first big enough chunk ... */

        for (victim = last(bin); victim != bin; victim = victim->bk)
 8001f04:	e0bff317 	ldw	r2,-52(fp)
 8001f08:	10800317 	ldw	r2,12(r2)
 8001f0c:	e0bff115 	stw	r2,-60(fp)
 8001f10:	00005e06 	br	800208c <_malloc_r+0x960>
        {
          victim_size = chunksize(victim);
 8001f14:	e0bff117 	ldw	r2,-60(fp)
 8001f18:	10c00117 	ldw	r3,4(r2)
 8001f1c:	00bfff04 	movi	r2,-4
 8001f20:	1884703a 	and	r2,r3,r2
 8001f24:	e0bffb15 	stw	r2,-20(fp)
          remainder_size = long_sub_size_t(victim_size, nb);
 8001f28:	e0fffb17 	ldw	r3,-20(fp)
 8001f2c:	e0bffa17 	ldw	r2,-24(fp)
 8001f30:	1885c83a 	sub	r2,r3,r2
 8001f34:	e0bff415 	stw	r2,-48(fp)

          if (remainder_size >= (long)MINSIZE) /* split */
 8001f38:	e0bff417 	ldw	r2,-48(fp)
 8001f3c:	10800410 	cmplti	r2,r2,16
 8001f40:	1000331e 	bne	r2,zero,8002010 <_malloc_r+0x8e4>
          {
            remainder = chunk_at_offset(victim, nb);
 8001f44:	e0fff117 	ldw	r3,-60(fp)
 8001f48:	e0bffa17 	ldw	r2,-24(fp)
 8001f4c:	1885883a 	add	r2,r3,r2
 8001f50:	e0bffc15 	stw	r2,-16(fp)
            set_head(victim, nb | PREV_INUSE);
 8001f54:	e0bffa17 	ldw	r2,-24(fp)
 8001f58:	10c00054 	ori	r3,r2,1
 8001f5c:	e0bff117 	ldw	r2,-60(fp)
 8001f60:	10c00115 	stw	r3,4(r2)
            unlink(victim, bck, fwd);
 8001f64:	e0bff117 	ldw	r2,-60(fp)
 8001f68:	10800317 	ldw	r2,12(r2)
 8001f6c:	e0bff815 	stw	r2,-32(fp)
 8001f70:	e0bff117 	ldw	r2,-60(fp)
 8001f74:	10800217 	ldw	r2,8(r2)
 8001f78:	e0bff715 	stw	r2,-36(fp)
 8001f7c:	e0bff717 	ldw	r2,-36(fp)
 8001f80:	e0fff817 	ldw	r3,-32(fp)
 8001f84:	10c00315 	stw	r3,12(r2)
 8001f88:	e0bff817 	ldw	r2,-32(fp)
 8001f8c:	e0fff717 	ldw	r3,-36(fp)
 8001f90:	10c00215 	stw	r3,8(r2)
            link_last_remainder(remainder);
 8001f94:	00c20134 	movhi	r3,2052
 8001f98:	18c3e104 	addi	r3,r3,3972
 8001f9c:	00820134 	movhi	r2,2052
 8001fa0:	1083e104 	addi	r2,r2,3972
 8001fa4:	e13ffc17 	ldw	r4,-16(fp)
 8001fa8:	11000315 	stw	r4,12(r2)
 8001fac:	10800317 	ldw	r2,12(r2)
 8001fb0:	18800215 	stw	r2,8(r3)
 8001fb4:	00820134 	movhi	r2,2052
 8001fb8:	1083e104 	addi	r2,r2,3972
 8001fbc:	e0fffc17 	ldw	r3,-16(fp)
 8001fc0:	18800315 	stw	r2,12(r3)
 8001fc4:	e0bffc17 	ldw	r2,-16(fp)
 8001fc8:	10c00317 	ldw	r3,12(r2)
 8001fcc:	e0bffc17 	ldw	r2,-16(fp)
 8001fd0:	10c00215 	stw	r3,8(r2)
            set_head(remainder, remainder_size | PREV_INUSE);
 8001fd4:	e0bff417 	ldw	r2,-48(fp)
 8001fd8:	10800054 	ori	r2,r2,1
 8001fdc:	1007883a 	mov	r3,r2
 8001fe0:	e0bffc17 	ldw	r2,-16(fp)
 8001fe4:	10c00115 	stw	r3,4(r2)
            set_foot(remainder, remainder_size);
 8001fe8:	e0bff417 	ldw	r2,-48(fp)
 8001fec:	e0fffc17 	ldw	r3,-16(fp)
 8001ff0:	1885883a 	add	r2,r3,r2
 8001ff4:	e0fff417 	ldw	r3,-48(fp)
 8001ff8:	10c00015 	stw	r3,0(r2)
            check_malloced_chunk(victim, nb);
	    MALLOC_UNLOCK;
 8001ffc:	e13ffe17 	ldw	r4,-8(fp)
 8002000:	80052680 	call	8005268 <__malloc_unlock>
            return chunk2mem(victim);
 8002004:	e0bff117 	ldw	r2,-60(fp)
 8002008:	10800204 	addi	r2,r2,8
 800200c:	0000a106 	br	8002294 <_malloc_r+0xb68>
          }

          else if (remainder_size >= 0)  /* take */
 8002010:	e0bff417 	ldw	r2,-48(fp)
 8002014:	10001a16 	blt	r2,zero,8002080 <_malloc_r+0x954>
          {
            set_inuse_bit_at_offset(victim, victim_size);
 8002018:	e0fff117 	ldw	r3,-60(fp)
 800201c:	e0bffb17 	ldw	r2,-20(fp)
 8002020:	1885883a 	add	r2,r3,r2
 8002024:	e13ff117 	ldw	r4,-60(fp)
 8002028:	e0fffb17 	ldw	r3,-20(fp)
 800202c:	20c7883a 	add	r3,r4,r3
 8002030:	18c00117 	ldw	r3,4(r3)
 8002034:	18c00054 	ori	r3,r3,1
 8002038:	10c00115 	stw	r3,4(r2)
            unlink(victim, bck, fwd);
 800203c:	e0bff117 	ldw	r2,-60(fp)
 8002040:	10800317 	ldw	r2,12(r2)
 8002044:	e0bff815 	stw	r2,-32(fp)
 8002048:	e0bff117 	ldw	r2,-60(fp)
 800204c:	10800217 	ldw	r2,8(r2)
 8002050:	e0bff715 	stw	r2,-36(fp)
 8002054:	e0bff717 	ldw	r2,-36(fp)
 8002058:	e0fff817 	ldw	r3,-32(fp)
 800205c:	10c00315 	stw	r3,12(r2)
 8002060:	e0bff817 	ldw	r2,-32(fp)
 8002064:	e0fff717 	ldw	r3,-36(fp)
 8002068:	10c00215 	stw	r3,8(r2)
            check_malloced_chunk(victim, nb);
	    MALLOC_UNLOCK;
 800206c:	e13ffe17 	ldw	r4,-8(fp)
 8002070:	80052680 	call	8005268 <__malloc_unlock>
            return chunk2mem(victim);
 8002074:	e0bff117 	ldw	r2,-60(fp)
 8002078:	10800204 	addi	r2,r2,8
 800207c:	00008506 	br	8002294 <_malloc_r+0xb68>
      /* For each bin in this block ... */
      do
      {
        /* Find and use first big enough chunk ... */

        for (victim = last(bin); victim != bin; victim = victim->bk)
 8002080:	e0bff117 	ldw	r2,-60(fp)
 8002084:	10800317 	ldw	r2,12(r2)
 8002088:	e0bff115 	stw	r2,-60(fp)
 800208c:	e0fff117 	ldw	r3,-60(fp)
 8002090:	e0bff317 	ldw	r2,-52(fp)
 8002094:	18bf9f1e 	bne	r3,r2,8001f14 <_malloc_r+0x7e8>
            return chunk2mem(victim);
          }

        }

       bin = next_bin(bin);
 8002098:	e0bff317 	ldw	r2,-52(fp)
 800209c:	10800204 	addi	r2,r2,8
 80020a0:	e0bff315 	stw	r2,-52(fp)
         {
           bin = next_bin(bin);
           ++idx;
         }
#endif
      } while ((++idx & (BINBLOCKWIDTH - 1)) != 0);
 80020a4:	e0bff217 	ldw	r2,-56(fp)
 80020a8:	10800044 	addi	r2,r2,1
 80020ac:	e0bff215 	stw	r2,-56(fp)
 80020b0:	e0bff217 	ldw	r2,-56(fp)
 80020b4:	108000cc 	andi	r2,r2,3
 80020b8:	103f921e 	bne	r2,zero,8001f04 <_malloc_r+0x7d8>

      /* Clear out the block bit. */

      do   /* Possibly backtrack to try to clear a partial block */
      {
        if ((startidx & (BINBLOCKWIDTH - 1)) == 0)
 80020bc:	e0bff617 	ldw	r2,-40(fp)
 80020c0:	108000cc 	andi	r2,r2,3
 80020c4:	10000a1e 	bne	r2,zero,80020f0 <_malloc_r+0x9c4>
        {
          binblocks &= ~block;
 80020c8:	00820134 	movhi	r2,2052
 80020cc:	1083df04 	addi	r2,r2,3964
 80020d0:	00c20134 	movhi	r3,2052
 80020d4:	18c3df04 	addi	r3,r3,3964
 80020d8:	19000117 	ldw	r4,4(r3)
 80020dc:	e0fff517 	ldw	r3,-44(fp)
 80020e0:	00c6303a 	nor	r3,zero,r3
 80020e4:	20c6703a 	and	r3,r4,r3
 80020e8:	10c00115 	stw	r3,4(r2)
          break;
 80020ec:	00000a06 	br	8002118 <_malloc_r+0x9ec>
        }
        --startidx;
 80020f0:	e0bff617 	ldw	r2,-40(fp)
 80020f4:	10bfffc4 	addi	r2,r2,-1
 80020f8:	e0bff615 	stw	r2,-40(fp)
       q = prev_bin(q);
 80020fc:	e0bff917 	ldw	r2,-28(fp)
 8002100:	10bffe04 	addi	r2,r2,-8
 8002104:	e0bff915 	stw	r2,-28(fp)
      } while (first(q) == q);
 8002108:	e0bff917 	ldw	r2,-28(fp)
 800210c:	10c00217 	ldw	r3,8(r2)
 8002110:	e0bff917 	ldw	r2,-28(fp)
 8002114:	18bfe926 	beq	r3,r2,80020bc <_malloc_r+0x990>

      /* Get to the next possibly nonempty block */

      if ( (block <<= 1) <= binblocks && (block != 0) ) 
 8002118:	e0bff517 	ldw	r2,-44(fp)
 800211c:	1085883a 	add	r2,r2,r2
 8002120:	e0bff515 	stw	r2,-44(fp)
 8002124:	00820134 	movhi	r2,2052
 8002128:	1083df04 	addi	r2,r2,3964
 800212c:	10c00117 	ldw	r3,4(r2)
 8002130:	e0bff517 	ldw	r2,-44(fp)
 8002134:	18801036 	bltu	r3,r2,8002178 <_malloc_r+0xa4c>
 8002138:	e0bff517 	ldw	r2,-44(fp)
 800213c:	10000e26 	beq	r2,zero,8002178 <_malloc_r+0xa4c>
      {
        while ((block & binblocks) == 0)
 8002140:	00000606 	br	800215c <_malloc_r+0xa30>
        {
          idx += BINBLOCKWIDTH;
 8002144:	e0bff217 	ldw	r2,-56(fp)
 8002148:	10800104 	addi	r2,r2,4
 800214c:	e0bff215 	stw	r2,-56(fp)
          block <<= 1;
 8002150:	e0bff517 	ldw	r2,-44(fp)
 8002154:	1085883a 	add	r2,r2,r2
 8002158:	e0bff515 	stw	r2,-44(fp)

      /* Get to the next possibly nonempty block */

      if ( (block <<= 1) <= binblocks && (block != 0) ) 
      {
        while ((block & binblocks) == 0)
 800215c:	00820134 	movhi	r2,2052
 8002160:	1083df04 	addi	r2,r2,3964
 8002164:	10c00117 	ldw	r3,4(r2)
 8002168:	e0bff517 	ldw	r2,-44(fp)
 800216c:	1884703a 	and	r2,r3,r2
 8002170:	103ff426 	beq	r2,zero,8002144 <_malloc_r+0xa18>
          block <<= 1;
        }
      }
      else
        break;
    }
 8002174:	003f5506 	br	8001ecc <_malloc_r+0x7a0>


  /* Try to use top chunk */

  /* Require that there be a remainder, ensuring top always exists  */
  remainder_size = long_sub_size_t(chunksize(top), nb);
 8002178:	00820134 	movhi	r2,2052
 800217c:	1083df04 	addi	r2,r2,3964
 8002180:	10800217 	ldw	r2,8(r2)
 8002184:	10c00117 	ldw	r3,4(r2)
 8002188:	00bfff04 	movi	r2,-4
 800218c:	1886703a 	and	r3,r3,r2
 8002190:	e0bffa17 	ldw	r2,-24(fp)
 8002194:	1885c83a 	sub	r2,r3,r2
 8002198:	e0bff415 	stw	r2,-48(fp)
  if (chunksize(top) < nb || remainder_size < (long)MINSIZE)
 800219c:	00820134 	movhi	r2,2052
 80021a0:	1083df04 	addi	r2,r2,3964
 80021a4:	10800217 	ldw	r2,8(r2)
 80021a8:	10c00117 	ldw	r3,4(r2)
 80021ac:	00bfff04 	movi	r2,-4
 80021b0:	1886703a 	and	r3,r3,r2
 80021b4:	e0bffa17 	ldw	r2,-24(fp)
 80021b8:	18800336 	bltu	r3,r2,80021c8 <_malloc_r+0xa9c>
 80021bc:	e0bff417 	ldw	r2,-48(fp)
 80021c0:	10800408 	cmpgei	r2,r2,16
 80021c4:	10001b1e 	bne	r2,zero,8002234 <_malloc_r+0xb08>
      return chunk2mem(victim);
    }
#endif

    /* Try to extend */
    malloc_extend_top(RCALL nb);
 80021c8:	e17ffa17 	ldw	r5,-24(fp)
 80021cc:	e13ffe17 	ldw	r4,-8(fp)
 80021d0:	80013780 	call	8001378 <malloc_extend_top>
    remainder_size = long_sub_size_t(chunksize(top), nb);
 80021d4:	00820134 	movhi	r2,2052
 80021d8:	1083df04 	addi	r2,r2,3964
 80021dc:	10800217 	ldw	r2,8(r2)
 80021e0:	10c00117 	ldw	r3,4(r2)
 80021e4:	00bfff04 	movi	r2,-4
 80021e8:	1886703a 	and	r3,r3,r2
 80021ec:	e0bffa17 	ldw	r2,-24(fp)
 80021f0:	1885c83a 	sub	r2,r3,r2
 80021f4:	e0bff415 	stw	r2,-48(fp)
    if (chunksize(top) < nb || remainder_size < (long)MINSIZE)
 80021f8:	00820134 	movhi	r2,2052
 80021fc:	1083df04 	addi	r2,r2,3964
 8002200:	10800217 	ldw	r2,8(r2)
 8002204:	10c00117 	ldw	r3,4(r2)
 8002208:	00bfff04 	movi	r2,-4
 800220c:	1886703a 	and	r3,r3,r2
 8002210:	e0bffa17 	ldw	r2,-24(fp)
 8002214:	18800336 	bltu	r3,r2,8002224 <_malloc_r+0xaf8>
 8002218:	e0bff417 	ldw	r2,-48(fp)
 800221c:	10800408 	cmpgei	r2,r2,16
 8002220:	1000041e 	bne	r2,zero,8002234 <_malloc_r+0xb08>
    {
      MALLOC_UNLOCK;
 8002224:	e13ffe17 	ldw	r4,-8(fp)
 8002228:	80052680 	call	8005268 <__malloc_unlock>
      return 0; /* propagate failure */
 800222c:	0005883a 	mov	r2,zero
 8002230:	00001806 	br	8002294 <_malloc_r+0xb68>
    }
  }

  victim = top;
 8002234:	00820134 	movhi	r2,2052
 8002238:	1083df04 	addi	r2,r2,3964
 800223c:	10800217 	ldw	r2,8(r2)
 8002240:	e0bff115 	stw	r2,-60(fp)
  set_head(victim, nb | PREV_INUSE);
 8002244:	e0bffa17 	ldw	r2,-24(fp)
 8002248:	10c00054 	ori	r3,r2,1
 800224c:	e0bff117 	ldw	r2,-60(fp)
 8002250:	10c00115 	stw	r3,4(r2)
  top = chunk_at_offset(victim, nb);
 8002254:	00820134 	movhi	r2,2052
 8002258:	1083df04 	addi	r2,r2,3964
 800225c:	e13ff117 	ldw	r4,-60(fp)
 8002260:	e0fffa17 	ldw	r3,-24(fp)
 8002264:	20c7883a 	add	r3,r4,r3
 8002268:	10c00215 	stw	r3,8(r2)
  set_head(top, remainder_size | PREV_INUSE);
 800226c:	00820134 	movhi	r2,2052
 8002270:	1083df04 	addi	r2,r2,3964
 8002274:	10800217 	ldw	r2,8(r2)
 8002278:	e0fff417 	ldw	r3,-48(fp)
 800227c:	18c00054 	ori	r3,r3,1
 8002280:	10c00115 	stw	r3,4(r2)
  check_malloced_chunk(victim, nb);
  MALLOC_UNLOCK;
 8002284:	e13ffe17 	ldw	r4,-8(fp)
 8002288:	80052680 	call	8005268 <__malloc_unlock>
  return chunk2mem(victim);
 800228c:	e0bff117 	ldw	r2,-60(fp)
 8002290:	10800204 	addi	r2,r2,8

#endif /* MALLOC_PROVIDED */
}
 8002294:	e037883a 	mov	sp,fp
 8002298:	dfc00117 	ldw	ra,4(sp)
 800229c:	df000017 	ldw	fp,0(sp)
 80022a0:	dec00204 	addi	sp,sp,8
 80022a4:	f800283a 	ret

080022a8 <memchr>:
_PTR
_DEFUN (memchr, (src_void, c, length),
	_CONST _PTR src_void _AND
	int c _AND
	size_t length)
{
 80022a8:	defff704 	addi	sp,sp,-36
 80022ac:	df000815 	stw	fp,32(sp)
 80022b0:	df000804 	addi	fp,sp,32
 80022b4:	e13ffd15 	stw	r4,-12(fp)
 80022b8:	e17ffe15 	stw	r5,-8(fp)
 80022bc:	e1bfff15 	stw	r6,-4(fp)
  _CONST unsigned char *src = (_CONST unsigned char *) src_void;
 80022c0:	e0bffd17 	ldw	r2,-12(fp)
 80022c4:	e0bff815 	stw	r2,-32(fp)
  unsigned char d = c;
 80022c8:	e0bffe17 	ldw	r2,-8(fp)
 80022cc:	e0bffc05 	stb	r2,-16(fp)
#if !defined(PREFER_SIZE_OVER_SPEED) && !defined(__OPTIMIZE_SIZE__)
  unsigned long *asrc;
  unsigned long  mask;
  unsigned int i;

  while (UNALIGNED (src))
 80022d0:	00001006 	br	8002314 <memchr+0x6c>
    {
      if (!length--)
 80022d4:	e0bfff17 	ldw	r2,-4(fp)
 80022d8:	10ffffc4 	addi	r3,r2,-1
 80022dc:	e0ffff15 	stw	r3,-4(fp)
 80022e0:	1000021e 	bne	r2,zero,80022ec <memchr+0x44>
        return NULL;
 80022e4:	0005883a 	mov	r2,zero
 80022e8:	00005a06 	br	8002454 <memchr+0x1ac>
      if (*src == d)
 80022ec:	e0bff817 	ldw	r2,-32(fp)
 80022f0:	10800003 	ldbu	r2,0(r2)
 80022f4:	10c03fcc 	andi	r3,r2,255
 80022f8:	e0bffc03 	ldbu	r2,-16(fp)
 80022fc:	1880021e 	bne	r3,r2,8002308 <memchr+0x60>
        return (void *) src;
 8002300:	e0bff817 	ldw	r2,-32(fp)
 8002304:	00005306 	br	8002454 <memchr+0x1ac>
      src++;
 8002308:	e0bff817 	ldw	r2,-32(fp)
 800230c:	10800044 	addi	r2,r2,1
 8002310:	e0bff815 	stw	r2,-32(fp)
#if !defined(PREFER_SIZE_OVER_SPEED) && !defined(__OPTIMIZE_SIZE__)
  unsigned long *asrc;
  unsigned long  mask;
  unsigned int i;

  while (UNALIGNED (src))
 8002314:	e0bff817 	ldw	r2,-32(fp)
 8002318:	108000cc 	andi	r2,r2,3
 800231c:	103fed1e 	bne	r2,zero,80022d4 <memchr+0x2c>
      if (*src == d)
        return (void *) src;
      src++;
    }

  if (!TOO_SMALL (length))
 8002320:	e0bfff17 	ldw	r2,-4(fp)
 8002324:	10800130 	cmpltui	r2,r2,4
 8002328:	1000451e 	bne	r2,zero,8002440 <memchr+0x198>
         performs the bytewise search on word-sized segments if they
         contain the search character, which is detected by XORing
         the word-sized segment with a word-sized block of the search
         character and then detecting for the presence of NUL in the
         result.  */
      asrc = (unsigned long *) src;
 800232c:	e0bff817 	ldw	r2,-32(fp)
 8002330:	e0bff915 	stw	r2,-28(fp)
      mask = d << 8 | d;
 8002334:	e0bffc03 	ldbu	r2,-16(fp)
 8002338:	1006923a 	slli	r3,r2,8
 800233c:	e0bffc03 	ldbu	r2,-16(fp)
 8002340:	1884b03a 	or	r2,r3,r2
 8002344:	e0bffa15 	stw	r2,-24(fp)
      mask = mask << 16 | mask;
 8002348:	e0bffa17 	ldw	r2,-24(fp)
 800234c:	1004943a 	slli	r2,r2,16
 8002350:	e0fffa17 	ldw	r3,-24(fp)
 8002354:	1884b03a 	or	r2,r3,r2
 8002358:	e0bffa15 	stw	r2,-24(fp)
      for (i = 32; i < LBLOCKSIZE * 8; i <<= 1)
 800235c:	00800804 	movi	r2,32
 8002360:	e0bffb15 	stw	r2,-20(fp)
 8002364:	00000906 	br	800238c <memchr+0xe4>
        mask = (mask << i) | mask;
 8002368:	e0fffa17 	ldw	r3,-24(fp)
 800236c:	e0bffb17 	ldw	r2,-20(fp)
 8002370:	1884983a 	sll	r2,r3,r2
 8002374:	e0fffa17 	ldw	r3,-24(fp)
 8002378:	1884b03a 	or	r2,r3,r2
 800237c:	e0bffa15 	stw	r2,-24(fp)
         character and then detecting for the presence of NUL in the
         result.  */
      asrc = (unsigned long *) src;
      mask = d << 8 | d;
      mask = mask << 16 | mask;
      for (i = 32; i < LBLOCKSIZE * 8; i <<= 1)
 8002380:	e0bffb17 	ldw	r2,-20(fp)
 8002384:	1085883a 	add	r2,r2,r2
 8002388:	e0bffb15 	stw	r2,-20(fp)
 800238c:	e0bffb17 	ldw	r2,-20(fp)
 8002390:	10800830 	cmpltui	r2,r2,32
 8002394:	103ff41e 	bne	r2,zero,8002368 <memchr+0xc0>
        mask = (mask << i) | mask;

      while (length >= LBLOCKSIZE)
 8002398:	00001706 	br	80023f8 <memchr+0x150>
        {
          if (DETECTCHAR (*asrc, mask))
 800239c:	e0bff917 	ldw	r2,-28(fp)
 80023a0:	10c00017 	ldw	r3,0(r2)
 80023a4:	e0bffa17 	ldw	r2,-24(fp)
 80023a8:	1886f03a 	xor	r3,r3,r2
 80023ac:	00bfbff4 	movhi	r2,65279
 80023b0:	10bfbfc4 	addi	r2,r2,-257
 80023b4:	1887883a 	add	r3,r3,r2
 80023b8:	e0bff917 	ldw	r2,-28(fp)
 80023bc:	11000017 	ldw	r4,0(r2)
 80023c0:	e0bffa17 	ldw	r2,-24(fp)
 80023c4:	2084f03a 	xor	r2,r4,r2
 80023c8:	0084303a 	nor	r2,zero,r2
 80023cc:	1886703a 	and	r3,r3,r2
 80023d0:	00a02074 	movhi	r2,32897
 80023d4:	10a02004 	addi	r2,r2,-32640
 80023d8:	1884703a 	and	r2,r3,r2
 80023dc:	10000a1e 	bne	r2,zero,8002408 <memchr+0x160>
            break;
          length -= LBLOCKSIZE;
 80023e0:	e0bfff17 	ldw	r2,-4(fp)
 80023e4:	10bfff04 	addi	r2,r2,-4
 80023e8:	e0bfff15 	stw	r2,-4(fp)
          asrc++;
 80023ec:	e0bff917 	ldw	r2,-28(fp)
 80023f0:	10800104 	addi	r2,r2,4
 80023f4:	e0bff915 	stw	r2,-28(fp)
      mask = d << 8 | d;
      mask = mask << 16 | mask;
      for (i = 32; i < LBLOCKSIZE * 8; i <<= 1)
        mask = (mask << i) | mask;

      while (length >= LBLOCKSIZE)
 80023f8:	e0bfff17 	ldw	r2,-4(fp)
 80023fc:	10800128 	cmpgeui	r2,r2,4
 8002400:	103fe61e 	bne	r2,zero,800239c <memchr+0xf4>
 8002404:	00000106 	br	800240c <memchr+0x164>
        {
          if (DETECTCHAR (*asrc, mask))
            break;
 8002408:	0001883a 	nop
        }

      /* If there are fewer than LBLOCKSIZE characters left,
         then we resort to the bytewise loop.  */

      src = (unsigned char *) asrc;
 800240c:	e0bff917 	ldw	r2,-28(fp)
 8002410:	e0bff815 	stw	r2,-32(fp)
    }

#endif /* not PREFER_SIZE_OVER_SPEED */

  while (length--)
 8002414:	00000a06 	br	8002440 <memchr+0x198>
    {
      if (*src == d)
 8002418:	e0bff817 	ldw	r2,-32(fp)
 800241c:	10800003 	ldbu	r2,0(r2)
 8002420:	10c03fcc 	andi	r3,r2,255
 8002424:	e0bffc03 	ldbu	r2,-16(fp)
 8002428:	1880021e 	bne	r3,r2,8002434 <memchr+0x18c>
        return (void *) src;
 800242c:	e0bff817 	ldw	r2,-32(fp)
 8002430:	00000806 	br	8002454 <memchr+0x1ac>
      src++;
 8002434:	e0bff817 	ldw	r2,-32(fp)
 8002438:	10800044 	addi	r2,r2,1
 800243c:	e0bff815 	stw	r2,-32(fp)
      src = (unsigned char *) asrc;
    }

#endif /* not PREFER_SIZE_OVER_SPEED */

  while (length--)
 8002440:	e0bfff17 	ldw	r2,-4(fp)
 8002444:	10ffffc4 	addi	r3,r2,-1
 8002448:	e0ffff15 	stw	r3,-4(fp)
 800244c:	103ff21e 	bne	r2,zero,8002418 <memchr+0x170>
      if (*src == d)
        return (void *) src;
      src++;
    }

  return NULL;
 8002450:	0005883a 	mov	r2,zero
}
 8002454:	e037883a 	mov	sp,fp
 8002458:	df000017 	ldw	fp,0(sp)
 800245c:	dec00104 	addi	sp,sp,4
 8002460:	f800283a 	ret

08002464 <memcpy>:
_PTR
_DEFUN (memcpy, (dst0, src0, len0),
	_PTR __restrict dst0 _AND
	_CONST _PTR __restrict src0 _AND
	size_t len0)
{
 8002464:	defff804 	addi	sp,sp,-32
 8002468:	df000715 	stw	fp,28(sp)
 800246c:	df000704 	addi	fp,sp,28
 8002470:	e13ffd15 	stw	r4,-12(fp)
 8002474:	e17ffe15 	stw	r5,-8(fp)
 8002478:	e1bfff15 	stw	r6,-4(fp)
      *dst++ = *src++;
    }

  return save;
#else
  char *dst = dst0;
 800247c:	e0bffd17 	ldw	r2,-12(fp)
 8002480:	e0bff915 	stw	r2,-28(fp)
  _CONST char *src = src0;
 8002484:	e0bffe17 	ldw	r2,-8(fp)
 8002488:	e0bffa15 	stw	r2,-24(fp)
  long *aligned_dst;
  _CONST long *aligned_src;

  /* If the size is small, or either SRC or DST is unaligned,
     then punt into the byte copy loop.  This should be rare.  */
  if (!TOO_SMALL(len0) && !UNALIGNED (src, dst))
 800248c:	e0bfff17 	ldw	r2,-4(fp)
 8002490:	10800430 	cmpltui	r2,r2,16
 8002494:	10004c1e 	bne	r2,zero,80025c8 <memcpy+0x164>
 8002498:	e0fffa17 	ldw	r3,-24(fp)
 800249c:	e0bff917 	ldw	r2,-28(fp)
 80024a0:	1884b03a 	or	r2,r3,r2
 80024a4:	108000cc 	andi	r2,r2,3
 80024a8:	1000471e 	bne	r2,zero,80025c8 <memcpy+0x164>
    {
      aligned_dst = (long*)dst;
 80024ac:	e0bff917 	ldw	r2,-28(fp)
 80024b0:	e0bffb15 	stw	r2,-20(fp)
      aligned_src = (long*)src;
 80024b4:	e0bffa17 	ldw	r2,-24(fp)
 80024b8:	e0bffc15 	stw	r2,-16(fp)

      /* Copy 4X long words at a time if possible.  */
      while (len0 >= BIGBLOCKSIZE)
 80024bc:	00002306 	br	800254c <memcpy+0xe8>
        {
          *aligned_dst++ = *aligned_src++;
 80024c0:	e0bffb17 	ldw	r2,-20(fp)
 80024c4:	10c00104 	addi	r3,r2,4
 80024c8:	e0fffb15 	stw	r3,-20(fp)
 80024cc:	e0fffc17 	ldw	r3,-16(fp)
 80024d0:	19000104 	addi	r4,r3,4
 80024d4:	e13ffc15 	stw	r4,-16(fp)
 80024d8:	18c00017 	ldw	r3,0(r3)
 80024dc:	10c00015 	stw	r3,0(r2)
          *aligned_dst++ = *aligned_src++;
 80024e0:	e0bffb17 	ldw	r2,-20(fp)
 80024e4:	10c00104 	addi	r3,r2,4
 80024e8:	e0fffb15 	stw	r3,-20(fp)
 80024ec:	e0fffc17 	ldw	r3,-16(fp)
 80024f0:	19000104 	addi	r4,r3,4
 80024f4:	e13ffc15 	stw	r4,-16(fp)
 80024f8:	18c00017 	ldw	r3,0(r3)
 80024fc:	10c00015 	stw	r3,0(r2)
          *aligned_dst++ = *aligned_src++;
 8002500:	e0bffb17 	ldw	r2,-20(fp)
 8002504:	10c00104 	addi	r3,r2,4
 8002508:	e0fffb15 	stw	r3,-20(fp)
 800250c:	e0fffc17 	ldw	r3,-16(fp)
 8002510:	19000104 	addi	r4,r3,4
 8002514:	e13ffc15 	stw	r4,-16(fp)
 8002518:	18c00017 	ldw	r3,0(r3)
 800251c:	10c00015 	stw	r3,0(r2)
          *aligned_dst++ = *aligned_src++;
 8002520:	e0bffb17 	ldw	r2,-20(fp)
 8002524:	10c00104 	addi	r3,r2,4
 8002528:	e0fffb15 	stw	r3,-20(fp)
 800252c:	e0fffc17 	ldw	r3,-16(fp)
 8002530:	19000104 	addi	r4,r3,4
 8002534:	e13ffc15 	stw	r4,-16(fp)
 8002538:	18c00017 	ldw	r3,0(r3)
 800253c:	10c00015 	stw	r3,0(r2)
          len0 -= BIGBLOCKSIZE;
 8002540:	e0bfff17 	ldw	r2,-4(fp)
 8002544:	10bffc04 	addi	r2,r2,-16
 8002548:	e0bfff15 	stw	r2,-4(fp)
    {
      aligned_dst = (long*)dst;
      aligned_src = (long*)src;

      /* Copy 4X long words at a time if possible.  */
      while (len0 >= BIGBLOCKSIZE)
 800254c:	e0bfff17 	ldw	r2,-4(fp)
 8002550:	10800428 	cmpgeui	r2,r2,16
 8002554:	103fda1e 	bne	r2,zero,80024c0 <memcpy+0x5c>
          *aligned_dst++ = *aligned_src++;
          len0 -= BIGBLOCKSIZE;
        }

      /* Copy one long word at a time if possible.  */
      while (len0 >= LITTLEBLOCKSIZE)
 8002558:	00000b06 	br	8002588 <memcpy+0x124>
        {
          *aligned_dst++ = *aligned_src++;
 800255c:	e0bffb17 	ldw	r2,-20(fp)
 8002560:	10c00104 	addi	r3,r2,4
 8002564:	e0fffb15 	stw	r3,-20(fp)
 8002568:	e0fffc17 	ldw	r3,-16(fp)
 800256c:	19000104 	addi	r4,r3,4
 8002570:	e13ffc15 	stw	r4,-16(fp)
 8002574:	18c00017 	ldw	r3,0(r3)
 8002578:	10c00015 	stw	r3,0(r2)
          len0 -= LITTLEBLOCKSIZE;
 800257c:	e0bfff17 	ldw	r2,-4(fp)
 8002580:	10bfff04 	addi	r2,r2,-4
 8002584:	e0bfff15 	stw	r2,-4(fp)
          *aligned_dst++ = *aligned_src++;
          len0 -= BIGBLOCKSIZE;
        }

      /* Copy one long word at a time if possible.  */
      while (len0 >= LITTLEBLOCKSIZE)
 8002588:	e0bfff17 	ldw	r2,-4(fp)
 800258c:	10800128 	cmpgeui	r2,r2,4
 8002590:	103ff21e 	bne	r2,zero,800255c <memcpy+0xf8>
          *aligned_dst++ = *aligned_src++;
          len0 -= LITTLEBLOCKSIZE;
        }

       /* Pick up any residual with a byte copier.  */
      dst = (char*)aligned_dst;
 8002594:	e0bffb17 	ldw	r2,-20(fp)
 8002598:	e0bff915 	stw	r2,-28(fp)
      src = (char*)aligned_src;
 800259c:	e0bffc17 	ldw	r2,-16(fp)
 80025a0:	e0bffa15 	stw	r2,-24(fp)
    }

  while (len0--)
 80025a4:	00000806 	br	80025c8 <memcpy+0x164>
    *dst++ = *src++;
 80025a8:	e0bff917 	ldw	r2,-28(fp)
 80025ac:	10c00044 	addi	r3,r2,1
 80025b0:	e0fff915 	stw	r3,-28(fp)
 80025b4:	e0fffa17 	ldw	r3,-24(fp)
 80025b8:	19000044 	addi	r4,r3,1
 80025bc:	e13ffa15 	stw	r4,-24(fp)
 80025c0:	18c00003 	ldbu	r3,0(r3)
 80025c4:	10c00005 	stb	r3,0(r2)
       /* Pick up any residual with a byte copier.  */
      dst = (char*)aligned_dst;
      src = (char*)aligned_src;
    }

  while (len0--)
 80025c8:	e0bfff17 	ldw	r2,-4(fp)
 80025cc:	10ffffc4 	addi	r3,r2,-1
 80025d0:	e0ffff15 	stw	r3,-4(fp)
 80025d4:	103ff41e 	bne	r2,zero,80025a8 <memcpy+0x144>
    *dst++ = *src++;

  return dst0;
 80025d8:	e0bffd17 	ldw	r2,-12(fp)
#endif /* not PREFER_SIZE_OVER_SPEED */
}
 80025dc:	e037883a 	mov	sp,fp
 80025e0:	df000017 	ldw	fp,0(sp)
 80025e4:	dec00104 	addi	sp,sp,4
 80025e8:	f800283a 	ret

080025ec <memmove>:
__inhibit_loop_to_libcall
_DEFUN (memmove, (dst_void, src_void, length),
	_PTR dst_void _AND
	_CONST _PTR src_void _AND
	size_t length)
{
 80025ec:	defff804 	addi	sp,sp,-32
 80025f0:	df000715 	stw	fp,28(sp)
 80025f4:	df000704 	addi	fp,sp,28
 80025f8:	e13ffd15 	stw	r4,-12(fp)
 80025fc:	e17ffe15 	stw	r5,-8(fp)
 8002600:	e1bfff15 	stw	r6,-4(fp)
	}
    }

  return dst_void;
#else
  char *dst = dst_void;
 8002604:	e0bffd17 	ldw	r2,-12(fp)
 8002608:	e0bff915 	stw	r2,-28(fp)
  _CONST char *src = src_void;
 800260c:	e0bffe17 	ldw	r2,-8(fp)
 8002610:	e0bffa15 	stw	r2,-24(fp)
  long *aligned_dst;
  _CONST long *aligned_src;

  if (src < dst && dst < src + length)
 8002614:	e0fffa17 	ldw	r3,-24(fp)
 8002618:	e0bff917 	ldw	r2,-28(fp)
 800261c:	18801d2e 	bgeu	r3,r2,8002694 <memmove+0xa8>
 8002620:	e0fffa17 	ldw	r3,-24(fp)
 8002624:	e0bfff17 	ldw	r2,-4(fp)
 8002628:	1885883a 	add	r2,r3,r2
 800262c:	e0fff917 	ldw	r3,-28(fp)
 8002630:	1880182e 	bgeu	r3,r2,8002694 <memmove+0xa8>
    {
      /* Destructive overlap...have to copy backwards */
      src += length;
 8002634:	e0fffa17 	ldw	r3,-24(fp)
 8002638:	e0bfff17 	ldw	r2,-4(fp)
 800263c:	1885883a 	add	r2,r3,r2
 8002640:	e0bffa15 	stw	r2,-24(fp)
      dst += length;
 8002644:	e0fff917 	ldw	r3,-28(fp)
 8002648:	e0bfff17 	ldw	r2,-4(fp)
 800264c:	1885883a 	add	r2,r3,r2
 8002650:	e0bff915 	stw	r2,-28(fp)
      while (length--)
 8002654:	00000a06 	br	8002680 <memmove+0x94>
	{
	  *--dst = *--src;
 8002658:	e0bff917 	ldw	r2,-28(fp)
 800265c:	10bfffc4 	addi	r2,r2,-1
 8002660:	e0bff915 	stw	r2,-28(fp)
 8002664:	e0bffa17 	ldw	r2,-24(fp)
 8002668:	10bfffc4 	addi	r2,r2,-1
 800266c:	e0bffa15 	stw	r2,-24(fp)
 8002670:	e0bffa17 	ldw	r2,-24(fp)
 8002674:	10c00003 	ldbu	r3,0(r2)
 8002678:	e0bff917 	ldw	r2,-28(fp)
 800267c:	10c00005 	stb	r3,0(r2)
  if (src < dst && dst < src + length)
    {
      /* Destructive overlap...have to copy backwards */
      src += length;
      dst += length;
      while (length--)
 8002680:	e0bfff17 	ldw	r2,-4(fp)
 8002684:	10ffffc4 	addi	r3,r2,-1
 8002688:	e0ffff15 	stw	r3,-4(fp)
 800268c:	103ff21e 	bne	r2,zero,8002658 <memmove+0x6c>
  char *dst = dst_void;
  _CONST char *src = src_void;
  long *aligned_dst;
  _CONST long *aligned_src;

  if (src < dst && dst < src + length)
 8002690:	00005306 	br	80027e0 <memmove+0x1f4>
  else
    {
      /* Use optimizing algorithm for a non-destructive copy to closely 
         match memcpy. If the size is small or either SRC or DST is unaligned,
         then punt into the byte copy loop.  This should be rare.  */
      if (!TOO_SMALL(length) && !UNALIGNED (src, dst))
 8002694:	e0bfff17 	ldw	r2,-4(fp)
 8002698:	10800430 	cmpltui	r2,r2,16
 800269c:	10004c1e 	bne	r2,zero,80027d0 <memmove+0x1e4>
 80026a0:	e0fffa17 	ldw	r3,-24(fp)
 80026a4:	e0bff917 	ldw	r2,-28(fp)
 80026a8:	1884b03a 	or	r2,r3,r2
 80026ac:	108000cc 	andi	r2,r2,3
 80026b0:	1000471e 	bne	r2,zero,80027d0 <memmove+0x1e4>
        {
          aligned_dst = (long*)dst;
 80026b4:	e0bff917 	ldw	r2,-28(fp)
 80026b8:	e0bffb15 	stw	r2,-20(fp)
          aligned_src = (long*)src;
 80026bc:	e0bffa17 	ldw	r2,-24(fp)
 80026c0:	e0bffc15 	stw	r2,-16(fp)

          /* Copy 4X long words at a time if possible.  */
          while (length >= BIGBLOCKSIZE)
 80026c4:	00002306 	br	8002754 <memmove+0x168>
            {
              *aligned_dst++ = *aligned_src++;
 80026c8:	e0bffb17 	ldw	r2,-20(fp)
 80026cc:	10c00104 	addi	r3,r2,4
 80026d0:	e0fffb15 	stw	r3,-20(fp)
 80026d4:	e0fffc17 	ldw	r3,-16(fp)
 80026d8:	19000104 	addi	r4,r3,4
 80026dc:	e13ffc15 	stw	r4,-16(fp)
 80026e0:	18c00017 	ldw	r3,0(r3)
 80026e4:	10c00015 	stw	r3,0(r2)
              *aligned_dst++ = *aligned_src++;
 80026e8:	e0bffb17 	ldw	r2,-20(fp)
 80026ec:	10c00104 	addi	r3,r2,4
 80026f0:	e0fffb15 	stw	r3,-20(fp)
 80026f4:	e0fffc17 	ldw	r3,-16(fp)
 80026f8:	19000104 	addi	r4,r3,4
 80026fc:	e13ffc15 	stw	r4,-16(fp)
 8002700:	18c00017 	ldw	r3,0(r3)
 8002704:	10c00015 	stw	r3,0(r2)
              *aligned_dst++ = *aligned_src++;
 8002708:	e0bffb17 	ldw	r2,-20(fp)
 800270c:	10c00104 	addi	r3,r2,4
 8002710:	e0fffb15 	stw	r3,-20(fp)
 8002714:	e0fffc17 	ldw	r3,-16(fp)
 8002718:	19000104 	addi	r4,r3,4
 800271c:	e13ffc15 	stw	r4,-16(fp)
 8002720:	18c00017 	ldw	r3,0(r3)
 8002724:	10c00015 	stw	r3,0(r2)
              *aligned_dst++ = *aligned_src++;
 8002728:	e0bffb17 	ldw	r2,-20(fp)
 800272c:	10c00104 	addi	r3,r2,4
 8002730:	e0fffb15 	stw	r3,-20(fp)
 8002734:	e0fffc17 	ldw	r3,-16(fp)
 8002738:	19000104 	addi	r4,r3,4
 800273c:	e13ffc15 	stw	r4,-16(fp)
 8002740:	18c00017 	ldw	r3,0(r3)
 8002744:	10c00015 	stw	r3,0(r2)
              length -= BIGBLOCKSIZE;
 8002748:	e0bfff17 	ldw	r2,-4(fp)
 800274c:	10bffc04 	addi	r2,r2,-16
 8002750:	e0bfff15 	stw	r2,-4(fp)
        {
          aligned_dst = (long*)dst;
          aligned_src = (long*)src;

          /* Copy 4X long words at a time if possible.  */
          while (length >= BIGBLOCKSIZE)
 8002754:	e0bfff17 	ldw	r2,-4(fp)
 8002758:	10800428 	cmpgeui	r2,r2,16
 800275c:	103fda1e 	bne	r2,zero,80026c8 <memmove+0xdc>
              *aligned_dst++ = *aligned_src++;
              length -= BIGBLOCKSIZE;
            }

          /* Copy one long word at a time if possible.  */
          while (length >= LITTLEBLOCKSIZE)
 8002760:	00000b06 	br	8002790 <memmove+0x1a4>
            {
              *aligned_dst++ = *aligned_src++;
 8002764:	e0bffb17 	ldw	r2,-20(fp)
 8002768:	10c00104 	addi	r3,r2,4
 800276c:	e0fffb15 	stw	r3,-20(fp)
 8002770:	e0fffc17 	ldw	r3,-16(fp)
 8002774:	19000104 	addi	r4,r3,4
 8002778:	e13ffc15 	stw	r4,-16(fp)
 800277c:	18c00017 	ldw	r3,0(r3)
 8002780:	10c00015 	stw	r3,0(r2)
              length -= LITTLEBLOCKSIZE;
 8002784:	e0bfff17 	ldw	r2,-4(fp)
 8002788:	10bfff04 	addi	r2,r2,-4
 800278c:	e0bfff15 	stw	r2,-4(fp)
              *aligned_dst++ = *aligned_src++;
              length -= BIGBLOCKSIZE;
            }

          /* Copy one long word at a time if possible.  */
          while (length >= LITTLEBLOCKSIZE)
 8002790:	e0bfff17 	ldw	r2,-4(fp)
 8002794:	10800128 	cmpgeui	r2,r2,4
 8002798:	103ff21e 	bne	r2,zero,8002764 <memmove+0x178>
              *aligned_dst++ = *aligned_src++;
              length -= LITTLEBLOCKSIZE;
            }

          /* Pick up any residual with a byte copier.  */
          dst = (char*)aligned_dst;
 800279c:	e0bffb17 	ldw	r2,-20(fp)
 80027a0:	e0bff915 	stw	r2,-28(fp)
          src = (char*)aligned_src;
 80027a4:	e0bffc17 	ldw	r2,-16(fp)
 80027a8:	e0bffa15 	stw	r2,-24(fp)
        }

      while (length--)
 80027ac:	00000806 	br	80027d0 <memmove+0x1e4>
        {
          *dst++ = *src++;
 80027b0:	e0bff917 	ldw	r2,-28(fp)
 80027b4:	10c00044 	addi	r3,r2,1
 80027b8:	e0fff915 	stw	r3,-28(fp)
 80027bc:	e0fffa17 	ldw	r3,-24(fp)
 80027c0:	19000044 	addi	r4,r3,1
 80027c4:	e13ffa15 	stw	r4,-24(fp)
 80027c8:	18c00003 	ldbu	r3,0(r3)
 80027cc:	10c00005 	stb	r3,0(r2)
          /* Pick up any residual with a byte copier.  */
          dst = (char*)aligned_dst;
          src = (char*)aligned_src;
        }

      while (length--)
 80027d0:	e0bfff17 	ldw	r2,-4(fp)
 80027d4:	10ffffc4 	addi	r3,r2,-1
 80027d8:	e0ffff15 	stw	r3,-4(fp)
 80027dc:	103ff41e 	bne	r2,zero,80027b0 <memmove+0x1c4>
        {
          *dst++ = *src++;
        }
    }

  return dst_void;
 80027e0:	e0bffd17 	ldw	r2,-12(fp)
#endif /* not PREFER_SIZE_OVER_SPEED */
}
 80027e4:	e037883a 	mov	sp,fp
 80027e8:	df000017 	ldw	fp,0(sp)
 80027ec:	dec00104 	addi	sp,sp,4
 80027f0:	f800283a 	ret

080027f4 <memset>:
__inhibit_loop_to_libcall
_DEFUN (memset, (m, c, n),
	_PTR m _AND
	int c _AND
	size_t n)
{
 80027f4:	defff704 	addi	sp,sp,-36
 80027f8:	df000815 	stw	fp,32(sp)
 80027fc:	df000804 	addi	fp,sp,32
 8002800:	e13ffd15 	stw	r4,-12(fp)
 8002804:	e17ffe15 	stw	r5,-8(fp)
 8002808:	e1bfff15 	stw	r6,-4(fp)
  char *s = (char *) m;
 800280c:	e0bffd17 	ldw	r2,-12(fp)
 8002810:	e0bff815 	stw	r2,-32(fp)

#if !defined(PREFER_SIZE_OVER_SPEED) && !defined(__OPTIMIZE_SIZE__)
  unsigned int i;
  unsigned long buffer;
  unsigned long *aligned_addr;
  unsigned int d = c & 0xff;	/* To avoid sign extension, copy C to an
 8002814:	e0bffe17 	ldw	r2,-8(fp)
 8002818:	10803fcc 	andi	r2,r2,255
 800281c:	e0bffc15 	stw	r2,-16(fp)
				   unsigned variable.  */

  while (UNALIGNED (s))
 8002820:	00000c06 	br	8002854 <memset+0x60>
    {
      if (n--)
 8002824:	e0bfff17 	ldw	r2,-4(fp)
 8002828:	10ffffc4 	addi	r3,r2,-1
 800282c:	e0ffff15 	stw	r3,-4(fp)
 8002830:	10000626 	beq	r2,zero,800284c <memset+0x58>
        *s++ = (char) c;
 8002834:	e0bff817 	ldw	r2,-32(fp)
 8002838:	10c00044 	addi	r3,r2,1
 800283c:	e0fff815 	stw	r3,-32(fp)
 8002840:	e0fffe17 	ldw	r3,-8(fp)
 8002844:	10c00005 	stb	r3,0(r2)
 8002848:	00000206 	br	8002854 <memset+0x60>
      else
        return m;
 800284c:	e0bffd17 	ldw	r2,-12(fp)
 8002850:	00005506 	br	80029a8 <memset+0x1b4>
  unsigned long buffer;
  unsigned long *aligned_addr;
  unsigned int d = c & 0xff;	/* To avoid sign extension, copy C to an
				   unsigned variable.  */

  while (UNALIGNED (s))
 8002854:	e0bff817 	ldw	r2,-32(fp)
 8002858:	108000cc 	andi	r2,r2,3
 800285c:	103ff11e 	bne	r2,zero,8002824 <memset+0x30>
        *s++ = (char) c;
      else
        return m;
    }

  if (!TOO_SMALL (n))
 8002860:	e0bfff17 	ldw	r2,-4(fp)
 8002864:	10800130 	cmpltui	r2,r2,4
 8002868:	10004a1e 	bne	r2,zero,8002994 <memset+0x1a0>
    {
      /* If we get this far, we know that n is large and s is word-aligned. */
      aligned_addr = (unsigned long *) s;
 800286c:	e0bff817 	ldw	r2,-32(fp)
 8002870:	e0bffb15 	stw	r2,-20(fp)

      /* Store D into each char sized location in BUFFER so that
         we can set large blocks quickly.  */
      buffer = (d << 8) | d;
 8002874:	e0bffc17 	ldw	r2,-16(fp)
 8002878:	1006923a 	slli	r3,r2,8
 800287c:	e0bffc17 	ldw	r2,-16(fp)
 8002880:	1884b03a 	or	r2,r3,r2
 8002884:	e0bffa15 	stw	r2,-24(fp)
      buffer |= (buffer << 16);
 8002888:	e0bffa17 	ldw	r2,-24(fp)
 800288c:	1004943a 	slli	r2,r2,16
 8002890:	e0fffa17 	ldw	r3,-24(fp)
 8002894:	1884b03a 	or	r2,r3,r2
 8002898:	e0bffa15 	stw	r2,-24(fp)
      for (i = 32; i < LBLOCKSIZE * 8; i <<= 1)
 800289c:	00800804 	movi	r2,32
 80028a0:	e0bff915 	stw	r2,-28(fp)
 80028a4:	00000906 	br	80028cc <memset+0xd8>
        buffer = (buffer << i) | buffer;
 80028a8:	e0fffa17 	ldw	r3,-24(fp)
 80028ac:	e0bff917 	ldw	r2,-28(fp)
 80028b0:	1884983a 	sll	r2,r3,r2
 80028b4:	e0fffa17 	ldw	r3,-24(fp)
 80028b8:	1884b03a 	or	r2,r3,r2
 80028bc:	e0bffa15 	stw	r2,-24(fp)

      /* Store D into each char sized location in BUFFER so that
         we can set large blocks quickly.  */
      buffer = (d << 8) | d;
      buffer |= (buffer << 16);
      for (i = 32; i < LBLOCKSIZE * 8; i <<= 1)
 80028c0:	e0bff917 	ldw	r2,-28(fp)
 80028c4:	1085883a 	add	r2,r2,r2
 80028c8:	e0bff915 	stw	r2,-28(fp)
 80028cc:	e0bff917 	ldw	r2,-28(fp)
 80028d0:	10800830 	cmpltui	r2,r2,32
 80028d4:	103ff41e 	bne	r2,zero,80028a8 <memset+0xb4>
        buffer = (buffer << i) | buffer;

      /* Unroll the loop.  */
      while (n >= LBLOCKSIZE*4)
 80028d8:	00001706 	br	8002938 <memset+0x144>
        {
          *aligned_addr++ = buffer;
 80028dc:	e0bffb17 	ldw	r2,-20(fp)
 80028e0:	10c00104 	addi	r3,r2,4
 80028e4:	e0fffb15 	stw	r3,-20(fp)
 80028e8:	e0fffa17 	ldw	r3,-24(fp)
 80028ec:	10c00015 	stw	r3,0(r2)
          *aligned_addr++ = buffer;
 80028f0:	e0bffb17 	ldw	r2,-20(fp)
 80028f4:	10c00104 	addi	r3,r2,4
 80028f8:	e0fffb15 	stw	r3,-20(fp)
 80028fc:	e0fffa17 	ldw	r3,-24(fp)
 8002900:	10c00015 	stw	r3,0(r2)
          *aligned_addr++ = buffer;
 8002904:	e0bffb17 	ldw	r2,-20(fp)
 8002908:	10c00104 	addi	r3,r2,4
 800290c:	e0fffb15 	stw	r3,-20(fp)
 8002910:	e0fffa17 	ldw	r3,-24(fp)
 8002914:	10c00015 	stw	r3,0(r2)
          *aligned_addr++ = buffer;
 8002918:	e0bffb17 	ldw	r2,-20(fp)
 800291c:	10c00104 	addi	r3,r2,4
 8002920:	e0fffb15 	stw	r3,-20(fp)
 8002924:	e0fffa17 	ldw	r3,-24(fp)
 8002928:	10c00015 	stw	r3,0(r2)
          n -= 4*LBLOCKSIZE;
 800292c:	e0bfff17 	ldw	r2,-4(fp)
 8002930:	10bffc04 	addi	r2,r2,-16
 8002934:	e0bfff15 	stw	r2,-4(fp)
      buffer |= (buffer << 16);
      for (i = 32; i < LBLOCKSIZE * 8; i <<= 1)
        buffer = (buffer << i) | buffer;

      /* Unroll the loop.  */
      while (n >= LBLOCKSIZE*4)
 8002938:	e0bfff17 	ldw	r2,-4(fp)
 800293c:	10800428 	cmpgeui	r2,r2,16
 8002940:	103fe61e 	bne	r2,zero,80028dc <memset+0xe8>
          *aligned_addr++ = buffer;
          *aligned_addr++ = buffer;
          n -= 4*LBLOCKSIZE;
        }

      while (n >= LBLOCKSIZE)
 8002944:	00000806 	br	8002968 <memset+0x174>
        {
          *aligned_addr++ = buffer;
 8002948:	e0bffb17 	ldw	r2,-20(fp)
 800294c:	10c00104 	addi	r3,r2,4
 8002950:	e0fffb15 	stw	r3,-20(fp)
 8002954:	e0fffa17 	ldw	r3,-24(fp)
 8002958:	10c00015 	stw	r3,0(r2)
          n -= LBLOCKSIZE;
 800295c:	e0bfff17 	ldw	r2,-4(fp)
 8002960:	10bfff04 	addi	r2,r2,-4
 8002964:	e0bfff15 	stw	r2,-4(fp)
          *aligned_addr++ = buffer;
          *aligned_addr++ = buffer;
          n -= 4*LBLOCKSIZE;
        }

      while (n >= LBLOCKSIZE)
 8002968:	e0bfff17 	ldw	r2,-4(fp)
 800296c:	10800128 	cmpgeui	r2,r2,4
 8002970:	103ff51e 	bne	r2,zero,8002948 <memset+0x154>
        {
          *aligned_addr++ = buffer;
          n -= LBLOCKSIZE;
        }
      /* Pick up the remainder with a bytewise loop.  */
      s = (char*)aligned_addr;
 8002974:	e0bffb17 	ldw	r2,-20(fp)
 8002978:	e0bff815 	stw	r2,-32(fp)
    }

#endif /* not PREFER_SIZE_OVER_SPEED */

  while (n--)
 800297c:	00000506 	br	8002994 <memset+0x1a0>
    *s++ = (char) c;
 8002980:	e0bff817 	ldw	r2,-32(fp)
 8002984:	10c00044 	addi	r3,r2,1
 8002988:	e0fff815 	stw	r3,-32(fp)
 800298c:	e0fffe17 	ldw	r3,-8(fp)
 8002990:	10c00005 	stb	r3,0(r2)
      s = (char*)aligned_addr;
    }

#endif /* not PREFER_SIZE_OVER_SPEED */

  while (n--)
 8002994:	e0bfff17 	ldw	r2,-4(fp)
 8002998:	10ffffc4 	addi	r3,r2,-1
 800299c:	e0ffff15 	stw	r3,-4(fp)
 80029a0:	103ff71e 	bne	r2,zero,8002980 <memset+0x18c>
    *s++ = (char) c;

  return m;
 80029a4:	e0bffd17 	ldw	r2,-12(fp)
}
 80029a8:	e037883a 	mov	sp,fp
 80029ac:	df000017 	ldw	fp,0(sp)
 80029b0:	dec00104 	addi	sp,sp,4
 80029b4:	f800283a 	ret

080029b8 <_realloc_r>:
#if __STD_C
Void_t* rEALLOc(RARG Void_t* oldmem, size_t bytes)
#else
Void_t* rEALLOc(RARG oldmem, bytes) RDECL Void_t* oldmem; size_t bytes;
#endif
{
 80029b8:	deffe104 	addi	sp,sp,-124
 80029bc:	dfc01e15 	stw	ra,120(sp)
 80029c0:	df001d15 	stw	fp,116(sp)
 80029c4:	df001d04 	addi	fp,sp,116
 80029c8:	e13ffd15 	stw	r4,-12(fp)
 80029cc:	e17ffe15 	stw	r5,-8(fp)
 80029d0:	e1bfff15 	stw	r6,-4(fp)
  if (bytes == 0) { fREe(RCALL oldmem); return 0; }
#endif


  /* realloc of null is supposed to be same as malloc */
  if (oldmem == 0) return mALLOc(RCALL bytes);
 80029d4:	e0bffe17 	ldw	r2,-8(fp)
 80029d8:	1000041e 	bne	r2,zero,80029ec <_realloc_r+0x34>
 80029dc:	e17fff17 	ldw	r5,-4(fp)
 80029e0:	e13ffd17 	ldw	r4,-12(fp)
 80029e4:	800172c0 	call	800172c <_malloc_r>
 80029e8:	0002ea06 	br	8003594 <_realloc_r+0xbdc>

  MALLOC_LOCK;
 80029ec:	e13ffd17 	ldw	r4,-12(fp)
 80029f0:	80052440 	call	8005244 <__malloc_lock>

  newp    = oldp    = mem2chunk(oldmem);
 80029f4:	e0bffe17 	ldw	r2,-8(fp)
 80029f8:	10bffe04 	addi	r2,r2,-8
 80029fc:	e0bfef15 	stw	r2,-68(fp)
 8002a00:	e0bfef17 	ldw	r2,-68(fp)
 8002a04:	e0bfe315 	stw	r2,-116(fp)
  newsize = oldsize = chunksize(oldp);
 8002a08:	e0bfef17 	ldw	r2,-68(fp)
 8002a0c:	10c00117 	ldw	r3,4(r2)
 8002a10:	00bfff04 	movi	r2,-4
 8002a14:	1884703a 	and	r2,r3,r2
 8002a18:	e0bff015 	stw	r2,-64(fp)
 8002a1c:	e0bff017 	ldw	r2,-64(fp)
 8002a20:	e0bfe415 	stw	r2,-112(fp)


  nb = request2size(bytes);
 8002a24:	e0bfff17 	ldw	r2,-4(fp)
 8002a28:	108002c4 	addi	r2,r2,11
 8002a2c:	108005f0 	cmpltui	r2,r2,23
 8002a30:	1000051e 	bne	r2,zero,8002a48 <_realloc_r+0x90>
 8002a34:	e0bfff17 	ldw	r2,-4(fp)
 8002a38:	10c002c4 	addi	r3,r2,11
 8002a3c:	00bffe04 	movi	r2,-8
 8002a40:	1884703a 	and	r2,r3,r2
 8002a44:	00000106 	br	8002a4c <_realloc_r+0x94>
 8002a48:	00800404 	movi	r2,16
 8002a4c:	e0bff115 	stw	r2,-60(fp)

  /* Check for overflow and just fail, if so. */
  if (nb > INT_MAX || nb < bytes)
 8002a50:	e0bff117 	ldw	r2,-60(fp)
 8002a54:	10000316 	blt	r2,zero,8002a64 <_realloc_r+0xac>
 8002a58:	e0fff117 	ldw	r3,-60(fp)
 8002a5c:	e0bfff17 	ldw	r2,-4(fp)
 8002a60:	1880052e 	bgeu	r3,r2,8002a78 <_realloc_r+0xc0>
  {
    RERRNO = ENOMEM;
 8002a64:	e0bffd17 	ldw	r2,-12(fp)
 8002a68:	00c00304 	movi	r3,12
 8002a6c:	10c00015 	stw	r3,0(r2)
    return 0;
 8002a70:	0005883a 	mov	r2,zero
 8002a74:	0002c706 	br	8003594 <_realloc_r+0xbdc>
  }
#endif

  check_inuse_chunk(oldp);

  if ((long)(oldsize) < (long)(nb))  
 8002a78:	e0fff017 	ldw	r3,-64(fp)
 8002a7c:	e0bff117 	ldw	r2,-60(fp)
 8002a80:	18828b0e 	bge	r3,r2,80034b0 <_realloc_r+0xaf8>
  {

    /* Try expanding forward */

    next = chunk_at_offset(oldp, oldsize);
 8002a84:	e0ffef17 	ldw	r3,-68(fp)
 8002a88:	e0bff017 	ldw	r2,-64(fp)
 8002a8c:	1885883a 	add	r2,r3,r2
 8002a90:	e0bfe515 	stw	r2,-108(fp)
    if (next == top || !inuse(next)) 
 8002a94:	00820134 	movhi	r2,2052
 8002a98:	1083df04 	addi	r2,r2,3964
 8002a9c:	10c00217 	ldw	r3,8(r2)
 8002aa0:	e0bfe517 	ldw	r2,-108(fp)
 8002aa4:	18800926 	beq	r3,r2,8002acc <_realloc_r+0x114>
 8002aa8:	e0bfe517 	ldw	r2,-108(fp)
 8002aac:	10c00117 	ldw	r3,4(r2)
 8002ab0:	00bfff84 	movi	r2,-2
 8002ab4:	1884703a 	and	r2,r3,r2
 8002ab8:	e0ffe517 	ldw	r3,-108(fp)
 8002abc:	1885883a 	add	r2,r3,r2
 8002ac0:	10800117 	ldw	r2,4(r2)
 8002ac4:	1080004c 	andi	r2,r2,1
 8002ac8:	1000461e 	bne	r2,zero,8002be4 <_realloc_r+0x22c>
    {
      nextsize = chunksize(next);
 8002acc:	e0bfe517 	ldw	r2,-108(fp)
 8002ad0:	10c00117 	ldw	r3,4(r2)
 8002ad4:	00bfff04 	movi	r2,-4
 8002ad8:	1884703a 	and	r2,r3,r2
 8002adc:	e0bfe615 	stw	r2,-104(fp)

      /* Forward into top only if a remainder */
      if (next == top)
 8002ae0:	00820134 	movhi	r2,2052
 8002ae4:	1083df04 	addi	r2,r2,3964
 8002ae8:	10c00217 	ldw	r3,8(r2)
 8002aec:	e0bfe517 	ldw	r2,-108(fp)
 8002af0:	1880251e 	bne	r3,r2,8002b88 <_realloc_r+0x1d0>
      {
        if ((long)(nextsize + newsize) >= (long)(nb + MINSIZE))
 8002af4:	e0ffe617 	ldw	r3,-104(fp)
 8002af8:	e0bfe417 	ldw	r2,-112(fp)
 8002afc:	1885883a 	add	r2,r3,r2
 8002b00:	1007883a 	mov	r3,r2
 8002b04:	e0bff117 	ldw	r2,-60(fp)
 8002b08:	10800404 	addi	r2,r2,16
 8002b0c:	18803816 	blt	r3,r2,8002bf0 <_realloc_r+0x238>
        {
          newsize += nextsize;
 8002b10:	e0ffe417 	ldw	r3,-112(fp)
 8002b14:	e0bfe617 	ldw	r2,-104(fp)
 8002b18:	1885883a 	add	r2,r3,r2
 8002b1c:	e0bfe415 	stw	r2,-112(fp)
          top = chunk_at_offset(oldp, nb);
 8002b20:	00820134 	movhi	r2,2052
 8002b24:	1083df04 	addi	r2,r2,3964
 8002b28:	e13fef17 	ldw	r4,-68(fp)
 8002b2c:	e0fff117 	ldw	r3,-60(fp)
 8002b30:	20c7883a 	add	r3,r4,r3
 8002b34:	10c00215 	stw	r3,8(r2)
          set_head(top, (newsize - nb) | PREV_INUSE);
 8002b38:	00820134 	movhi	r2,2052
 8002b3c:	1083df04 	addi	r2,r2,3964
 8002b40:	10800217 	ldw	r2,8(r2)
 8002b44:	e13fe417 	ldw	r4,-112(fp)
 8002b48:	e0fff117 	ldw	r3,-60(fp)
 8002b4c:	20c7c83a 	sub	r3,r4,r3
 8002b50:	18c00054 	ori	r3,r3,1
 8002b54:	10c00115 	stw	r3,4(r2)
          set_head_size(oldp, nb);
 8002b58:	e0bfef17 	ldw	r2,-68(fp)
 8002b5c:	10800117 	ldw	r2,4(r2)
 8002b60:	10c0004c 	andi	r3,r2,1
 8002b64:	e0bff117 	ldw	r2,-60(fp)
 8002b68:	1886b03a 	or	r3,r3,r2
 8002b6c:	e0bfef17 	ldw	r2,-68(fp)
 8002b70:	10c00115 	stw	r3,4(r2)
	  MALLOC_UNLOCK;
 8002b74:	e13ffd17 	ldw	r4,-12(fp)
 8002b78:	80052680 	call	8005268 <__malloc_unlock>
          return chunk2mem(oldp);
 8002b7c:	e0bfef17 	ldw	r2,-68(fp)
 8002b80:	10800204 	addi	r2,r2,8
 8002b84:	00028306 	br	8003594 <_realloc_r+0xbdc>
        }
      }

      /* Forward into next chunk */
      else if (((long)(nextsize + newsize) >= (long)(nb)))
 8002b88:	e0ffe617 	ldw	r3,-104(fp)
 8002b8c:	e0bfe417 	ldw	r2,-112(fp)
 8002b90:	1885883a 	add	r2,r3,r2
 8002b94:	1007883a 	mov	r3,r2
 8002b98:	e0bff117 	ldw	r2,-60(fp)
 8002b9c:	18801416 	blt	r3,r2,8002bf0 <_realloc_r+0x238>
      { 
        unlink(next, bck, fwd);
 8002ba0:	e0bfe517 	ldw	r2,-108(fp)
 8002ba4:	10800317 	ldw	r2,12(r2)
 8002ba8:	e0bff215 	stw	r2,-56(fp)
 8002bac:	e0bfe517 	ldw	r2,-108(fp)
 8002bb0:	10800217 	ldw	r2,8(r2)
 8002bb4:	e0bff315 	stw	r2,-52(fp)
 8002bb8:	e0bff317 	ldw	r2,-52(fp)
 8002bbc:	e0fff217 	ldw	r3,-56(fp)
 8002bc0:	10c00315 	stw	r3,12(r2)
 8002bc4:	e0bff217 	ldw	r2,-56(fp)
 8002bc8:	e0fff317 	ldw	r3,-52(fp)
 8002bcc:	10c00215 	stw	r3,8(r2)
        newsize  += nextsize;
 8002bd0:	e0ffe417 	ldw	r3,-112(fp)
 8002bd4:	e0bfe617 	ldw	r2,-104(fp)
 8002bd8:	1885883a 	add	r2,r3,r2
 8002bdc:	e0bfe415 	stw	r2,-112(fp)
        goto split;
 8002be0:	00023306 	br	80034b0 <_realloc_r+0xaf8>
      }
    }
    else
    {
      next = 0;
 8002be4:	e03fe515 	stw	zero,-108(fp)
      nextsize = 0;
 8002be8:	e03fe615 	stw	zero,-104(fp)
 8002bec:	00000106 	br	8002bf4 <_realloc_r+0x23c>
    if (next == top || !inuse(next)) 
    {
      nextsize = chunksize(next);

      /* Forward into top only if a remainder */
      if (next == top)
 8002bf0:	0001883a 	nop
      nextsize = 0;
    }

    /* Try shifting backwards. */

    if (!prev_inuse(oldp))
 8002bf4:	e0bfef17 	ldw	r2,-68(fp)
 8002bf8:	10800117 	ldw	r2,4(r2)
 8002bfc:	1080004c 	andi	r2,r2,1
 8002c00:	1001a91e 	bne	r2,zero,80032a8 <_realloc_r+0x8f0>
    {
      prev = prev_chunk(oldp);
 8002c04:	e0bfef17 	ldw	r2,-68(fp)
 8002c08:	10800017 	ldw	r2,0(r2)
 8002c0c:	0085c83a 	sub	r2,zero,r2
 8002c10:	e0ffef17 	ldw	r3,-68(fp)
 8002c14:	1885883a 	add	r2,r3,r2
 8002c18:	e0bff415 	stw	r2,-48(fp)
      prevsize = chunksize(prev);
 8002c1c:	e0bff417 	ldw	r2,-48(fp)
 8002c20:	10c00117 	ldw	r3,4(r2)
 8002c24:	00bfff04 	movi	r2,-4
 8002c28:	1884703a 	and	r2,r3,r2
 8002c2c:	e0bff515 	stw	r2,-44(fp)

      /* try forward + backward first to save a later consolidation */

      if (next != 0)
 8002c30:	e0bfe517 	ldw	r2,-108(fp)
 8002c34:	10012226 	beq	r2,zero,80030c0 <_realloc_r+0x708>
      {
        /* into top */
        if (next == top)
 8002c38:	00820134 	movhi	r2,2052
 8002c3c:	1083df04 	addi	r2,r2,3964
 8002c40:	10c00217 	ldw	r3,8(r2)
 8002c44:	e0bfe517 	ldw	r2,-108(fp)
 8002c48:	1880951e 	bne	r3,r2,8002ea0 <_realloc_r+0x4e8>
        {
          if ((long)(nextsize + prevsize + newsize) >= (long)(nb + MINSIZE))
 8002c4c:	e0ffe617 	ldw	r3,-104(fp)
 8002c50:	e0bff517 	ldw	r2,-44(fp)
 8002c54:	1887883a 	add	r3,r3,r2
 8002c58:	e0bfe417 	ldw	r2,-112(fp)
 8002c5c:	1885883a 	add	r2,r3,r2
 8002c60:	1007883a 	mov	r3,r2
 8002c64:	e0bff117 	ldw	r2,-60(fp)
 8002c68:	10800404 	addi	r2,r2,16
 8002c6c:	18811416 	blt	r3,r2,80030c0 <_realloc_r+0x708>
          {
            unlink(prev, bck, fwd);
 8002c70:	e0bff417 	ldw	r2,-48(fp)
 8002c74:	10800317 	ldw	r2,12(r2)
 8002c78:	e0bff215 	stw	r2,-56(fp)
 8002c7c:	e0bff417 	ldw	r2,-48(fp)
 8002c80:	10800217 	ldw	r2,8(r2)
 8002c84:	e0bff315 	stw	r2,-52(fp)
 8002c88:	e0bff317 	ldw	r2,-52(fp)
 8002c8c:	e0fff217 	ldw	r3,-56(fp)
 8002c90:	10c00315 	stw	r3,12(r2)
 8002c94:	e0bff217 	ldw	r2,-56(fp)
 8002c98:	e0fff317 	ldw	r3,-52(fp)
 8002c9c:	10c00215 	stw	r3,8(r2)
            newp = prev;
 8002ca0:	e0bff417 	ldw	r2,-48(fp)
 8002ca4:	e0bfe315 	stw	r2,-116(fp)
            newsize += prevsize + nextsize;
 8002ca8:	e0fff517 	ldw	r3,-44(fp)
 8002cac:	e0bfe617 	ldw	r2,-104(fp)
 8002cb0:	1885883a 	add	r2,r3,r2
 8002cb4:	e0ffe417 	ldw	r3,-112(fp)
 8002cb8:	1885883a 	add	r2,r3,r2
 8002cbc:	e0bfe415 	stw	r2,-112(fp)
            newmem = chunk2mem(newp);
 8002cc0:	e0bfe317 	ldw	r2,-116(fp)
 8002cc4:	10800204 	addi	r2,r2,8
 8002cc8:	e0bff615 	stw	r2,-40(fp)
            MALLOC_COPY(newmem, oldmem, oldsize - SIZE_SZ);
 8002ccc:	e0bff017 	ldw	r2,-64(fp)
 8002cd0:	10bfff04 	addi	r2,r2,-4
 8002cd4:	e0bff715 	stw	r2,-36(fp)
 8002cd8:	e0bff717 	ldw	r2,-36(fp)
 8002cdc:	10800968 	cmpgeui	r2,r2,37
 8002ce0:	1000521e 	bne	r2,zero,8002e2c <_realloc_r+0x474>
 8002ce4:	e0bffe17 	ldw	r2,-8(fp)
 8002ce8:	e0bfe715 	stw	r2,-100(fp)
 8002cec:	e0bff617 	ldw	r2,-40(fp)
 8002cf0:	e0bfe815 	stw	r2,-96(fp)
 8002cf4:	e0bff717 	ldw	r2,-36(fp)
 8002cf8:	10800530 	cmpltui	r2,r2,20
 8002cfc:	1000361e 	bne	r2,zero,8002dd8 <_realloc_r+0x420>
 8002d00:	e0bfe817 	ldw	r2,-96(fp)
 8002d04:	10c00104 	addi	r3,r2,4
 8002d08:	e0ffe815 	stw	r3,-96(fp)
 8002d0c:	e0ffe717 	ldw	r3,-100(fp)
 8002d10:	19000104 	addi	r4,r3,4
 8002d14:	e13fe715 	stw	r4,-100(fp)
 8002d18:	18c00017 	ldw	r3,0(r3)
 8002d1c:	10c00015 	stw	r3,0(r2)
 8002d20:	e0bfe817 	ldw	r2,-96(fp)
 8002d24:	10c00104 	addi	r3,r2,4
 8002d28:	e0ffe815 	stw	r3,-96(fp)
 8002d2c:	e0ffe717 	ldw	r3,-100(fp)
 8002d30:	19000104 	addi	r4,r3,4
 8002d34:	e13fe715 	stw	r4,-100(fp)
 8002d38:	18c00017 	ldw	r3,0(r3)
 8002d3c:	10c00015 	stw	r3,0(r2)
 8002d40:	e0bff717 	ldw	r2,-36(fp)
 8002d44:	10800730 	cmpltui	r2,r2,28
 8002d48:	1000231e 	bne	r2,zero,8002dd8 <_realloc_r+0x420>
 8002d4c:	e0bfe817 	ldw	r2,-96(fp)
 8002d50:	10c00104 	addi	r3,r2,4
 8002d54:	e0ffe815 	stw	r3,-96(fp)
 8002d58:	e0ffe717 	ldw	r3,-100(fp)
 8002d5c:	19000104 	addi	r4,r3,4
 8002d60:	e13fe715 	stw	r4,-100(fp)
 8002d64:	18c00017 	ldw	r3,0(r3)
 8002d68:	10c00015 	stw	r3,0(r2)
 8002d6c:	e0bfe817 	ldw	r2,-96(fp)
 8002d70:	10c00104 	addi	r3,r2,4
 8002d74:	e0ffe815 	stw	r3,-96(fp)
 8002d78:	e0ffe717 	ldw	r3,-100(fp)
 8002d7c:	19000104 	addi	r4,r3,4
 8002d80:	e13fe715 	stw	r4,-100(fp)
 8002d84:	18c00017 	ldw	r3,0(r3)
 8002d88:	10c00015 	stw	r3,0(r2)
 8002d8c:	e0bff717 	ldw	r2,-36(fp)
 8002d90:	10800930 	cmpltui	r2,r2,36
 8002d94:	1000101e 	bne	r2,zero,8002dd8 <_realloc_r+0x420>
 8002d98:	e0bfe817 	ldw	r2,-96(fp)
 8002d9c:	10c00104 	addi	r3,r2,4
 8002da0:	e0ffe815 	stw	r3,-96(fp)
 8002da4:	e0ffe717 	ldw	r3,-100(fp)
 8002da8:	19000104 	addi	r4,r3,4
 8002dac:	e13fe715 	stw	r4,-100(fp)
 8002db0:	18c00017 	ldw	r3,0(r3)
 8002db4:	10c00015 	stw	r3,0(r2)
 8002db8:	e0bfe817 	ldw	r2,-96(fp)
 8002dbc:	10c00104 	addi	r3,r2,4
 8002dc0:	e0ffe815 	stw	r3,-96(fp)
 8002dc4:	e0ffe717 	ldw	r3,-100(fp)
 8002dc8:	19000104 	addi	r4,r3,4
 8002dcc:	e13fe715 	stw	r4,-100(fp)
 8002dd0:	18c00017 	ldw	r3,0(r3)
 8002dd4:	10c00015 	stw	r3,0(r2)
 8002dd8:	e0bfe817 	ldw	r2,-96(fp)
 8002ddc:	10c00104 	addi	r3,r2,4
 8002de0:	e0ffe815 	stw	r3,-96(fp)
 8002de4:	e0ffe717 	ldw	r3,-100(fp)
 8002de8:	19000104 	addi	r4,r3,4
 8002dec:	e13fe715 	stw	r4,-100(fp)
 8002df0:	18c00017 	ldw	r3,0(r3)
 8002df4:	10c00015 	stw	r3,0(r2)
 8002df8:	e0bfe817 	ldw	r2,-96(fp)
 8002dfc:	10c00104 	addi	r3,r2,4
 8002e00:	e0ffe815 	stw	r3,-96(fp)
 8002e04:	e0ffe717 	ldw	r3,-100(fp)
 8002e08:	19000104 	addi	r4,r3,4
 8002e0c:	e13fe715 	stw	r4,-100(fp)
 8002e10:	18c00017 	ldw	r3,0(r3)
 8002e14:	10c00015 	stw	r3,0(r2)
 8002e18:	e0bfe717 	ldw	r2,-100(fp)
 8002e1c:	10c00017 	ldw	r3,0(r2)
 8002e20:	e0bfe817 	ldw	r2,-96(fp)
 8002e24:	10c00015 	stw	r3,0(r2)
 8002e28:	00000406 	br	8002e3c <_realloc_r+0x484>
 8002e2c:	e1bff717 	ldw	r6,-36(fp)
 8002e30:	e17ffe17 	ldw	r5,-8(fp)
 8002e34:	e13ff617 	ldw	r4,-40(fp)
 8002e38:	80025ec0 	call	80025ec <memmove>
            top = chunk_at_offset(newp, nb);
 8002e3c:	00820134 	movhi	r2,2052
 8002e40:	1083df04 	addi	r2,r2,3964
 8002e44:	e13fe317 	ldw	r4,-116(fp)
 8002e48:	e0fff117 	ldw	r3,-60(fp)
 8002e4c:	20c7883a 	add	r3,r4,r3
 8002e50:	10c00215 	stw	r3,8(r2)
            set_head(top, (newsize - nb) | PREV_INUSE);
 8002e54:	00820134 	movhi	r2,2052
 8002e58:	1083df04 	addi	r2,r2,3964
 8002e5c:	10800217 	ldw	r2,8(r2)
 8002e60:	e13fe417 	ldw	r4,-112(fp)
 8002e64:	e0fff117 	ldw	r3,-60(fp)
 8002e68:	20c7c83a 	sub	r3,r4,r3
 8002e6c:	18c00054 	ori	r3,r3,1
 8002e70:	10c00115 	stw	r3,4(r2)
            set_head_size(newp, nb);
 8002e74:	e0bfe317 	ldw	r2,-116(fp)
 8002e78:	10800117 	ldw	r2,4(r2)
 8002e7c:	10c0004c 	andi	r3,r2,1
 8002e80:	e0bff117 	ldw	r2,-60(fp)
 8002e84:	1886b03a 	or	r3,r3,r2
 8002e88:	e0bfe317 	ldw	r2,-116(fp)
 8002e8c:	10c00115 	stw	r3,4(r2)
	    MALLOC_UNLOCK;
 8002e90:	e13ffd17 	ldw	r4,-12(fp)
 8002e94:	80052680 	call	8005268 <__malloc_unlock>
            return newmem;
 8002e98:	e0bff617 	ldw	r2,-40(fp)
 8002e9c:	0001bd06 	br	8003594 <_realloc_r+0xbdc>
          }
        }

        /* into next chunk */
        else if (((long)(nextsize + prevsize + newsize) >= (long)(nb)))
 8002ea0:	e0ffe617 	ldw	r3,-104(fp)
 8002ea4:	e0bff517 	ldw	r2,-44(fp)
 8002ea8:	1887883a 	add	r3,r3,r2
 8002eac:	e0bfe417 	ldw	r2,-112(fp)
 8002eb0:	1885883a 	add	r2,r3,r2
 8002eb4:	1007883a 	mov	r3,r2
 8002eb8:	e0bff117 	ldw	r2,-60(fp)
 8002ebc:	18808016 	blt	r3,r2,80030c0 <_realloc_r+0x708>
        {
          unlink(next, bck, fwd);
 8002ec0:	e0bfe517 	ldw	r2,-108(fp)
 8002ec4:	10800317 	ldw	r2,12(r2)
 8002ec8:	e0bff215 	stw	r2,-56(fp)
 8002ecc:	e0bfe517 	ldw	r2,-108(fp)
 8002ed0:	10800217 	ldw	r2,8(r2)
 8002ed4:	e0bff315 	stw	r2,-52(fp)
 8002ed8:	e0bff317 	ldw	r2,-52(fp)
 8002edc:	e0fff217 	ldw	r3,-56(fp)
 8002ee0:	10c00315 	stw	r3,12(r2)
 8002ee4:	e0bff217 	ldw	r2,-56(fp)
 8002ee8:	e0fff317 	ldw	r3,-52(fp)
 8002eec:	10c00215 	stw	r3,8(r2)
          unlink(prev, bck, fwd);
 8002ef0:	e0bff417 	ldw	r2,-48(fp)
 8002ef4:	10800317 	ldw	r2,12(r2)
 8002ef8:	e0bff215 	stw	r2,-56(fp)
 8002efc:	e0bff417 	ldw	r2,-48(fp)
 8002f00:	10800217 	ldw	r2,8(r2)
 8002f04:	e0bff315 	stw	r2,-52(fp)
 8002f08:	e0bff317 	ldw	r2,-52(fp)
 8002f0c:	e0fff217 	ldw	r3,-56(fp)
 8002f10:	10c00315 	stw	r3,12(r2)
 8002f14:	e0bff217 	ldw	r2,-56(fp)
 8002f18:	e0fff317 	ldw	r3,-52(fp)
 8002f1c:	10c00215 	stw	r3,8(r2)
          newp = prev;
 8002f20:	e0bff417 	ldw	r2,-48(fp)
 8002f24:	e0bfe315 	stw	r2,-116(fp)
          newsize += nextsize + prevsize;
 8002f28:	e0ffe617 	ldw	r3,-104(fp)
 8002f2c:	e0bff517 	ldw	r2,-44(fp)
 8002f30:	1885883a 	add	r2,r3,r2
 8002f34:	e0ffe417 	ldw	r3,-112(fp)
 8002f38:	1885883a 	add	r2,r3,r2
 8002f3c:	e0bfe415 	stw	r2,-112(fp)
          newmem = chunk2mem(newp);
 8002f40:	e0bfe317 	ldw	r2,-116(fp)
 8002f44:	10800204 	addi	r2,r2,8
 8002f48:	e0bff615 	stw	r2,-40(fp)
          MALLOC_COPY(newmem, oldmem, oldsize - SIZE_SZ);
 8002f4c:	e0bff017 	ldw	r2,-64(fp)
 8002f50:	10bfff04 	addi	r2,r2,-4
 8002f54:	e0bff815 	stw	r2,-32(fp)
 8002f58:	e0bff817 	ldw	r2,-32(fp)
 8002f5c:	10800968 	cmpgeui	r2,r2,37
 8002f60:	1000521e 	bne	r2,zero,80030ac <_realloc_r+0x6f4>
 8002f64:	e0bffe17 	ldw	r2,-8(fp)
 8002f68:	e0bfe915 	stw	r2,-92(fp)
 8002f6c:	e0bff617 	ldw	r2,-40(fp)
 8002f70:	e0bfea15 	stw	r2,-88(fp)
 8002f74:	e0bff817 	ldw	r2,-32(fp)
 8002f78:	10800530 	cmpltui	r2,r2,20
 8002f7c:	1000361e 	bne	r2,zero,8003058 <_realloc_r+0x6a0>
 8002f80:	e0bfea17 	ldw	r2,-88(fp)
 8002f84:	10c00104 	addi	r3,r2,4
 8002f88:	e0ffea15 	stw	r3,-88(fp)
 8002f8c:	e0ffe917 	ldw	r3,-92(fp)
 8002f90:	19000104 	addi	r4,r3,4
 8002f94:	e13fe915 	stw	r4,-92(fp)
 8002f98:	18c00017 	ldw	r3,0(r3)
 8002f9c:	10c00015 	stw	r3,0(r2)
 8002fa0:	e0bfea17 	ldw	r2,-88(fp)
 8002fa4:	10c00104 	addi	r3,r2,4
 8002fa8:	e0ffea15 	stw	r3,-88(fp)
 8002fac:	e0ffe917 	ldw	r3,-92(fp)
 8002fb0:	19000104 	addi	r4,r3,4
 8002fb4:	e13fe915 	stw	r4,-92(fp)
 8002fb8:	18c00017 	ldw	r3,0(r3)
 8002fbc:	10c00015 	stw	r3,0(r2)
 8002fc0:	e0bff817 	ldw	r2,-32(fp)
 8002fc4:	10800730 	cmpltui	r2,r2,28
 8002fc8:	1000231e 	bne	r2,zero,8003058 <_realloc_r+0x6a0>
 8002fcc:	e0bfea17 	ldw	r2,-88(fp)
 8002fd0:	10c00104 	addi	r3,r2,4
 8002fd4:	e0ffea15 	stw	r3,-88(fp)
 8002fd8:	e0ffe917 	ldw	r3,-92(fp)
 8002fdc:	19000104 	addi	r4,r3,4
 8002fe0:	e13fe915 	stw	r4,-92(fp)
 8002fe4:	18c00017 	ldw	r3,0(r3)
 8002fe8:	10c00015 	stw	r3,0(r2)
 8002fec:	e0bfea17 	ldw	r2,-88(fp)
 8002ff0:	10c00104 	addi	r3,r2,4
 8002ff4:	e0ffea15 	stw	r3,-88(fp)
 8002ff8:	e0ffe917 	ldw	r3,-92(fp)
 8002ffc:	19000104 	addi	r4,r3,4
 8003000:	e13fe915 	stw	r4,-92(fp)
 8003004:	18c00017 	ldw	r3,0(r3)
 8003008:	10c00015 	stw	r3,0(r2)
 800300c:	e0bff817 	ldw	r2,-32(fp)
 8003010:	10800930 	cmpltui	r2,r2,36
 8003014:	1000101e 	bne	r2,zero,8003058 <_realloc_r+0x6a0>
 8003018:	e0bfea17 	ldw	r2,-88(fp)
 800301c:	10c00104 	addi	r3,r2,4
 8003020:	e0ffea15 	stw	r3,-88(fp)
 8003024:	e0ffe917 	ldw	r3,-92(fp)
 8003028:	19000104 	addi	r4,r3,4
 800302c:	e13fe915 	stw	r4,-92(fp)
 8003030:	18c00017 	ldw	r3,0(r3)
 8003034:	10c00015 	stw	r3,0(r2)
 8003038:	e0bfea17 	ldw	r2,-88(fp)
 800303c:	10c00104 	addi	r3,r2,4
 8003040:	e0ffea15 	stw	r3,-88(fp)
 8003044:	e0ffe917 	ldw	r3,-92(fp)
 8003048:	19000104 	addi	r4,r3,4
 800304c:	e13fe915 	stw	r4,-92(fp)
 8003050:	18c00017 	ldw	r3,0(r3)
 8003054:	10c00015 	stw	r3,0(r2)
 8003058:	e0bfea17 	ldw	r2,-88(fp)
 800305c:	10c00104 	addi	r3,r2,4
 8003060:	e0ffea15 	stw	r3,-88(fp)
 8003064:	e0ffe917 	ldw	r3,-92(fp)
 8003068:	19000104 	addi	r4,r3,4
 800306c:	e13fe915 	stw	r4,-92(fp)
 8003070:	18c00017 	ldw	r3,0(r3)
 8003074:	10c00015 	stw	r3,0(r2)
 8003078:	e0bfea17 	ldw	r2,-88(fp)
 800307c:	10c00104 	addi	r3,r2,4
 8003080:	e0ffea15 	stw	r3,-88(fp)
 8003084:	e0ffe917 	ldw	r3,-92(fp)
 8003088:	19000104 	addi	r4,r3,4
 800308c:	e13fe915 	stw	r4,-92(fp)
 8003090:	18c00017 	ldw	r3,0(r3)
 8003094:	10c00015 	stw	r3,0(r2)
 8003098:	e0bfe917 	ldw	r2,-92(fp)
 800309c:	10c00017 	ldw	r3,0(r2)
 80030a0:	e0bfea17 	ldw	r2,-88(fp)
 80030a4:	10c00015 	stw	r3,0(r2)
          goto split;
 80030a8:	00010106 	br	80034b0 <_realloc_r+0xaf8>
          unlink(next, bck, fwd);
          unlink(prev, bck, fwd);
          newp = prev;
          newsize += nextsize + prevsize;
          newmem = chunk2mem(newp);
          MALLOC_COPY(newmem, oldmem, oldsize - SIZE_SZ);
 80030ac:	e1bff817 	ldw	r6,-32(fp)
 80030b0:	e17ffe17 	ldw	r5,-8(fp)
 80030b4:	e13ff617 	ldw	r4,-40(fp)
 80030b8:	80025ec0 	call	80025ec <memmove>
          goto split;
 80030bc:	0000fc06 	br	80034b0 <_realloc_r+0xaf8>
        }
      }
      
      /* backward only */
      if (prev != 0 && (long)(prevsize + newsize) >= (long)nb)  
 80030c0:	e0bff417 	ldw	r2,-48(fp)
 80030c4:	10007826 	beq	r2,zero,80032a8 <_realloc_r+0x8f0>
 80030c8:	e0fff517 	ldw	r3,-44(fp)
 80030cc:	e0bfe417 	ldw	r2,-112(fp)
 80030d0:	1885883a 	add	r2,r3,r2
 80030d4:	1007883a 	mov	r3,r2
 80030d8:	e0bff117 	ldw	r2,-60(fp)
 80030dc:	18807216 	blt	r3,r2,80032a8 <_realloc_r+0x8f0>
      {
        unlink(prev, bck, fwd);
 80030e0:	e0bff417 	ldw	r2,-48(fp)
 80030e4:	10800317 	ldw	r2,12(r2)
 80030e8:	e0bff215 	stw	r2,-56(fp)
 80030ec:	e0bff417 	ldw	r2,-48(fp)
 80030f0:	10800217 	ldw	r2,8(r2)
 80030f4:	e0bff315 	stw	r2,-52(fp)
 80030f8:	e0bff317 	ldw	r2,-52(fp)
 80030fc:	e0fff217 	ldw	r3,-56(fp)
 8003100:	10c00315 	stw	r3,12(r2)
 8003104:	e0bff217 	ldw	r2,-56(fp)
 8003108:	e0fff317 	ldw	r3,-52(fp)
 800310c:	10c00215 	stw	r3,8(r2)
        newp = prev;
 8003110:	e0bff417 	ldw	r2,-48(fp)
 8003114:	e0bfe315 	stw	r2,-116(fp)
        newsize += prevsize;
 8003118:	e0ffe417 	ldw	r3,-112(fp)
 800311c:	e0bff517 	ldw	r2,-44(fp)
 8003120:	1885883a 	add	r2,r3,r2
 8003124:	e0bfe415 	stw	r2,-112(fp)
        newmem = chunk2mem(newp);
 8003128:	e0bfe317 	ldw	r2,-116(fp)
 800312c:	10800204 	addi	r2,r2,8
 8003130:	e0bff615 	stw	r2,-40(fp)
        MALLOC_COPY(newmem, oldmem, oldsize - SIZE_SZ);
 8003134:	e0bff017 	ldw	r2,-64(fp)
 8003138:	10bfff04 	addi	r2,r2,-4
 800313c:	e0bff915 	stw	r2,-28(fp)
 8003140:	e0bff917 	ldw	r2,-28(fp)
 8003144:	10800968 	cmpgeui	r2,r2,37
 8003148:	1000521e 	bne	r2,zero,8003294 <_realloc_r+0x8dc>
 800314c:	e0bffe17 	ldw	r2,-8(fp)
 8003150:	e0bfeb15 	stw	r2,-84(fp)
 8003154:	e0bff617 	ldw	r2,-40(fp)
 8003158:	e0bfec15 	stw	r2,-80(fp)
 800315c:	e0bff917 	ldw	r2,-28(fp)
 8003160:	10800530 	cmpltui	r2,r2,20
 8003164:	1000361e 	bne	r2,zero,8003240 <_realloc_r+0x888>
 8003168:	e0bfec17 	ldw	r2,-80(fp)
 800316c:	10c00104 	addi	r3,r2,4
 8003170:	e0ffec15 	stw	r3,-80(fp)
 8003174:	e0ffeb17 	ldw	r3,-84(fp)
 8003178:	19000104 	addi	r4,r3,4
 800317c:	e13feb15 	stw	r4,-84(fp)
 8003180:	18c00017 	ldw	r3,0(r3)
 8003184:	10c00015 	stw	r3,0(r2)
 8003188:	e0bfec17 	ldw	r2,-80(fp)
 800318c:	10c00104 	addi	r3,r2,4
 8003190:	e0ffec15 	stw	r3,-80(fp)
 8003194:	e0ffeb17 	ldw	r3,-84(fp)
 8003198:	19000104 	addi	r4,r3,4
 800319c:	e13feb15 	stw	r4,-84(fp)
 80031a0:	18c00017 	ldw	r3,0(r3)
 80031a4:	10c00015 	stw	r3,0(r2)
 80031a8:	e0bff917 	ldw	r2,-28(fp)
 80031ac:	10800730 	cmpltui	r2,r2,28
 80031b0:	1000231e 	bne	r2,zero,8003240 <_realloc_r+0x888>
 80031b4:	e0bfec17 	ldw	r2,-80(fp)
 80031b8:	10c00104 	addi	r3,r2,4
 80031bc:	e0ffec15 	stw	r3,-80(fp)
 80031c0:	e0ffeb17 	ldw	r3,-84(fp)
 80031c4:	19000104 	addi	r4,r3,4
 80031c8:	e13feb15 	stw	r4,-84(fp)
 80031cc:	18c00017 	ldw	r3,0(r3)
 80031d0:	10c00015 	stw	r3,0(r2)
 80031d4:	e0bfec17 	ldw	r2,-80(fp)
 80031d8:	10c00104 	addi	r3,r2,4
 80031dc:	e0ffec15 	stw	r3,-80(fp)
 80031e0:	e0ffeb17 	ldw	r3,-84(fp)
 80031e4:	19000104 	addi	r4,r3,4
 80031e8:	e13feb15 	stw	r4,-84(fp)
 80031ec:	18c00017 	ldw	r3,0(r3)
 80031f0:	10c00015 	stw	r3,0(r2)
 80031f4:	e0bff917 	ldw	r2,-28(fp)
 80031f8:	10800930 	cmpltui	r2,r2,36
 80031fc:	1000101e 	bne	r2,zero,8003240 <_realloc_r+0x888>
 8003200:	e0bfec17 	ldw	r2,-80(fp)
 8003204:	10c00104 	addi	r3,r2,4
 8003208:	e0ffec15 	stw	r3,-80(fp)
 800320c:	e0ffeb17 	ldw	r3,-84(fp)
 8003210:	19000104 	addi	r4,r3,4
 8003214:	e13feb15 	stw	r4,-84(fp)
 8003218:	18c00017 	ldw	r3,0(r3)
 800321c:	10c00015 	stw	r3,0(r2)
 8003220:	e0bfec17 	ldw	r2,-80(fp)
 8003224:	10c00104 	addi	r3,r2,4
 8003228:	e0ffec15 	stw	r3,-80(fp)
 800322c:	e0ffeb17 	ldw	r3,-84(fp)
 8003230:	19000104 	addi	r4,r3,4
 8003234:	e13feb15 	stw	r4,-84(fp)
 8003238:	18c00017 	ldw	r3,0(r3)
 800323c:	10c00015 	stw	r3,0(r2)
 8003240:	e0bfec17 	ldw	r2,-80(fp)
 8003244:	10c00104 	addi	r3,r2,4
 8003248:	e0ffec15 	stw	r3,-80(fp)
 800324c:	e0ffeb17 	ldw	r3,-84(fp)
 8003250:	19000104 	addi	r4,r3,4
 8003254:	e13feb15 	stw	r4,-84(fp)
 8003258:	18c00017 	ldw	r3,0(r3)
 800325c:	10c00015 	stw	r3,0(r2)
 8003260:	e0bfec17 	ldw	r2,-80(fp)
 8003264:	10c00104 	addi	r3,r2,4
 8003268:	e0ffec15 	stw	r3,-80(fp)
 800326c:	e0ffeb17 	ldw	r3,-84(fp)
 8003270:	19000104 	addi	r4,r3,4
 8003274:	e13feb15 	stw	r4,-84(fp)
 8003278:	18c00017 	ldw	r3,0(r3)
 800327c:	10c00015 	stw	r3,0(r2)
 8003280:	e0bfeb17 	ldw	r2,-84(fp)
 8003284:	10c00017 	ldw	r3,0(r2)
 8003288:	e0bfec17 	ldw	r2,-80(fp)
 800328c:	10c00015 	stw	r3,0(r2)
        goto split;
 8003290:	00008706 	br	80034b0 <_realloc_r+0xaf8>
      {
        unlink(prev, bck, fwd);
        newp = prev;
        newsize += prevsize;
        newmem = chunk2mem(newp);
        MALLOC_COPY(newmem, oldmem, oldsize - SIZE_SZ);
 8003294:	e1bff917 	ldw	r6,-28(fp)
 8003298:	e17ffe17 	ldw	r5,-8(fp)
 800329c:	e13ff617 	ldw	r4,-40(fp)
 80032a0:	80025ec0 	call	80025ec <memmove>
        goto split;
 80032a4:	00008206 	br	80034b0 <_realloc_r+0xaf8>
      }
    }

    /* Must allocate */

    newmem = mALLOc (RCALL bytes);
 80032a8:	e17fff17 	ldw	r5,-4(fp)
 80032ac:	e13ffd17 	ldw	r4,-12(fp)
 80032b0:	800172c0 	call	800172c <_malloc_r>
 80032b4:	e0bff615 	stw	r2,-40(fp)

    if (newmem == 0)  /* propagate failure */
 80032b8:	e0bff617 	ldw	r2,-40(fp)
 80032bc:	1000041e 	bne	r2,zero,80032d0 <_realloc_r+0x918>
    {
      MALLOC_UNLOCK;
 80032c0:	e13ffd17 	ldw	r4,-12(fp)
 80032c4:	80052680 	call	8005268 <__malloc_unlock>
      return 0;
 80032c8:	0005883a 	mov	r2,zero
 80032cc:	0000b106 	br	8003594 <_realloc_r+0xbdc>
    }

    /* Avoid copy if newp is next chunk after oldp. */
    /* (This can only happen when new chunk is sbrk'ed.) */

    if ( (newp = mem2chunk(newmem)) == next_chunk(oldp)) 
 80032d0:	e0bff617 	ldw	r2,-40(fp)
 80032d4:	10bffe04 	addi	r2,r2,-8
 80032d8:	e0bfe315 	stw	r2,-116(fp)
 80032dc:	e0bfef17 	ldw	r2,-68(fp)
 80032e0:	10c00117 	ldw	r3,4(r2)
 80032e4:	00bfff84 	movi	r2,-2
 80032e8:	1884703a 	and	r2,r3,r2
 80032ec:	e0ffef17 	ldw	r3,-68(fp)
 80032f0:	1885883a 	add	r2,r3,r2
 80032f4:	e0ffe317 	ldw	r3,-116(fp)
 80032f8:	18800a1e 	bne	r3,r2,8003324 <_realloc_r+0x96c>
    {
      newsize += chunksize(newp);
 80032fc:	e0bfe317 	ldw	r2,-116(fp)
 8003300:	10c00117 	ldw	r3,4(r2)
 8003304:	00bfff04 	movi	r2,-4
 8003308:	1884703a 	and	r2,r3,r2
 800330c:	e0ffe417 	ldw	r3,-112(fp)
 8003310:	1885883a 	add	r2,r3,r2
 8003314:	e0bfe415 	stw	r2,-112(fp)
      newp = oldp;
 8003318:	e0bfef17 	ldw	r2,-68(fp)
 800331c:	e0bfe315 	stw	r2,-116(fp)
      goto split;
 8003320:	00006306 	br	80034b0 <_realloc_r+0xaf8>
    }

    /* Otherwise copy, free, and exit */
    MALLOC_COPY(newmem, oldmem, oldsize - SIZE_SZ);
 8003324:	e0bff017 	ldw	r2,-64(fp)
 8003328:	10bfff04 	addi	r2,r2,-4
 800332c:	e0bffa15 	stw	r2,-24(fp)
 8003330:	e0bffa17 	ldw	r2,-24(fp)
 8003334:	10800968 	cmpgeui	r2,r2,37
 8003338:	1000521e 	bne	r2,zero,8003484 <_realloc_r+0xacc>
 800333c:	e0bffe17 	ldw	r2,-8(fp)
 8003340:	e0bfed15 	stw	r2,-76(fp)
 8003344:	e0bff617 	ldw	r2,-40(fp)
 8003348:	e0bfee15 	stw	r2,-72(fp)
 800334c:	e0bffa17 	ldw	r2,-24(fp)
 8003350:	10800530 	cmpltui	r2,r2,20
 8003354:	1000361e 	bne	r2,zero,8003430 <_realloc_r+0xa78>
 8003358:	e0bfee17 	ldw	r2,-72(fp)
 800335c:	10c00104 	addi	r3,r2,4
 8003360:	e0ffee15 	stw	r3,-72(fp)
 8003364:	e0ffed17 	ldw	r3,-76(fp)
 8003368:	19000104 	addi	r4,r3,4
 800336c:	e13fed15 	stw	r4,-76(fp)
 8003370:	18c00017 	ldw	r3,0(r3)
 8003374:	10c00015 	stw	r3,0(r2)
 8003378:	e0bfee17 	ldw	r2,-72(fp)
 800337c:	10c00104 	addi	r3,r2,4
 8003380:	e0ffee15 	stw	r3,-72(fp)
 8003384:	e0ffed17 	ldw	r3,-76(fp)
 8003388:	19000104 	addi	r4,r3,4
 800338c:	e13fed15 	stw	r4,-76(fp)
 8003390:	18c00017 	ldw	r3,0(r3)
 8003394:	10c00015 	stw	r3,0(r2)
 8003398:	e0bffa17 	ldw	r2,-24(fp)
 800339c:	10800730 	cmpltui	r2,r2,28
 80033a0:	1000231e 	bne	r2,zero,8003430 <_realloc_r+0xa78>
 80033a4:	e0bfee17 	ldw	r2,-72(fp)
 80033a8:	10c00104 	addi	r3,r2,4
 80033ac:	e0ffee15 	stw	r3,-72(fp)
 80033b0:	e0ffed17 	ldw	r3,-76(fp)
 80033b4:	19000104 	addi	r4,r3,4
 80033b8:	e13fed15 	stw	r4,-76(fp)
 80033bc:	18c00017 	ldw	r3,0(r3)
 80033c0:	10c00015 	stw	r3,0(r2)
 80033c4:	e0bfee17 	ldw	r2,-72(fp)
 80033c8:	10c00104 	addi	r3,r2,4
 80033cc:	e0ffee15 	stw	r3,-72(fp)
 80033d0:	e0ffed17 	ldw	r3,-76(fp)
 80033d4:	19000104 	addi	r4,r3,4
 80033d8:	e13fed15 	stw	r4,-76(fp)
 80033dc:	18c00017 	ldw	r3,0(r3)
 80033e0:	10c00015 	stw	r3,0(r2)
 80033e4:	e0bffa17 	ldw	r2,-24(fp)
 80033e8:	10800930 	cmpltui	r2,r2,36
 80033ec:	1000101e 	bne	r2,zero,8003430 <_realloc_r+0xa78>
 80033f0:	e0bfee17 	ldw	r2,-72(fp)
 80033f4:	10c00104 	addi	r3,r2,4
 80033f8:	e0ffee15 	stw	r3,-72(fp)
 80033fc:	e0ffed17 	ldw	r3,-76(fp)
 8003400:	19000104 	addi	r4,r3,4
 8003404:	e13fed15 	stw	r4,-76(fp)
 8003408:	18c00017 	ldw	r3,0(r3)
 800340c:	10c00015 	stw	r3,0(r2)
 8003410:	e0bfee17 	ldw	r2,-72(fp)
 8003414:	10c00104 	addi	r3,r2,4
 8003418:	e0ffee15 	stw	r3,-72(fp)
 800341c:	e0ffed17 	ldw	r3,-76(fp)
 8003420:	19000104 	addi	r4,r3,4
 8003424:	e13fed15 	stw	r4,-76(fp)
 8003428:	18c00017 	ldw	r3,0(r3)
 800342c:	10c00015 	stw	r3,0(r2)
 8003430:	e0bfee17 	ldw	r2,-72(fp)
 8003434:	10c00104 	addi	r3,r2,4
 8003438:	e0ffee15 	stw	r3,-72(fp)
 800343c:	e0ffed17 	ldw	r3,-76(fp)
 8003440:	19000104 	addi	r4,r3,4
 8003444:	e13fed15 	stw	r4,-76(fp)
 8003448:	18c00017 	ldw	r3,0(r3)
 800344c:	10c00015 	stw	r3,0(r2)
 8003450:	e0bfee17 	ldw	r2,-72(fp)
 8003454:	10c00104 	addi	r3,r2,4
 8003458:	e0ffee15 	stw	r3,-72(fp)
 800345c:	e0ffed17 	ldw	r3,-76(fp)
 8003460:	19000104 	addi	r4,r3,4
 8003464:	e13fed15 	stw	r4,-76(fp)
 8003468:	18c00017 	ldw	r3,0(r3)
 800346c:	10c00015 	stw	r3,0(r2)
 8003470:	e0bfed17 	ldw	r2,-76(fp)
 8003474:	10c00017 	ldw	r3,0(r2)
 8003478:	e0bfee17 	ldw	r2,-72(fp)
 800347c:	10c00015 	stw	r3,0(r2)
 8003480:	00000406 	br	8003494 <_realloc_r+0xadc>
 8003484:	e1bffa17 	ldw	r6,-24(fp)
 8003488:	e17ffe17 	ldw	r5,-8(fp)
 800348c:	e13ff617 	ldw	r4,-40(fp)
 8003490:	80025ec0 	call	80025ec <memmove>
    fREe(RCALL oldmem);
 8003494:	e17ffe17 	ldw	r5,-8(fp)
 8003498:	e13ffd17 	ldw	r4,-12(fp)
 800349c:	80040300 	call	8004030 <_free_r>
    MALLOC_UNLOCK;
 80034a0:	e13ffd17 	ldw	r4,-12(fp)
 80034a4:	80052680 	call	8005268 <__malloc_unlock>
    return newmem;
 80034a8:	e0bff617 	ldw	r2,-40(fp)
 80034ac:	00003906 	br	8003594 <_realloc_r+0xbdc>
  }


 split:  /* split off extra room in old or expanded chunk */

  remainder_size = long_sub_size_t(newsize, nb);
 80034b0:	e0ffe417 	ldw	r3,-112(fp)
 80034b4:	e0bff117 	ldw	r2,-60(fp)
 80034b8:	1885c83a 	sub	r2,r3,r2
 80034bc:	e0bffb15 	stw	r2,-20(fp)

  if (remainder_size >= (long)MINSIZE) /* split off remainder */
 80034c0:	e0bffb17 	ldw	r2,-20(fp)
 80034c4:	10800430 	cmpltui	r2,r2,16
 80034c8:	10001e1e 	bne	r2,zero,8003544 <_realloc_r+0xb8c>
  {
    remainder = chunk_at_offset(newp, nb);
 80034cc:	e0ffe317 	ldw	r3,-116(fp)
 80034d0:	e0bff117 	ldw	r2,-60(fp)
 80034d4:	1885883a 	add	r2,r3,r2
 80034d8:	e0bffc15 	stw	r2,-16(fp)
    set_head_size(newp, nb);
 80034dc:	e0bfe317 	ldw	r2,-116(fp)
 80034e0:	10800117 	ldw	r2,4(r2)
 80034e4:	10c0004c 	andi	r3,r2,1
 80034e8:	e0bff117 	ldw	r2,-60(fp)
 80034ec:	1886b03a 	or	r3,r3,r2
 80034f0:	e0bfe317 	ldw	r2,-116(fp)
 80034f4:	10c00115 	stw	r3,4(r2)
    set_head(remainder, remainder_size | PREV_INUSE);
 80034f8:	e0bffb17 	ldw	r2,-20(fp)
 80034fc:	10c00054 	ori	r3,r2,1
 8003500:	e0bffc17 	ldw	r2,-16(fp)
 8003504:	10c00115 	stw	r3,4(r2)
    set_inuse_bit_at_offset(remainder, remainder_size);
 8003508:	e0fffc17 	ldw	r3,-16(fp)
 800350c:	e0bffb17 	ldw	r2,-20(fp)
 8003510:	1885883a 	add	r2,r3,r2
 8003514:	e13ffc17 	ldw	r4,-16(fp)
 8003518:	e0fffb17 	ldw	r3,-20(fp)
 800351c:	20c7883a 	add	r3,r4,r3
 8003520:	18c00117 	ldw	r3,4(r3)
 8003524:	18c00054 	ori	r3,r3,1
 8003528:	10c00115 	stw	r3,4(r2)
    fREe(RCALL chunk2mem(remainder)); /* let free() deal with it */
 800352c:	e0bffc17 	ldw	r2,-16(fp)
 8003530:	10800204 	addi	r2,r2,8
 8003534:	100b883a 	mov	r5,r2
 8003538:	e13ffd17 	ldw	r4,-12(fp)
 800353c:	80040300 	call	8004030 <_free_r>
 8003540:	00001006 	br	8003584 <_realloc_r+0xbcc>
  }
  else
  {
    set_head_size(newp, newsize);
 8003544:	e0bfe317 	ldw	r2,-116(fp)
 8003548:	10800117 	ldw	r2,4(r2)
 800354c:	10c0004c 	andi	r3,r2,1
 8003550:	e0bfe417 	ldw	r2,-112(fp)
 8003554:	1886b03a 	or	r3,r3,r2
 8003558:	e0bfe317 	ldw	r2,-116(fp)
 800355c:	10c00115 	stw	r3,4(r2)
    set_inuse_bit_at_offset(newp, newsize);
 8003560:	e0ffe317 	ldw	r3,-116(fp)
 8003564:	e0bfe417 	ldw	r2,-112(fp)
 8003568:	1885883a 	add	r2,r3,r2
 800356c:	e13fe317 	ldw	r4,-116(fp)
 8003570:	e0ffe417 	ldw	r3,-112(fp)
 8003574:	20c7883a 	add	r3,r4,r3
 8003578:	18c00117 	ldw	r3,4(r3)
 800357c:	18c00054 	ori	r3,r3,1
 8003580:	10c00115 	stw	r3,4(r2)
  }

  check_inuse_chunk(newp);
  MALLOC_UNLOCK;
 8003584:	e13ffd17 	ldw	r4,-12(fp)
 8003588:	80052680 	call	8005268 <__malloc_unlock>
  return chunk2mem(newp);
 800358c:	e0bfe317 	ldw	r2,-116(fp)
 8003590:	10800204 	addi	r2,r2,8

#endif /* MALLOC_PROVIDED */
}
 8003594:	e037883a 	mov	sp,fp
 8003598:	dfc00117 	ldw	ra,4(sp)
 800359c:	df000017 	ldw	fp,0(sp)
 80035a0:	dec00204 	addi	sp,sp,8
 80035a4:	f800283a 	ret

080035a8 <_sbrk_r>:

void *
_DEFUN (_sbrk_r, (ptr, incr),
     struct _reent *ptr _AND
     ptrdiff_t incr)
{
 80035a8:	defffb04 	addi	sp,sp,-20
 80035ac:	dfc00415 	stw	ra,16(sp)
 80035b0:	df000315 	stw	fp,12(sp)
 80035b4:	df000304 	addi	fp,sp,12
 80035b8:	e13ffe15 	stw	r4,-8(fp)
 80035bc:	e17fff15 	stw	r5,-4(fp)
  char *ret;
  void *_sbrk(ptrdiff_t);

  errno = 0;
 80035c0:	d026e615 	stw	zero,-25704(gp)
  if ((ret = (char *)(_sbrk (incr))) == (void *) -1 && errno != 0)
 80035c4:	e13fff17 	ldw	r4,-4(fp)
 80035c8:	80054280 	call	8005428 <sbrk>
 80035cc:	e0bffd15 	stw	r2,-12(fp)
 80035d0:	e0bffd17 	ldw	r2,-12(fp)
 80035d4:	10bfffd8 	cmpnei	r2,r2,-1
 80035d8:	1000051e 	bne	r2,zero,80035f0 <_sbrk_r+0x48>
 80035dc:	d0a6e617 	ldw	r2,-25704(gp)
 80035e0:	10000326 	beq	r2,zero,80035f0 <_sbrk_r+0x48>
    ptr->_errno = errno;
 80035e4:	d0e6e617 	ldw	r3,-25704(gp)
 80035e8:	e0bffe17 	ldw	r2,-8(fp)
 80035ec:	10c00015 	stw	r3,0(r2)
  return ret;
 80035f0:	e0bffd17 	ldw	r2,-12(fp)
}
 80035f4:	e037883a 	mov	sp,fp
 80035f8:	dfc00117 	ldw	ra,4(sp)
 80035fc:	df000017 	ldw	fp,0(sp)
 8003600:	dec00204 	addi	sp,sp,8
 8003604:	f800283a 	ret

08003608 <__sread>:
_DEFUN(__sread, (ptr, cookie, buf, n),
       struct _reent *ptr _AND
       void *cookie _AND
       char *buf _AND
       _READ_WRITE_BUFSIZE_TYPE n)
{
 8003608:	defff804 	addi	sp,sp,-32
 800360c:	dfc00715 	stw	ra,28(sp)
 8003610:	df000615 	stw	fp,24(sp)
 8003614:	dc400515 	stw	r17,20(sp)
 8003618:	dc000415 	stw	r16,16(sp)
 800361c:	df000604 	addi	fp,sp,24
 8003620:	e13ffa15 	stw	r4,-24(fp)
 8003624:	e17ffb15 	stw	r5,-20(fp)
 8003628:	e1bffc15 	stw	r6,-16(fp)
 800362c:	e1fffd15 	stw	r7,-12(fp)
  register FILE *fp = (FILE *) cookie;
 8003630:	e43ffb17 	ldw	r16,-20(fp)
  int oldmode = 0;
  if (fp->_flags & __SCLE)
    oldmode = setmode (fp->_file, O_BINARY);
#endif

  ret = _read_r (ptr, fp->_file, buf, n);
 8003634:	8080038b 	ldhu	r2,14(r16)
 8003638:	10bfffcc 	andi	r2,r2,65535
 800363c:	10a0001c 	xori	r2,r2,32768
 8003640:	10a00004 	addi	r2,r2,-32768
 8003644:	e0fffd17 	ldw	r3,-12(fp)
 8003648:	180f883a 	mov	r7,r3
 800364c:	e1bffc17 	ldw	r6,-16(fp)
 8003650:	100b883a 	mov	r5,r2
 8003654:	e13ffa17 	ldw	r4,-24(fp)
 8003658:	80049f80 	call	80049f8 <_read_r>
 800365c:	1023883a 	mov	r17,r2
    setmode (fp->_file, oldmode);
#endif

  /* If the read succeeded, update the current offset.  */

  if (ret >= 0)
 8003660:	88000416 	blt	r17,zero,8003674 <__sread+0x6c>
    fp->_offset += ret;
 8003664:	80801417 	ldw	r2,80(r16)
 8003668:	1445883a 	add	r2,r2,r17
 800366c:	80801415 	stw	r2,80(r16)
 8003670:	00000406 	br	8003684 <__sread+0x7c>
  else
    fp->_flags &= ~__SOFF;	/* paranoia */
 8003674:	80c0030b 	ldhu	r3,12(r16)
 8003678:	00bbffc4 	movi	r2,-4097
 800367c:	1884703a 	and	r2,r3,r2
 8003680:	8080030d 	sth	r2,12(r16)
  return ret;
 8003684:	8805883a 	mov	r2,r17
}
 8003688:	e6fffe04 	addi	sp,fp,-8
 800368c:	dfc00317 	ldw	ra,12(sp)
 8003690:	df000217 	ldw	fp,8(sp)
 8003694:	dc400117 	ldw	r17,4(sp)
 8003698:	dc000017 	ldw	r16,0(sp)
 800369c:	dec00404 	addi	sp,sp,16
 80036a0:	f800283a 	ret

080036a4 <__seofread>:
_DEFUN(__seofread, (ptr, cookie, buf, len),
       struct _reent *_ptr _AND
       _PTR cookie _AND
       char *buf   _AND
       _READ_WRITE_BUFSIZE_TYPE len)
{
 80036a4:	defffb04 	addi	sp,sp,-20
 80036a8:	df000415 	stw	fp,16(sp)
 80036ac:	df000404 	addi	fp,sp,16
 80036b0:	e13ffc15 	stw	r4,-16(fp)
 80036b4:	e17ffd15 	stw	r5,-12(fp)
 80036b8:	e1bffe15 	stw	r6,-8(fp)
 80036bc:	e1ffff15 	stw	r7,-4(fp)
  return 0;
 80036c0:	0005883a 	mov	r2,zero
}
 80036c4:	e037883a 	mov	sp,fp
 80036c8:	df000017 	ldw	fp,0(sp)
 80036cc:	dec00104 	addi	sp,sp,4
 80036d0:	f800283a 	ret

080036d4 <__swrite>:
_DEFUN(__swrite, (ptr, cookie, buf, n),
       struct _reent *ptr _AND
       void *cookie _AND
       char const *buf _AND
       _READ_WRITE_BUFSIZE_TYPE n)
{
 80036d4:	defff804 	addi	sp,sp,-32
 80036d8:	dfc00715 	stw	ra,28(sp)
 80036dc:	df000615 	stw	fp,24(sp)
 80036e0:	dc000515 	stw	r16,20(sp)
 80036e4:	df000604 	addi	fp,sp,24
 80036e8:	e13ffb15 	stw	r4,-20(fp)
 80036ec:	e17ffc15 	stw	r5,-16(fp)
 80036f0:	e1bffd15 	stw	r6,-12(fp)
 80036f4:	e1fffe15 	stw	r7,-8(fp)
  register FILE *fp = (FILE *) cookie;
 80036f8:	e43ffc17 	ldw	r16,-16(fp)
  ssize_t w;
#ifdef __SCLE
  int oldmode=0;
#endif

  if (fp->_flags & __SAPP)
 80036fc:	8080030b 	ldhu	r2,12(r16)
 8003700:	10bfffcc 	andi	r2,r2,65535
 8003704:	1080400c 	andi	r2,r2,256
 8003708:	10000926 	beq	r2,zero,8003730 <__swrite+0x5c>
    _lseek_r (ptr, fp->_file, (_off_t) 0, SEEK_END);
 800370c:	8080038b 	ldhu	r2,14(r16)
 8003710:	10bfffcc 	andi	r2,r2,65535
 8003714:	10a0001c 	xori	r2,r2,32768
 8003718:	10a00004 	addi	r2,r2,-32768
 800371c:	01c00084 	movi	r7,2
 8003720:	000d883a 	mov	r6,zero
 8003724:	100b883a 	mov	r5,r2
 8003728:	e13ffb17 	ldw	r4,-20(fp)
 800372c:	800475c0 	call	800475c <_lseek_r>
  fp->_flags &= ~__SOFF;	/* in case O_APPEND mode is set */
 8003730:	80c0030b 	ldhu	r3,12(r16)
 8003734:	00bbffc4 	movi	r2,-4097
 8003738:	1884703a 	and	r2,r3,r2
 800373c:	8080030d 	sth	r2,12(r16)
#ifdef __SCLE
  if (fp->_flags & __SCLE)
    oldmode = setmode (fp->_file, O_BINARY);
#endif

  w = _write_r (ptr, fp->_file, buf, n);
 8003740:	8080038b 	ldhu	r2,14(r16)
 8003744:	10bfffcc 	andi	r2,r2,65535
 8003748:	10a0001c 	xori	r2,r2,32768
 800374c:	10a00004 	addi	r2,r2,-32768
 8003750:	e0fffe17 	ldw	r3,-8(fp)
 8003754:	180f883a 	mov	r7,r3
 8003758:	e1bffd17 	ldw	r6,-12(fp)
 800375c:	100b883a 	mov	r5,r2
 8003760:	e13ffb17 	ldw	r4,-20(fp)
 8003764:	800387c0 	call	800387c <_write_r>
 8003768:	e0bffa15 	stw	r2,-24(fp)
#ifdef __SCLE
  if (oldmode)
    setmode (fp->_file, oldmode);
#endif

  return w;
 800376c:	e0bffa17 	ldw	r2,-24(fp)
}
 8003770:	e6ffff04 	addi	sp,fp,-4
 8003774:	dfc00217 	ldw	ra,8(sp)
 8003778:	df000117 	ldw	fp,4(sp)
 800377c:	dc000017 	ldw	r16,0(sp)
 8003780:	dec00304 	addi	sp,sp,12
 8003784:	f800283a 	ret

08003788 <__sseek>:
_DEFUN(__sseek, (ptr, cookie, offset, whence),
       struct _reent *ptr _AND
       void *cookie _AND
       _fpos_t offset _AND
       int whence)
{
 8003788:	defff804 	addi	sp,sp,-32
 800378c:	dfc00715 	stw	ra,28(sp)
 8003790:	df000615 	stw	fp,24(sp)
 8003794:	dc400515 	stw	r17,20(sp)
 8003798:	dc000415 	stw	r16,16(sp)
 800379c:	df000604 	addi	fp,sp,24
 80037a0:	e13ffa15 	stw	r4,-24(fp)
 80037a4:	e17ffb15 	stw	r5,-20(fp)
 80037a8:	e1bffc15 	stw	r6,-16(fp)
 80037ac:	e1fffd15 	stw	r7,-12(fp)
  register FILE *fp = (FILE *) cookie;
 80037b0:	e43ffb17 	ldw	r16,-20(fp)
  register _off_t ret;

  ret = _lseek_r (ptr, fp->_file, (_off_t) offset, whence);
 80037b4:	8080038b 	ldhu	r2,14(r16)
 80037b8:	10bfffcc 	andi	r2,r2,65535
 80037bc:	10a0001c 	xori	r2,r2,32768
 80037c0:	10a00004 	addi	r2,r2,-32768
 80037c4:	e1fffd17 	ldw	r7,-12(fp)
 80037c8:	e1bffc17 	ldw	r6,-16(fp)
 80037cc:	100b883a 	mov	r5,r2
 80037d0:	e13ffa17 	ldw	r4,-24(fp)
 80037d4:	800475c0 	call	800475c <_lseek_r>
 80037d8:	1023883a 	mov	r17,r2
  if (ret == -1L)
 80037dc:	88bfffd8 	cmpnei	r2,r17,-1
 80037e0:	1000051e 	bne	r2,zero,80037f8 <__sseek+0x70>
    fp->_flags &= ~__SOFF;
 80037e4:	80c0030b 	ldhu	r3,12(r16)
 80037e8:	00bbffc4 	movi	r2,-4097
 80037ec:	1884703a 	and	r2,r3,r2
 80037f0:	8080030d 	sth	r2,12(r16)
 80037f4:	00000406 	br	8003808 <__sseek+0x80>
  else
    {
      fp->_flags |= __SOFF;
 80037f8:	8080030b 	ldhu	r2,12(r16)
 80037fc:	10840014 	ori	r2,r2,4096
 8003800:	8080030d 	sth	r2,12(r16)
      fp->_offset = ret;
 8003804:	84401415 	stw	r17,80(r16)
    }
  return ret;
 8003808:	8805883a 	mov	r2,r17
}
 800380c:	e6fffe04 	addi	sp,fp,-8
 8003810:	dfc00317 	ldw	ra,12(sp)
 8003814:	df000217 	ldw	fp,8(sp)
 8003818:	dc400117 	ldw	r17,4(sp)
 800381c:	dc000017 	ldw	r16,0(sp)
 8003820:	dec00404 	addi	sp,sp,16
 8003824:	f800283a 	ret

08003828 <__sclose>:

int
_DEFUN(__sclose, (ptr, cookie),
       struct _reent *ptr _AND
       void *cookie)
{
 8003828:	defffb04 	addi	sp,sp,-20
 800382c:	dfc00415 	stw	ra,16(sp)
 8003830:	df000315 	stw	fp,12(sp)
 8003834:	df000304 	addi	fp,sp,12
 8003838:	e13ffe15 	stw	r4,-8(fp)
 800383c:	e17fff15 	stw	r5,-4(fp)
  FILE *fp = (FILE *) cookie;
 8003840:	e0bfff17 	ldw	r2,-4(fp)
 8003844:	e0bffd15 	stw	r2,-12(fp)

  return _close_r (ptr, fp->_file);
 8003848:	e0bffd17 	ldw	r2,-12(fp)
 800384c:	1080038b 	ldhu	r2,14(r2)
 8003850:	10bfffcc 	andi	r2,r2,65535
 8003854:	10a0001c 	xori	r2,r2,32768
 8003858:	10a00004 	addi	r2,r2,-32768
 800385c:	100b883a 	mov	r5,r2
 8003860:	e13ffe17 	ldw	r4,-8(fp)
 8003864:	8003a8c0 	call	8003a8c <_close_r>
}
 8003868:	e037883a 	mov	sp,fp
 800386c:	dfc00117 	ldw	ra,4(sp)
 8003870:	df000017 	ldw	fp,0(sp)
 8003874:	dec00204 	addi	sp,sp,8
 8003878:	f800283a 	ret

0800387c <_write_r>:
_DEFUN (_write_r, (ptr, fd, buf, cnt),
     struct _reent *ptr _AND
     int fd _AND
     _CONST _PTR buf _AND
     size_t cnt)
{
 800387c:	defff904 	addi	sp,sp,-28
 8003880:	dfc00615 	stw	ra,24(sp)
 8003884:	df000515 	stw	fp,20(sp)
 8003888:	df000504 	addi	fp,sp,20
 800388c:	e13ffc15 	stw	r4,-16(fp)
 8003890:	e17ffd15 	stw	r5,-12(fp)
 8003894:	e1bffe15 	stw	r6,-8(fp)
 8003898:	e1ffff15 	stw	r7,-4(fp)
  _ssize_t ret;

  errno = 0;
 800389c:	d026e615 	stw	zero,-25704(gp)
  if ((ret = (_ssize_t)_write (fd, buf, cnt)) == -1 && errno != 0)
 80038a0:	e1bfff17 	ldw	r6,-4(fp)
 80038a4:	e17ffe17 	ldw	r5,-8(fp)
 80038a8:	e13ffd17 	ldw	r4,-12(fp)
 80038ac:	80056b80 	call	80056b8 <write>
 80038b0:	e0bffb15 	stw	r2,-20(fp)
 80038b4:	e0bffb17 	ldw	r2,-20(fp)
 80038b8:	10bfffd8 	cmpnei	r2,r2,-1
 80038bc:	1000051e 	bne	r2,zero,80038d4 <_write_r+0x58>
 80038c0:	d0a6e617 	ldw	r2,-25704(gp)
 80038c4:	10000326 	beq	r2,zero,80038d4 <_write_r+0x58>
    ptr->_errno = errno;
 80038c8:	d0e6e617 	ldw	r3,-25704(gp)
 80038cc:	e0bffc17 	ldw	r2,-16(fp)
 80038d0:	10c00015 	stw	r3,0(r2)
  return ret;
 80038d4:	e0bffb17 	ldw	r2,-20(fp)
}
 80038d8:	e037883a 	mov	sp,fp
 80038dc:	dfc00117 	ldw	ra,4(sp)
 80038e0:	df000017 	ldw	fp,0(sp)
 80038e4:	dec00204 	addi	sp,sp,8
 80038e8:	f800283a 	ret

080038ec <__swsetup_r>:

int
_DEFUN(__swsetup_r, (ptr, fp),
       struct _reent *ptr _AND
       register FILE * fp)
{
 80038ec:	defffb04 	addi	sp,sp,-20
 80038f0:	dfc00415 	stw	ra,16(sp)
 80038f4:	df000315 	stw	fp,12(sp)
 80038f8:	dc000215 	stw	r16,8(sp)
 80038fc:	df000304 	addi	fp,sp,12
 8003900:	e13ffe15 	stw	r4,-8(fp)
 8003904:	2821883a 	mov	r16,r5
  /* Make sure stdio is set up.  */

  CHECK_INIT (_REENT, fp);
 8003908:	d0a00017 	ldw	r2,-32768(gp)
 800390c:	e0bffd15 	stw	r2,-12(fp)
 8003910:	e0bffd17 	ldw	r2,-12(fp)
 8003914:	10000526 	beq	r2,zero,800392c <__swsetup_r+0x40>
 8003918:	e0bffd17 	ldw	r2,-12(fp)
 800391c:	10800e17 	ldw	r2,56(r2)
 8003920:	1000021e 	bne	r2,zero,800392c <__swsetup_r+0x40>
 8003924:	e13ffd17 	ldw	r4,-12(fp)
 8003928:	80009c80 	call	80009c8 <__sinit>

  /*
   * If we are not writing, we had better be reading and writing.
   */

  if ((fp->_flags & __SWR) == 0)
 800392c:	8080030b 	ldhu	r2,12(r16)
 8003930:	10bfffcc 	andi	r2,r2,65535
 8003934:	1080020c 	andi	r2,r2,8
 8003938:	1000241e 	bne	r2,zero,80039cc <__swsetup_r+0xe0>
    {
      if ((fp->_flags & __SRW) == 0)
 800393c:	8080030b 	ldhu	r2,12(r16)
 8003940:	10bfffcc 	andi	r2,r2,65535
 8003944:	1080040c 	andi	r2,r2,16
 8003948:	1000081e 	bne	r2,zero,800396c <__swsetup_r+0x80>
        {
	  ptr->_errno = EBADF;
 800394c:	e0bffe17 	ldw	r2,-8(fp)
 8003950:	00c00244 	movi	r3,9
 8003954:	10c00015 	stw	r3,0(r2)
	  fp->_flags |= __SERR;
 8003958:	8080030b 	ldhu	r2,12(r16)
 800395c:	10801014 	ori	r2,r2,64
 8003960:	8080030d 	sth	r2,12(r16)
	  return EOF;
 8003964:	00bfffc4 	movi	r2,-1
 8003968:	00004206 	br	8003a74 <__swsetup_r+0x188>
        }
      if (fp->_flags & __SRD)
 800396c:	8080030b 	ldhu	r2,12(r16)
 8003970:	10bfffcc 	andi	r2,r2,65535
 8003974:	1080010c 	andi	r2,r2,4
 8003978:	10001126 	beq	r2,zero,80039c0 <__swsetup_r+0xd4>
	{
	  /* clobber any ungetc data */
	  if (HASUB (fp))
 800397c:	80800c17 	ldw	r2,48(r16)
 8003980:	10000826 	beq	r2,zero,80039a4 <__swsetup_r+0xb8>
	    FREEUB (ptr, fp);
 8003984:	80c00c17 	ldw	r3,48(r16)
 8003988:	80801004 	addi	r2,r16,64
 800398c:	18800426 	beq	r3,r2,80039a0 <__swsetup_r+0xb4>
 8003990:	80800c17 	ldw	r2,48(r16)
 8003994:	100b883a 	mov	r5,r2
 8003998:	e13ffe17 	ldw	r4,-8(fp)
 800399c:	80040300 	call	8004030 <_free_r>
 80039a0:	80000c15 	stw	zero,48(r16)
	  fp->_flags &= ~(__SRD | __SEOF);
 80039a4:	80c0030b 	ldhu	r3,12(r16)
 80039a8:	00bff6c4 	movi	r2,-37
 80039ac:	1884703a 	and	r2,r3,r2
 80039b0:	8080030d 	sth	r2,12(r16)
	  fp->_r = 0;
 80039b4:	80000115 	stw	zero,4(r16)
	  fp->_p = fp->_bf._base;
 80039b8:	80800417 	ldw	r2,16(r16)
 80039bc:	80800015 	stw	r2,0(r16)
	}
      fp->_flags |= __SWR;
 80039c0:	8080030b 	ldhu	r2,12(r16)
 80039c4:	10800214 	ori	r2,r2,8
 80039c8:	8080030d 	sth	r2,12(r16)
  /*
   * Make a buffer if necessary, then set _w.
   * A string I/O file should not explicitly allocate a buffer
   * unless asprintf is being used.
   */
  if (fp->_bf._base == NULL
 80039cc:	80800417 	ldw	r2,16(r16)
 80039d0:	10000b1e 	bne	r2,zero,8003a00 <__swsetup_r+0x114>
        && (!(fp->_flags & __SSTR) || (fp->_flags & __SMBF)))
 80039d4:	8080030b 	ldhu	r2,12(r16)
 80039d8:	10bfffcc 	andi	r2,r2,65535
 80039dc:	1080800c 	andi	r2,r2,512
 80039e0:	10000426 	beq	r2,zero,80039f4 <__swsetup_r+0x108>
 80039e4:	8080030b 	ldhu	r2,12(r16)
 80039e8:	10bfffcc 	andi	r2,r2,65535
 80039ec:	1080200c 	andi	r2,r2,128
 80039f0:	10000326 	beq	r2,zero,8003a00 <__swsetup_r+0x114>
    __smakebuf_r (ptr, fp);
 80039f4:	800b883a 	mov	r5,r16
 80039f8:	e13ffe17 	ldw	r4,-8(fp)
 80039fc:	80047cc0 	call	80047cc <__smakebuf_r>

  if (fp->_flags & __SLBF)
 8003a00:	8080030b 	ldhu	r2,12(r16)
 8003a04:	10bfffcc 	andi	r2,r2,65535
 8003a08:	1080004c 	andi	r2,r2,1
 8003a0c:	10000526 	beq	r2,zero,8003a24 <__swsetup_r+0x138>
      /*
       * It is line buffered, so make _lbfsize be -_bufsize
       * for the putc() macro.  We will change _lbfsize back
       * to 0 whenever we turn off __SWR.
       */
      fp->_w = 0;
 8003a10:	80000215 	stw	zero,8(r16)
      fp->_lbfsize = -fp->_bf._size;
 8003a14:	80800517 	ldw	r2,20(r16)
 8003a18:	0085c83a 	sub	r2,zero,r2
 8003a1c:	80800615 	stw	r2,24(r16)
 8003a20:	00000806 	br	8003a44 <__swsetup_r+0x158>
    }
  else
    fp->_w = fp->_flags & __SNBF ? 0 : fp->_bf._size;
 8003a24:	8080030b 	ldhu	r2,12(r16)
 8003a28:	10bfffcc 	andi	r2,r2,65535
 8003a2c:	1080008c 	andi	r2,r2,2
 8003a30:	1000021e 	bne	r2,zero,8003a3c <__swsetup_r+0x150>
 8003a34:	80800517 	ldw	r2,20(r16)
 8003a38:	00000106 	br	8003a40 <__swsetup_r+0x154>
 8003a3c:	0005883a 	mov	r2,zero
 8003a40:	80800215 	stw	r2,8(r16)

  if (!fp->_bf._base && (fp->_flags & __SMBF))
 8003a44:	80800417 	ldw	r2,16(r16)
 8003a48:	1000091e 	bne	r2,zero,8003a70 <__swsetup_r+0x184>
 8003a4c:	8080030b 	ldhu	r2,12(r16)
 8003a50:	10bfffcc 	andi	r2,r2,65535
 8003a54:	1080200c 	andi	r2,r2,128
 8003a58:	10000526 	beq	r2,zero,8003a70 <__swsetup_r+0x184>
    {
      /* __smakebuf_r set errno, but not flag */
      fp->_flags |= __SERR;
 8003a5c:	8080030b 	ldhu	r2,12(r16)
 8003a60:	10801014 	ori	r2,r2,64
 8003a64:	8080030d 	sth	r2,12(r16)
      return EOF;
 8003a68:	00bfffc4 	movi	r2,-1
 8003a6c:	00000106 	br	8003a74 <__swsetup_r+0x188>
    }
  return 0;
 8003a70:	0005883a 	mov	r2,zero
}
 8003a74:	e6ffff04 	addi	sp,fp,-4
 8003a78:	dfc00217 	ldw	ra,8(sp)
 8003a7c:	df000117 	ldw	fp,4(sp)
 8003a80:	dc000017 	ldw	r16,0(sp)
 8003a84:	dec00304 	addi	sp,sp,12
 8003a88:	f800283a 	ret

08003a8c <_close_r>:

int
_close_r (ptr, fd)
     struct _reent *ptr;
     int fd;
{
 8003a8c:	defffb04 	addi	sp,sp,-20
 8003a90:	dfc00415 	stw	ra,16(sp)
 8003a94:	df000315 	stw	fp,12(sp)
 8003a98:	df000304 	addi	fp,sp,12
 8003a9c:	e13ffe15 	stw	r4,-8(fp)
 8003aa0:	e17fff15 	stw	r5,-4(fp)
  int ret;

  errno = 0;
 8003aa4:	d026e615 	stw	zero,-25704(gp)
  if ((ret = _close (fd)) == -1 && errno != 0)
 8003aa8:	e13fff17 	ldw	r4,-4(fp)
 8003aac:	8004d200 	call	8004d20 <close>
 8003ab0:	e0bffd15 	stw	r2,-12(fp)
 8003ab4:	e0bffd17 	ldw	r2,-12(fp)
 8003ab8:	10bfffd8 	cmpnei	r2,r2,-1
 8003abc:	1000051e 	bne	r2,zero,8003ad4 <_close_r+0x48>
 8003ac0:	d0a6e617 	ldw	r2,-25704(gp)
 8003ac4:	10000326 	beq	r2,zero,8003ad4 <_close_r+0x48>
    ptr->_errno = errno;
 8003ac8:	d0e6e617 	ldw	r3,-25704(gp)
 8003acc:	e0bffe17 	ldw	r2,-8(fp)
 8003ad0:	10c00015 	stw	r3,0(r2)
  return ret;
 8003ad4:	e0bffd17 	ldw	r2,-12(fp)
}
 8003ad8:	e037883a 	mov	sp,fp
 8003adc:	dfc00117 	ldw	ra,4(sp)
 8003ae0:	df000017 	ldw	fp,0(sp)
 8003ae4:	dec00204 	addi	sp,sp,8
 8003ae8:	f800283a 	ret

08003aec <_fclose_r>:

int
_DEFUN(_fclose_r, (rptr, fp),
      struct _reent *rptr _AND
      register FILE * fp)
{
 8003aec:	defffa04 	addi	sp,sp,-24
 8003af0:	dfc00515 	stw	ra,20(sp)
 8003af4:	df000415 	stw	fp,16(sp)
 8003af8:	dc000315 	stw	r16,12(sp)
 8003afc:	df000404 	addi	fp,sp,16
 8003b00:	e13ffe15 	stw	r4,-8(fp)
 8003b04:	2821883a 	mov	r16,r5
  int r;

  if (fp == NULL)
 8003b08:	8000021e 	bne	r16,zero,8003b14 <_fclose_r+0x28>
    return (0);			/* on NULL */
 8003b0c:	0005883a 	mov	r2,zero
 8003b10:	00003b06 	br	8003c00 <_fclose_r+0x114>

  CHECK_INIT (rptr, fp);
 8003b14:	e0bffe17 	ldw	r2,-8(fp)
 8003b18:	e0bffd15 	stw	r2,-12(fp)
 8003b1c:	e0bffd17 	ldw	r2,-12(fp)
 8003b20:	10000526 	beq	r2,zero,8003b38 <_fclose_r+0x4c>
 8003b24:	e0bffd17 	ldw	r2,-12(fp)
 8003b28:	10800e17 	ldw	r2,56(r2)
 8003b2c:	1000021e 	bne	r2,zero,8003b38 <_fclose_r+0x4c>
 8003b30:	e13ffd17 	ldw	r4,-12(fp)
 8003b34:	80009c80 	call	80009c8 <__sinit>
  int __oldcancel;
  pthread_setcancelstate (PTHREAD_CANCEL_DISABLE, &__oldcancel);
#endif
  _flockfile (fp);

  if (fp->_flags == 0)		/* not open! */
 8003b38:	8080030b 	ldhu	r2,12(r16)
 8003b3c:	10bfffcc 	andi	r2,r2,65535
 8003b40:	10a0001c 	xori	r2,r2,32768
 8003b44:	10a00004 	addi	r2,r2,-32768
 8003b48:	1000021e 	bne	r2,zero,8003b54 <_fclose_r+0x68>
    {
      _funlockfile (fp);
#ifdef _STDIO_WITH_THREAD_CANCELLATION_SUPPORT
      pthread_setcancelstate (__oldcancel, &__oldcancel);
#endif
      return (0);
 8003b4c:	0005883a 	mov	r2,zero
 8003b50:	00002b06 	br	8003c00 <_fclose_r+0x114>
  r = (fp->_flags & __SWR) ? __sflush_r (rptr, fp) : 0;
#else
  /* Follow POSIX semantics exactly.  Unconditionally flush to allow
     special handling for seekable read files to reposition file to last
     byte processed as opposed to last byte read ahead into the buffer. */
  r = __sflush_r (rptr, fp);
 8003b54:	800b883a 	mov	r5,r16
 8003b58:	e13ffe17 	ldw	r4,-8(fp)
 8003b5c:	8003c500 	call	8003c50 <__sflush_r>
 8003b60:	e0bffc15 	stw	r2,-16(fp)
#endif
  if (fp->_close != NULL && fp->_close (rptr, fp->_cookie) < 0)
 8003b64:	80800b17 	ldw	r2,44(r16)
 8003b68:	10000826 	beq	r2,zero,8003b8c <_fclose_r+0xa0>
 8003b6c:	80800b17 	ldw	r2,44(r16)
 8003b70:	80c00717 	ldw	r3,28(r16)
 8003b74:	180b883a 	mov	r5,r3
 8003b78:	e13ffe17 	ldw	r4,-8(fp)
 8003b7c:	103ee83a 	callr	r2
 8003b80:	1000020e 	bge	r2,zero,8003b8c <_fclose_r+0xa0>
    r = EOF;
 8003b84:	00bfffc4 	movi	r2,-1
 8003b88:	e0bffc15 	stw	r2,-16(fp)
  if (fp->_flags & __SMBF)
 8003b8c:	8080030b 	ldhu	r2,12(r16)
 8003b90:	10bfffcc 	andi	r2,r2,65535
 8003b94:	1080200c 	andi	r2,r2,128
 8003b98:	10000426 	beq	r2,zero,8003bac <_fclose_r+0xc0>
    _free_r (rptr, (char *) fp->_bf._base);
 8003b9c:	80800417 	ldw	r2,16(r16)
 8003ba0:	100b883a 	mov	r5,r2
 8003ba4:	e13ffe17 	ldw	r4,-8(fp)
 8003ba8:	80040300 	call	8004030 <_free_r>
  if (HASUB (fp))
 8003bac:	80800c17 	ldw	r2,48(r16)
 8003bb0:	10000826 	beq	r2,zero,8003bd4 <_fclose_r+0xe8>
    FREEUB (rptr, fp);
 8003bb4:	80c00c17 	ldw	r3,48(r16)
 8003bb8:	80801004 	addi	r2,r16,64
 8003bbc:	18800426 	beq	r3,r2,8003bd0 <_fclose_r+0xe4>
 8003bc0:	80800c17 	ldw	r2,48(r16)
 8003bc4:	100b883a 	mov	r5,r2
 8003bc8:	e13ffe17 	ldw	r4,-8(fp)
 8003bcc:	80040300 	call	8004030 <_free_r>
 8003bd0:	80000c15 	stw	zero,48(r16)
  if (HASLB (fp))
 8003bd4:	80801117 	ldw	r2,68(r16)
 8003bd8:	10000526 	beq	r2,zero,8003bf0 <_fclose_r+0x104>
    FREELB (rptr, fp);
 8003bdc:	80801117 	ldw	r2,68(r16)
 8003be0:	100b883a 	mov	r5,r2
 8003be4:	e13ffe17 	ldw	r4,-8(fp)
 8003be8:	80040300 	call	8004030 <_free_r>
 8003bec:	80001115 	stw	zero,68(r16)
  __sfp_lock_acquire ();
 8003bf0:	8000aa00 	call	8000aa0 <__sfp_lock_acquire>
  fp->_flags = 0;		/* release this FILE for reuse */
 8003bf4:	8000030d 	sth	zero,12(r16)
  _funlockfile (fp);
#ifndef __SINGLE_THREAD__
  __lock_close_recursive (fp->_lock);
#endif

  __sfp_lock_release ();
 8003bf8:	8000ac00 	call	8000ac0 <__sfp_lock_release>
#ifdef _STDIO_WITH_THREAD_CANCELLATION_SUPPORT
  pthread_setcancelstate (__oldcancel, &__oldcancel);
#endif

  return (r);
 8003bfc:	e0bffc17 	ldw	r2,-16(fp)
}
 8003c00:	e6ffff04 	addi	sp,fp,-4
 8003c04:	dfc00217 	ldw	ra,8(sp)
 8003c08:	df000117 	ldw	fp,4(sp)
 8003c0c:	dc000017 	ldw	r16,0(sp)
 8003c10:	dec00304 	addi	sp,sp,12
 8003c14:	f800283a 	ret

08003c18 <fclose>:
#ifndef _REENT_ONLY

int
_DEFUN(fclose, (fp),
       register FILE * fp)
{
 8003c18:	defffe04 	addi	sp,sp,-8
 8003c1c:	dfc00115 	stw	ra,4(sp)
 8003c20:	df000015 	stw	fp,0(sp)
 8003c24:	d839883a 	mov	fp,sp
 8003c28:	2007883a 	mov	r3,r4
  return _fclose_r(_REENT, fp);
 8003c2c:	d0a00017 	ldw	r2,-32768(gp)
 8003c30:	180b883a 	mov	r5,r3
 8003c34:	1009883a 	mov	r4,r2
 8003c38:	8003aec0 	call	8003aec <_fclose_r>
}
 8003c3c:	e037883a 	mov	sp,fp
 8003c40:	dfc00117 	ldw	ra,4(sp)
 8003c44:	df000017 	ldw	fp,0(sp)
 8003c48:	dec00204 	addi	sp,sp,8
 8003c4c:	f800283a 	ret

08003c50 <__sflush_r>:
   directly from __srefill. */
int
_DEFUN(__sflush_r, (ptr, fp),
       struct _reent *ptr _AND
       register FILE * fp)
{
 8003c50:	defff504 	addi	sp,sp,-44
 8003c54:	dfc00a15 	stw	ra,40(sp)
 8003c58:	df000915 	stw	fp,36(sp)
 8003c5c:	dcc00815 	stw	r19,32(sp)
 8003c60:	dc800715 	stw	r18,28(sp)
 8003c64:	dc400615 	stw	r17,24(sp)
 8003c68:	dc000515 	stw	r16,20(sp)
 8003c6c:	df000904 	addi	fp,sp,36
 8003c70:	e13ffb15 	stw	r4,-20(fp)
 8003c74:	2821883a 	mov	r16,r5
  register unsigned char *p;
  register _READ_WRITE_BUFSIZE_TYPE n;
  register _READ_WRITE_RETURN_TYPE t;
  short flags;

  flags = fp->_flags;
 8003c78:	8080030b 	ldhu	r2,12(r16)
 8003c7c:	e0bff90d 	sth	r2,-28(fp)
  if ((flags & __SWR) == 0)
 8003c80:	e0bff90b 	ldhu	r2,-28(fp)
 8003c84:	10bfffcc 	andi	r2,r2,65535
 8003c88:	1080020c 	andi	r2,r2,8
 8003c8c:	1000831e 	bne	r2,zero,8003e9c <__sflush_r+0x24c>
    {
#ifdef _FSEEK_OPTIMIZATION
      /* For a read stream, an fflush causes the next seek to be
         unoptimized (i.e. forces a system-level seek).  This conforms
         to the POSIX and SUSv3 standards.  */
      fp->_flags |= __SNPT;
 8003c90:	8080030b 	ldhu	r2,12(r16)
 8003c94:	10820014 	ori	r2,r2,2048
 8003c98:	8080030d 	sth	r2,12(r16)
         the next byte from the file rather than the buffer.  This conforms
         to the POSIX and SUSv3 standards.  Note that the standards allow
         this seek to be deferred until necessary, but we choose to do it here
         to make the change simpler, more contained, and less likely
         to miss a code scenario.  */
      if ((fp->_r > 0 || fp->_ur > 0) && fp->_seek != NULL)
 8003c9c:	80800117 	ldw	r2,4(r16)
 8003ca0:	00800216 	blt	zero,r2,8003cac <__sflush_r+0x5c>
 8003ca4:	80800f17 	ldw	r2,60(r16)
 8003ca8:	00807a0e 	bge	zero,r2,8003e94 <__sflush_r+0x244>
 8003cac:	80800a17 	ldw	r2,40(r16)
 8003cb0:	10007826 	beq	r2,zero,8003e94 <__sflush_r+0x244>
#endif

	  /* Save last errno and set errno to 0, so we can check if a device
	     returns with a valid position -1.  We restore the last errno if
	     no other error condition has been encountered. */
	  tmp_errno = ptr->_errno;
 8003cb4:	e0bffb17 	ldw	r2,-20(fp)
 8003cb8:	10800017 	ldw	r2,0(r2)
 8003cbc:	e0bffa15 	stw	r2,-24(fp)
	  ptr->_errno = 0;
 8003cc0:	e0bffb17 	ldw	r2,-20(fp)
 8003cc4:	10000015 	stw	zero,0(r2)
	  /* Get the physical position we are at in the file.  */
	  if (fp->_flags & __SOFF)
 8003cc8:	8080030b 	ldhu	r2,12(r16)
 8003ccc:	10bfffcc 	andi	r2,r2,65535
 8003cd0:	1084000c 	andi	r2,r2,4096
 8003cd4:	10000326 	beq	r2,zero,8003ce4 <__sflush_r+0x94>
	    curoff = fp->_offset;
 8003cd8:	80801417 	ldw	r2,80(r16)
 8003cdc:	e0bff715 	stw	r2,-36(fp)
 8003ce0:	00002206 	br	8003d6c <__sflush_r+0x11c>
#ifdef __LARGE64_FILES
	      if (fp->_flags & __SL64)
		curoff = fp->_seek64 (ptr, fp->_cookie, 0, SEEK_CUR);
	      else
#endif
		curoff = fp->_seek (ptr, fp->_cookie, 0, SEEK_CUR);
 8003ce4:	80800a17 	ldw	r2,40(r16)
 8003ce8:	80c00717 	ldw	r3,28(r16)
 8003cec:	01c00044 	movi	r7,1
 8003cf0:	000d883a 	mov	r6,zero
 8003cf4:	180b883a 	mov	r5,r3
 8003cf8:	e13ffb17 	ldw	r4,-20(fp)
 8003cfc:	103ee83a 	callr	r2
 8003d00:	e0bff715 	stw	r2,-36(fp)
	      if (curoff == -1L && ptr->_errno != 0)
 8003d04:	e0bff717 	ldw	r2,-36(fp)
 8003d08:	10bfffd8 	cmpnei	r2,r2,-1
 8003d0c:	1000171e 	bne	r2,zero,8003d6c <__sflush_r+0x11c>
 8003d10:	e0bffb17 	ldw	r2,-20(fp)
 8003d14:	10800017 	ldw	r2,0(r2)
 8003d18:	10001426 	beq	r2,zero,8003d6c <__sflush_r+0x11c>
		{
		  int result = EOF;
 8003d1c:	00bfffc4 	movi	r2,-1
 8003d20:	e0bff815 	stw	r2,-32(fp)
		  if (ptr->_errno == ESPIPE || ptr->_errno == EINVAL)
 8003d24:	e0bffb17 	ldw	r2,-20(fp)
 8003d28:	10800017 	ldw	r2,0(r2)
 8003d2c:	10800760 	cmpeqi	r2,r2,29
 8003d30:	1000041e 	bne	r2,zero,8003d44 <__sflush_r+0xf4>
 8003d34:	e0bffb17 	ldw	r2,-20(fp)
 8003d38:	10800017 	ldw	r2,0(r2)
 8003d3c:	10800598 	cmpnei	r2,r2,22
 8003d40:	1000051e 	bne	r2,zero,8003d58 <__sflush_r+0x108>
		    {
		      result = 0;
 8003d44:	e03ff815 	stw	zero,-32(fp)
		      ptr->_errno = tmp_errno;
 8003d48:	e0bffb17 	ldw	r2,-20(fp)
 8003d4c:	e0fffa17 	ldw	r3,-24(fp)
 8003d50:	10c00015 	stw	r3,0(r2)
 8003d54:	00000306 	br	8003d64 <__sflush_r+0x114>
		    }
		  else
		    fp->_flags |= __SERR;
 8003d58:	8080030b 	ldhu	r2,12(r16)
 8003d5c:	10801014 	ori	r2,r2,64
 8003d60:	8080030d 	sth	r2,12(r16)
		  return result;
 8003d64:	e0bff817 	ldw	r2,-32(fp)
 8003d68:	00007106 	br	8003f30 <__sflush_r+0x2e0>
		}
            }
          if (fp->_flags & __SRD)
 8003d6c:	8080030b 	ldhu	r2,12(r16)
 8003d70:	10bfffcc 	andi	r2,r2,65535
 8003d74:	1080010c 	andi	r2,r2,4
 8003d78:	10000a26 	beq	r2,zero,8003da4 <__sflush_r+0x154>
            {
              /* Current offset is at end of buffer.  Compensate for
                 characters not yet read.  */
              curoff -= fp->_r;
 8003d7c:	80800117 	ldw	r2,4(r16)
 8003d80:	e0fff717 	ldw	r3,-36(fp)
 8003d84:	1885c83a 	sub	r2,r3,r2
 8003d88:	e0bff715 	stw	r2,-36(fp)
              if (HASUB (fp))
 8003d8c:	80800c17 	ldw	r2,48(r16)
 8003d90:	10000426 	beq	r2,zero,8003da4 <__sflush_r+0x154>
                curoff -= fp->_ur;
 8003d94:	80800f17 	ldw	r2,60(r16)
 8003d98:	e0fff717 	ldw	r3,-36(fp)
 8003d9c:	1885c83a 	sub	r2,r3,r2
 8003da0:	e0bff715 	stw	r2,-36(fp)
#ifdef __LARGE64_FILES
	  if (fp->_flags & __SL64)
	    curoff = fp->_seek64 (ptr, fp->_cookie, curoff, SEEK_SET);
	  else
#endif
	    curoff = fp->_seek (ptr, fp->_cookie, curoff, SEEK_SET);
 8003da4:	80800a17 	ldw	r2,40(r16)
 8003da8:	80c00717 	ldw	r3,28(r16)
 8003dac:	000f883a 	mov	r7,zero
 8003db0:	e1bff717 	ldw	r6,-36(fp)
 8003db4:	180b883a 	mov	r5,r3
 8003db8:	e13ffb17 	ldw	r4,-20(fp)
 8003dbc:	103ee83a 	callr	r2
 8003dc0:	e0bff715 	stw	r2,-36(fp)
	  if (curoff != -1 || ptr->_errno == 0
 8003dc4:	e0bff717 	ldw	r2,-36(fp)
 8003dc8:	10bfffd8 	cmpnei	r2,r2,-1
 8003dcc:	10000b1e 	bne	r2,zero,8003dfc <__sflush_r+0x1ac>
 8003dd0:	e0bffb17 	ldw	r2,-20(fp)
 8003dd4:	10800017 	ldw	r2,0(r2)
 8003dd8:	10000826 	beq	r2,zero,8003dfc <__sflush_r+0x1ac>
	      || ptr->_errno == ESPIPE || ptr->_errno == EINVAL)
 8003ddc:	e0bffb17 	ldw	r2,-20(fp)
 8003de0:	10800017 	ldw	r2,0(r2)
 8003de4:	10800760 	cmpeqi	r2,r2,29
 8003de8:	1000041e 	bne	r2,zero,8003dfc <__sflush_r+0x1ac>
 8003dec:	e0bffb17 	ldw	r2,-20(fp)
 8003df0:	10800017 	ldw	r2,0(r2)
 8003df4:	10800598 	cmpnei	r2,r2,22
 8003df8:	1000211e 	bne	r2,zero,8003e80 <__sflush_r+0x230>
	    {
	      /* Seek successful or ignorable error condition.
		 We can clear read buffer now.  */
#ifdef _FSEEK_OPTIMIZATION
	      fp->_flags &= ~__SNPT;
 8003dfc:	80c0030b 	ldhu	r3,12(r16)
 8003e00:	00bdffc4 	movi	r2,-2049
 8003e04:	1884703a 	and	r2,r3,r2
 8003e08:	8080030d 	sth	r2,12(r16)
#endif
	      fp->_r = 0;
 8003e0c:	80000115 	stw	zero,4(r16)
	      fp->_p = fp->_bf._base;
 8003e10:	80800417 	ldw	r2,16(r16)
 8003e14:	80800015 	stw	r2,0(r16)
	      if ((fp->_flags & __SOFF) && (curoff != -1 || ptr->_errno == 0))
 8003e18:	8080030b 	ldhu	r2,12(r16)
 8003e1c:	10bfffcc 	andi	r2,r2,65535
 8003e20:	1084000c 	andi	r2,r2,4096
 8003e24:	10000826 	beq	r2,zero,8003e48 <__sflush_r+0x1f8>
 8003e28:	e0bff717 	ldw	r2,-36(fp)
 8003e2c:	10bfffd8 	cmpnei	r2,r2,-1
 8003e30:	1000031e 	bne	r2,zero,8003e40 <__sflush_r+0x1f0>
 8003e34:	e0bffb17 	ldw	r2,-20(fp)
 8003e38:	10800017 	ldw	r2,0(r2)
 8003e3c:	1000021e 	bne	r2,zero,8003e48 <__sflush_r+0x1f8>
		fp->_offset = curoff;
 8003e40:	e0bff717 	ldw	r2,-36(fp)
 8003e44:	80801415 	stw	r2,80(r16)
	      ptr->_errno = tmp_errno;
 8003e48:	e0bffb17 	ldw	r2,-20(fp)
 8003e4c:	e0fffa17 	ldw	r3,-24(fp)
 8003e50:	10c00015 	stw	r3,0(r2)
	      if (HASUB (fp))
 8003e54:	80800c17 	ldw	r2,48(r16)
 8003e58:	10000e26 	beq	r2,zero,8003e94 <__sflush_r+0x244>
		FREEUB (ptr, fp);
 8003e5c:	80c00c17 	ldw	r3,48(r16)
 8003e60:	80801004 	addi	r2,r16,64
 8003e64:	18800426 	beq	r3,r2,8003e78 <__sflush_r+0x228>
 8003e68:	80800c17 	ldw	r2,48(r16)
 8003e6c:	100b883a 	mov	r5,r2
 8003e70:	e13ffb17 	ldw	r4,-20(fp)
 8003e74:	80040300 	call	8004030 <_free_r>
 8003e78:	80000c15 	stw	zero,48(r16)
	      fp->_r = 0;
	      fp->_p = fp->_bf._base;
	      if ((fp->_flags & __SOFF) && (curoff != -1 || ptr->_errno == 0))
		fp->_offset = curoff;
	      ptr->_errno = tmp_errno;
	      if (HASUB (fp))
 8003e7c:	00000506 	br	8003e94 <__sflush_r+0x244>
		FREEUB (ptr, fp);
	    }
	  else
	    {
	      fp->_flags |= __SERR;
 8003e80:	8080030b 	ldhu	r2,12(r16)
 8003e84:	10801014 	ori	r2,r2,64
 8003e88:	8080030d 	sth	r2,12(r16)
	      return EOF;
 8003e8c:	00bfffc4 	movi	r2,-1
 8003e90:	00002706 	br	8003f30 <__sflush_r+0x2e0>
	    }
	}
      return 0;
 8003e94:	0005883a 	mov	r2,zero
 8003e98:	00002506 	br	8003f30 <__sflush_r+0x2e0>
    }
  if ((p = fp->_bf._base) == NULL)
 8003e9c:	84400417 	ldw	r17,16(r16)
 8003ea0:	8800021e 	bne	r17,zero,8003eac <__sflush_r+0x25c>
    {
      /* Nothing to flush.  */
      return 0;
 8003ea4:	0005883a 	mov	r2,zero
 8003ea8:	00002106 	br	8003f30 <__sflush_r+0x2e0>
    }
  n = fp->_p - p;		/* write this much */
 8003eac:	80800017 	ldw	r2,0(r16)
 8003eb0:	1007883a 	mov	r3,r2
 8003eb4:	8805883a 	mov	r2,r17
 8003eb8:	18a5c83a 	sub	r18,r3,r2
  /*
   * Set these immediately to avoid problems with longjmp
   * and to allow exchange buffering (via setvbuf) in user
   * write function.
   */
  fp->_p = p;
 8003ebc:	84400015 	stw	r17,0(r16)
  fp->_w = flags & (__SLBF | __SNBF) ? 0 : fp->_bf._size;
 8003ec0:	e0bff90b 	ldhu	r2,-28(fp)
 8003ec4:	10bfffcc 	andi	r2,r2,65535
 8003ec8:	108000cc 	andi	r2,r2,3
 8003ecc:	1000021e 	bne	r2,zero,8003ed8 <__sflush_r+0x288>
 8003ed0:	80800517 	ldw	r2,20(r16)
 8003ed4:	00000106 	br	8003edc <__sflush_r+0x28c>
 8003ed8:	0005883a 	mov	r2,zero
 8003edc:	80800215 	stw	r2,8(r16)

  while (n > 0)
 8003ee0:	00001106 	br	8003f28 <__sflush_r+0x2d8>
    {
      t = fp->_write (ptr, fp->_cookie, (char *) p, n);
 8003ee4:	80800917 	ldw	r2,36(r16)
 8003ee8:	80c00717 	ldw	r3,28(r16)
 8003eec:	900f883a 	mov	r7,r18
 8003ef0:	880d883a 	mov	r6,r17
 8003ef4:	180b883a 	mov	r5,r3
 8003ef8:	e13ffb17 	ldw	r4,-20(fp)
 8003efc:	103ee83a 	callr	r2
 8003f00:	1027883a 	mov	r19,r2
      if (t <= 0)
 8003f04:	04c00516 	blt	zero,r19,8003f1c <__sflush_r+0x2cc>
	{
          fp->_flags |= __SERR;
 8003f08:	8080030b 	ldhu	r2,12(r16)
 8003f0c:	10801014 	ori	r2,r2,64
 8003f10:	8080030d 	sth	r2,12(r16)
          return EOF;
 8003f14:	00bfffc4 	movi	r2,-1
 8003f18:	00000506 	br	8003f30 <__sflush_r+0x2e0>
	}
      p += t;
 8003f1c:	9805883a 	mov	r2,r19
 8003f20:	88a3883a 	add	r17,r17,r2
      n -= t;
 8003f24:	94e5c83a 	sub	r18,r18,r19
   * write function.
   */
  fp->_p = p;
  fp->_w = flags & (__SLBF | __SNBF) ? 0 : fp->_bf._size;

  while (n > 0)
 8003f28:	04bfee16 	blt	zero,r18,8003ee4 <__sflush_r+0x294>
          return EOF;
	}
      p += t;
      n -= t;
    }
  return 0;
 8003f2c:	0005883a 	mov	r2,zero
}
 8003f30:	e6fffc04 	addi	sp,fp,-16
 8003f34:	dfc00517 	ldw	ra,20(sp)
 8003f38:	df000417 	ldw	fp,16(sp)
 8003f3c:	dcc00317 	ldw	r19,12(sp)
 8003f40:	dc800217 	ldw	r18,8(sp)
 8003f44:	dc400117 	ldw	r17,4(sp)
 8003f48:	dc000017 	ldw	r16,0(sp)
 8003f4c:	dec00604 	addi	sp,sp,24
 8003f50:	f800283a 	ret

08003f54 <_fflush_r>:

int
_DEFUN(_fflush_r, (ptr, fp),
       struct _reent *ptr _AND
       register FILE * fp)
{
 8003f54:	defffa04 	addi	sp,sp,-24
 8003f58:	dfc00515 	stw	ra,20(sp)
 8003f5c:	df000415 	stw	fp,16(sp)
 8003f60:	dc000315 	stw	r16,12(sp)
 8003f64:	df000404 	addi	fp,sp,16
 8003f68:	e13ffe15 	stw	r4,-8(fp)
 8003f6c:	2821883a 	mov	r16,r5
     2 is implemented here due to its simplicity.  */
  if (fp->_bf._base == NULL)
    return 0;
#endif /* _REENT_SMALL  */

  CHECK_INIT (ptr, fp);
 8003f70:	e0bffe17 	ldw	r2,-8(fp)
 8003f74:	e0bffc15 	stw	r2,-16(fp)
 8003f78:	e0bffc17 	ldw	r2,-16(fp)
 8003f7c:	10000526 	beq	r2,zero,8003f94 <_fflush_r+0x40>
 8003f80:	e0bffc17 	ldw	r2,-16(fp)
 8003f84:	10800e17 	ldw	r2,56(r2)
 8003f88:	1000021e 	bne	r2,zero,8003f94 <_fflush_r+0x40>
 8003f8c:	e13ffc17 	ldw	r4,-16(fp)
 8003f90:	80009c80 	call	80009c8 <__sinit>

  if (!fp->_flags)
 8003f94:	8080030b 	ldhu	r2,12(r16)
 8003f98:	10bfffcc 	andi	r2,r2,65535
 8003f9c:	10a0001c 	xori	r2,r2,32768
 8003fa0:	10a00004 	addi	r2,r2,-32768
 8003fa4:	1000021e 	bne	r2,zero,8003fb0 <_fflush_r+0x5c>
    return 0;
 8003fa8:	0005883a 	mov	r2,zero
 8003fac:	00000506 	br	8003fc4 <_fflush_r+0x70>

  _newlib_flockfile_start (fp);
  ret = __sflush_r (ptr, fp);
 8003fb0:	800b883a 	mov	r5,r16
 8003fb4:	e13ffe17 	ldw	r4,-8(fp)
 8003fb8:	8003c500 	call	8003c50 <__sflush_r>
 8003fbc:	e0bffd15 	stw	r2,-12(fp)
  _newlib_flockfile_end (fp);
  return ret;
 8003fc0:	e0bffd17 	ldw	r2,-12(fp)
}
 8003fc4:	e6ffff04 	addi	sp,fp,-4
 8003fc8:	dfc00217 	ldw	ra,8(sp)
 8003fcc:	df000117 	ldw	fp,4(sp)
 8003fd0:	dc000017 	ldw	r16,0(sp)
 8003fd4:	dec00304 	addi	sp,sp,12
 8003fd8:	f800283a 	ret

08003fdc <fflush>:
#ifndef _REENT_ONLY

int
_DEFUN(fflush, (fp),
       register FILE * fp)
{
 8003fdc:	defffe04 	addi	sp,sp,-8
 8003fe0:	dfc00115 	stw	ra,4(sp)
 8003fe4:	df000015 	stw	fp,0(sp)
 8003fe8:	d839883a 	mov	fp,sp
 8003fec:	2005883a 	mov	r2,r4
  if (fp == NULL)
 8003ff0:	1000061e 	bne	r2,zero,800400c <fflush+0x30>
    return _fwalk_reent (_GLOBAL_REENT, _fflush_r);
 8003ff4:	d0a00117 	ldw	r2,-32764(gp)
 8003ff8:	01420034 	movhi	r5,2048
 8003ffc:	294fd504 	addi	r5,r5,16212
 8004000:	1009883a 	mov	r4,r2
 8004004:	800129c0 	call	800129c <_fwalk_reent>
 8004008:	00000406 	br	800401c <fflush+0x40>

  return _fflush_r (_REENT, fp);
 800400c:	d0e00017 	ldw	r3,-32768(gp)
 8004010:	100b883a 	mov	r5,r2
 8004014:	1809883a 	mov	r4,r3
 8004018:	8003f540 	call	8003f54 <_fflush_r>
}
 800401c:	e037883a 	mov	sp,fp
 8004020:	dfc00117 	ldw	ra,4(sp)
 8004024:	df000017 	ldw	fp,0(sp)
 8004028:	dec00204 	addi	sp,sp,8
 800402c:	f800283a 	ret

08004030 <_free_r>:
#if __STD_C
void fREe(RARG Void_t* mem)
#else
void fREe(RARG mem) RDECL Void_t* mem;
#endif
{
 8004030:	defff204 	addi	sp,sp,-56
 8004034:	dfc00d15 	stw	ra,52(sp)
 8004038:	df000c15 	stw	fp,48(sp)
 800403c:	df000c04 	addi	fp,sp,48
 8004040:	e13ffe15 	stw	r4,-8(fp)
 8004044:	e17fff15 	stw	r5,-4(fp)
  INTERNAL_SIZE_T prevsz; /* size of previous contiguous chunk */
  mchunkptr bck;       /* misc temp for linking */
  mchunkptr fwd;       /* misc temp for linking */
  int       islr;      /* track whether merging with last_remainder */

  if (mem == 0)                              /* free(0) has no effect */
 8004048:	e0bfff17 	ldw	r2,-4(fp)
 800404c:	10014a26 	beq	r2,zero,8004578 <_free_r+0x548>
    return;

  MALLOC_LOCK;
 8004050:	e13ffe17 	ldw	r4,-8(fp)
 8004054:	80052440 	call	8005244 <__malloc_lock>

  p = mem2chunk(mem);
 8004058:	e0bfff17 	ldw	r2,-4(fp)
 800405c:	10bffe04 	addi	r2,r2,-8
 8004060:	e0bff415 	stw	r2,-48(fp)
  hd = p->size;
 8004064:	e0bff417 	ldw	r2,-48(fp)
 8004068:	10800117 	ldw	r2,4(r2)
 800406c:	e0bff915 	stw	r2,-28(fp)
  }
#endif
  
  check_inuse_chunk(p);
  
  sz = hd & ~PREV_INUSE;
 8004070:	e0fff917 	ldw	r3,-28(fp)
 8004074:	00bfff84 	movi	r2,-2
 8004078:	1884703a 	and	r2,r3,r2
 800407c:	e0bff515 	stw	r2,-44(fp)
  next = chunk_at_offset(p, sz);
 8004080:	e0fff417 	ldw	r3,-48(fp)
 8004084:	e0bff517 	ldw	r2,-44(fp)
 8004088:	1885883a 	add	r2,r3,r2
 800408c:	e0bffa15 	stw	r2,-24(fp)
  nextsz = chunksize(next);
 8004090:	e0bffa17 	ldw	r2,-24(fp)
 8004094:	10c00117 	ldw	r3,4(r2)
 8004098:	00bfff04 	movi	r2,-4
 800409c:	1884703a 	and	r2,r3,r2
 80040a0:	e0bffb15 	stw	r2,-20(fp)
  
  if (next == top)                            /* merge with top */
 80040a4:	00820134 	movhi	r2,2052
 80040a8:	1083df04 	addi	r2,r2,3964
 80040ac:	10c00217 	ldw	r3,8(r2)
 80040b0:	e0bffa17 	ldw	r2,-24(fp)
 80040b4:	1880311e 	bne	r3,r2,800417c <_free_r+0x14c>
  {
    sz += nextsz;
 80040b8:	e0fff517 	ldw	r3,-44(fp)
 80040bc:	e0bffb17 	ldw	r2,-20(fp)
 80040c0:	1885883a 	add	r2,r3,r2
 80040c4:	e0bff515 	stw	r2,-44(fp)

    if (!(hd & PREV_INUSE))                    /* consolidate backward */
 80040c8:	e0bff917 	ldw	r2,-28(fp)
 80040cc:	1080004c 	andi	r2,r2,1
 80040d0:	1000181e 	bne	r2,zero,8004134 <_free_r+0x104>
    {
      prevsz = p->prev_size;
 80040d4:	e0bff417 	ldw	r2,-48(fp)
 80040d8:	10800017 	ldw	r2,0(r2)
 80040dc:	e0bffc15 	stw	r2,-16(fp)
      p = chunk_at_offset(p, -prevsz);
 80040e0:	e0bffc17 	ldw	r2,-16(fp)
 80040e4:	0085c83a 	sub	r2,zero,r2
 80040e8:	e0fff417 	ldw	r3,-48(fp)
 80040ec:	1885883a 	add	r2,r3,r2
 80040f0:	e0bff415 	stw	r2,-48(fp)
      sz += prevsz;
 80040f4:	e0fff517 	ldw	r3,-44(fp)
 80040f8:	e0bffc17 	ldw	r2,-16(fp)
 80040fc:	1885883a 	add	r2,r3,r2
 8004100:	e0bff515 	stw	r2,-44(fp)
      unlink(p, bck, fwd);
 8004104:	e0bff417 	ldw	r2,-48(fp)
 8004108:	10800317 	ldw	r2,12(r2)
 800410c:	e0bff615 	stw	r2,-40(fp)
 8004110:	e0bff417 	ldw	r2,-48(fp)
 8004114:	10800217 	ldw	r2,8(r2)
 8004118:	e0bff715 	stw	r2,-36(fp)
 800411c:	e0bff717 	ldw	r2,-36(fp)
 8004120:	e0fff617 	ldw	r3,-40(fp)
 8004124:	10c00315 	stw	r3,12(r2)
 8004128:	e0bff617 	ldw	r2,-40(fp)
 800412c:	e0fff717 	ldw	r3,-36(fp)
 8004130:	10c00215 	stw	r3,8(r2)
    }

    set_head(p, sz | PREV_INUSE);
 8004134:	e0bff517 	ldw	r2,-44(fp)
 8004138:	10c00054 	ori	r3,r2,1
 800413c:	e0bff417 	ldw	r2,-48(fp)
 8004140:	10c00115 	stw	r3,4(r2)
    top = p;
 8004144:	00820134 	movhi	r2,2052
 8004148:	1083df04 	addi	r2,r2,3964
 800414c:	e0fff417 	ldw	r3,-48(fp)
 8004150:	10c00215 	stw	r3,8(r2)
    if ((unsigned long)(sz) >= (unsigned long)trim_threshold) 
 8004154:	d0a00217 	ldw	r2,-32760(gp)
 8004158:	e0fff517 	ldw	r3,-44(fp)
 800415c:	18800436 	bltu	r3,r2,8004170 <_free_r+0x140>
      malloc_trim(RCALL top_pad); 
 8004160:	d0a6e317 	ldw	r2,-25716(gp)
 8004164:	100b883a 	mov	r5,r2
 8004168:	e13ffe17 	ldw	r4,-8(fp)
 800416c:	80045900 	call	8004590 <_malloc_trim_r>
    MALLOC_UNLOCK;
 8004170:	e13ffe17 	ldw	r4,-8(fp)
 8004174:	80052680 	call	8005268 <__malloc_unlock>
    return;
 8004178:	00010006 	br	800457c <_free_r+0x54c>
  }

  set_head(next, nextsz);                    /* clear inuse bit */
 800417c:	e0bffa17 	ldw	r2,-24(fp)
 8004180:	e0fffb17 	ldw	r3,-20(fp)
 8004184:	10c00115 	stw	r3,4(r2)

  islr = 0;
 8004188:	e03ff815 	stw	zero,-32(fp)

  if (!(hd & PREV_INUSE))                    /* consolidate backward */
 800418c:	e0bff917 	ldw	r2,-28(fp)
 8004190:	1080004c 	andi	r2,r2,1
 8004194:	1000201e 	bne	r2,zero,8004218 <_free_r+0x1e8>
  {
    prevsz = p->prev_size;
 8004198:	e0bff417 	ldw	r2,-48(fp)
 800419c:	10800017 	ldw	r2,0(r2)
 80041a0:	e0bffc15 	stw	r2,-16(fp)
    p = chunk_at_offset(p, -prevsz);
 80041a4:	e0bffc17 	ldw	r2,-16(fp)
 80041a8:	0085c83a 	sub	r2,zero,r2
 80041ac:	e0fff417 	ldw	r3,-48(fp)
 80041b0:	1885883a 	add	r2,r3,r2
 80041b4:	e0bff415 	stw	r2,-48(fp)
    sz += prevsz;
 80041b8:	e0fff517 	ldw	r3,-44(fp)
 80041bc:	e0bffc17 	ldw	r2,-16(fp)
 80041c0:	1885883a 	add	r2,r3,r2
 80041c4:	e0bff515 	stw	r2,-44(fp)
    
    if (p->fd == last_remainder)             /* keep as last_remainder */
 80041c8:	e0bff417 	ldw	r2,-48(fp)
 80041cc:	10c00217 	ldw	r3,8(r2)
 80041d0:	00820134 	movhi	r2,2052
 80041d4:	1083e104 	addi	r2,r2,3972
 80041d8:	1880031e 	bne	r3,r2,80041e8 <_free_r+0x1b8>
      islr = 1;
 80041dc:	00800044 	movi	r2,1
 80041e0:	e0bff815 	stw	r2,-32(fp)
 80041e4:	00000c06 	br	8004218 <_free_r+0x1e8>
    else
      unlink(p, bck, fwd);
 80041e8:	e0bff417 	ldw	r2,-48(fp)
 80041ec:	10800317 	ldw	r2,12(r2)
 80041f0:	e0bff615 	stw	r2,-40(fp)
 80041f4:	e0bff417 	ldw	r2,-48(fp)
 80041f8:	10800217 	ldw	r2,8(r2)
 80041fc:	e0bff715 	stw	r2,-36(fp)
 8004200:	e0bff717 	ldw	r2,-36(fp)
 8004204:	e0fff617 	ldw	r3,-40(fp)
 8004208:	10c00315 	stw	r3,12(r2)
 800420c:	e0bff617 	ldw	r2,-40(fp)
 8004210:	e0fff717 	ldw	r3,-36(fp)
 8004214:	10c00215 	stw	r3,8(r2)
  }
  
  if (!(inuse_bit_at_offset(next, nextsz)))   /* consolidate forward */
 8004218:	e0fffa17 	ldw	r3,-24(fp)
 800421c:	e0bffb17 	ldw	r2,-20(fp)
 8004220:	1885883a 	add	r2,r3,r2
 8004224:	10800117 	ldw	r2,4(r2)
 8004228:	1080004c 	andi	r2,r2,1
 800422c:	10002a1e 	bne	r2,zero,80042d8 <_free_r+0x2a8>
  {
    sz += nextsz;
 8004230:	e0fff517 	ldw	r3,-44(fp)
 8004234:	e0bffb17 	ldw	r2,-20(fp)
 8004238:	1885883a 	add	r2,r3,r2
 800423c:	e0bff515 	stw	r2,-44(fp)
    
    if (!islr && next->fd == last_remainder)  /* re-insert last_remainder */
 8004240:	e0bff817 	ldw	r2,-32(fp)
 8004244:	1000181e 	bne	r2,zero,80042a8 <_free_r+0x278>
 8004248:	e0bffa17 	ldw	r2,-24(fp)
 800424c:	10c00217 	ldw	r3,8(r2)
 8004250:	00820134 	movhi	r2,2052
 8004254:	1083e104 	addi	r2,r2,3972
 8004258:	1880131e 	bne	r3,r2,80042a8 <_free_r+0x278>
    {
      islr = 1;
 800425c:	00800044 	movi	r2,1
 8004260:	e0bff815 	stw	r2,-32(fp)
      link_last_remainder(p);   
 8004264:	00c20134 	movhi	r3,2052
 8004268:	18c3e104 	addi	r3,r3,3972
 800426c:	00820134 	movhi	r2,2052
 8004270:	1083e104 	addi	r2,r2,3972
 8004274:	e13ff417 	ldw	r4,-48(fp)
 8004278:	11000315 	stw	r4,12(r2)
 800427c:	10800317 	ldw	r2,12(r2)
 8004280:	18800215 	stw	r2,8(r3)
 8004284:	00820134 	movhi	r2,2052
 8004288:	1083e104 	addi	r2,r2,3972
 800428c:	e0fff417 	ldw	r3,-48(fp)
 8004290:	18800315 	stw	r2,12(r3)
 8004294:	e0bff417 	ldw	r2,-48(fp)
 8004298:	10c00317 	ldw	r3,12(r2)
 800429c:	e0bff417 	ldw	r2,-48(fp)
 80042a0:	10c00215 	stw	r3,8(r2)
 80042a4:	00000c06 	br	80042d8 <_free_r+0x2a8>
    }
    else
      unlink(next, bck, fwd);
 80042a8:	e0bffa17 	ldw	r2,-24(fp)
 80042ac:	10800317 	ldw	r2,12(r2)
 80042b0:	e0bff615 	stw	r2,-40(fp)
 80042b4:	e0bffa17 	ldw	r2,-24(fp)
 80042b8:	10800217 	ldw	r2,8(r2)
 80042bc:	e0bff715 	stw	r2,-36(fp)
 80042c0:	e0bff717 	ldw	r2,-36(fp)
 80042c4:	e0fff617 	ldw	r3,-40(fp)
 80042c8:	10c00315 	stw	r3,12(r2)
 80042cc:	e0bff617 	ldw	r2,-40(fp)
 80042d0:	e0fff717 	ldw	r3,-36(fp)
 80042d4:	10c00215 	stw	r3,8(r2)
  }


  set_head(p, sz | PREV_INUSE);
 80042d8:	e0bff517 	ldw	r2,-44(fp)
 80042dc:	10c00054 	ori	r3,r2,1
 80042e0:	e0bff417 	ldw	r2,-48(fp)
 80042e4:	10c00115 	stw	r3,4(r2)
  set_foot(p, sz);
 80042e8:	e0fff417 	ldw	r3,-48(fp)
 80042ec:	e0bff517 	ldw	r2,-44(fp)
 80042f0:	1885883a 	add	r2,r3,r2
 80042f4:	e0fff517 	ldw	r3,-44(fp)
 80042f8:	10c00015 	stw	r3,0(r2)
  if (!islr)
 80042fc:	e0bff817 	ldw	r2,-32(fp)
 8004300:	10009a1e 	bne	r2,zero,800456c <_free_r+0x53c>
    frontlink(p, sz, idx, bck, fwd);  
 8004304:	e0bff517 	ldw	r2,-44(fp)
 8004308:	10808028 	cmpgeui	r2,r2,512
 800430c:	10002c1e 	bne	r2,zero,80043c0 <_free_r+0x390>
 8004310:	e0bff517 	ldw	r2,-44(fp)
 8004314:	1004d0fa 	srli	r2,r2,3
 8004318:	e0bffd15 	stw	r2,-12(fp)
 800431c:	00c20134 	movhi	r3,2052
 8004320:	18c3df04 	addi	r3,r3,3964
 8004324:	00820134 	movhi	r2,2052
 8004328:	1083df04 	addi	r2,r2,3964
 800432c:	11000117 	ldw	r4,4(r2)
 8004330:	e0bffd17 	ldw	r2,-12(fp)
 8004334:	1000010e 	bge	r2,zero,800433c <_free_r+0x30c>
 8004338:	108000c4 	addi	r2,r2,3
 800433c:	1005d0ba 	srai	r2,r2,2
 8004340:	100b883a 	mov	r5,r2
 8004344:	00800044 	movi	r2,1
 8004348:	1144983a 	sll	r2,r2,r5
 800434c:	2084b03a 	or	r2,r4,r2
 8004350:	18800115 	stw	r2,4(r3)
 8004354:	e0bffd17 	ldw	r2,-12(fp)
 8004358:	10800044 	addi	r2,r2,1
 800435c:	1085883a 	add	r2,r2,r2
 8004360:	1085883a 	add	r2,r2,r2
 8004364:	1087883a 	add	r3,r2,r2
 8004368:	00820134 	movhi	r2,2052
 800436c:	1083df04 	addi	r2,r2,3964
 8004370:	1885883a 	add	r2,r3,r2
 8004374:	10bffe04 	addi	r2,r2,-8
 8004378:	e0bff615 	stw	r2,-40(fp)
 800437c:	e0bff617 	ldw	r2,-40(fp)
 8004380:	10800217 	ldw	r2,8(r2)
 8004384:	e0bff715 	stw	r2,-36(fp)
 8004388:	e0bff417 	ldw	r2,-48(fp)
 800438c:	e0fff617 	ldw	r3,-40(fp)
 8004390:	10c00315 	stw	r3,12(r2)
 8004394:	e0bff417 	ldw	r2,-48(fp)
 8004398:	e0fff717 	ldw	r3,-36(fp)
 800439c:	10c00215 	stw	r3,8(r2)
 80043a0:	e0bff617 	ldw	r2,-40(fp)
 80043a4:	e0fff417 	ldw	r3,-48(fp)
 80043a8:	10c00215 	stw	r3,8(r2)
 80043ac:	e0bff617 	ldw	r2,-40(fp)
 80043b0:	10c00217 	ldw	r3,8(r2)
 80043b4:	e0bff717 	ldw	r2,-36(fp)
 80043b8:	10c00315 	stw	r3,12(r2)
 80043bc:	00006b06 	br	800456c <_free_r+0x53c>
 80043c0:	e0bff517 	ldw	r2,-44(fp)
 80043c4:	1004d27a 	srli	r2,r2,9
 80043c8:	1000031e 	bne	r2,zero,80043d8 <_free_r+0x3a8>
 80043cc:	e0bff517 	ldw	r2,-44(fp)
 80043d0:	1004d0fa 	srli	r2,r2,3
 80043d4:	00002906 	br	800447c <_free_r+0x44c>
 80043d8:	e0bff517 	ldw	r2,-44(fp)
 80043dc:	1004d27a 	srli	r2,r2,9
 80043e0:	10800168 	cmpgeui	r2,r2,5
 80043e4:	1000041e 	bne	r2,zero,80043f8 <_free_r+0x3c8>
 80043e8:	e0bff517 	ldw	r2,-44(fp)
 80043ec:	1004d1ba 	srli	r2,r2,6
 80043f0:	10800e04 	addi	r2,r2,56
 80043f4:	00002106 	br	800447c <_free_r+0x44c>
 80043f8:	e0bff517 	ldw	r2,-44(fp)
 80043fc:	1004d27a 	srli	r2,r2,9
 8004400:	10800568 	cmpgeui	r2,r2,21
 8004404:	1000041e 	bne	r2,zero,8004418 <_free_r+0x3e8>
 8004408:	e0bff517 	ldw	r2,-44(fp)
 800440c:	1004d27a 	srli	r2,r2,9
 8004410:	108016c4 	addi	r2,r2,91
 8004414:	00001906 	br	800447c <_free_r+0x44c>
 8004418:	e0bff517 	ldw	r2,-44(fp)
 800441c:	1004d27a 	srli	r2,r2,9
 8004420:	10801568 	cmpgeui	r2,r2,85
 8004424:	1000041e 	bne	r2,zero,8004438 <_free_r+0x408>
 8004428:	e0bff517 	ldw	r2,-44(fp)
 800442c:	1004d33a 	srli	r2,r2,12
 8004430:	10801b84 	addi	r2,r2,110
 8004434:	00001106 	br	800447c <_free_r+0x44c>
 8004438:	e0bff517 	ldw	r2,-44(fp)
 800443c:	1004d27a 	srli	r2,r2,9
 8004440:	10805568 	cmpgeui	r2,r2,341
 8004444:	1000041e 	bne	r2,zero,8004458 <_free_r+0x428>
 8004448:	e0bff517 	ldw	r2,-44(fp)
 800444c:	1004d3fa 	srli	r2,r2,15
 8004450:	10801dc4 	addi	r2,r2,119
 8004454:	00000906 	br	800447c <_free_r+0x44c>
 8004458:	e0bff517 	ldw	r2,-44(fp)
 800445c:	1004d27a 	srli	r2,r2,9
 8004460:	10815568 	cmpgeui	r2,r2,1365
 8004464:	1000041e 	bne	r2,zero,8004478 <_free_r+0x448>
 8004468:	e0bff517 	ldw	r2,-44(fp)
 800446c:	1004d4ba 	srli	r2,r2,18
 8004470:	10801f04 	addi	r2,r2,124
 8004474:	00000106 	br	800447c <_free_r+0x44c>
 8004478:	00801f84 	movi	r2,126
 800447c:	e0bffd15 	stw	r2,-12(fp)
 8004480:	e0bffd17 	ldw	r2,-12(fp)
 8004484:	10800044 	addi	r2,r2,1
 8004488:	1085883a 	add	r2,r2,r2
 800448c:	1085883a 	add	r2,r2,r2
 8004490:	1087883a 	add	r3,r2,r2
 8004494:	00820134 	movhi	r2,2052
 8004498:	1083df04 	addi	r2,r2,3964
 800449c:	1885883a 	add	r2,r3,r2
 80044a0:	10bffe04 	addi	r2,r2,-8
 80044a4:	e0bff615 	stw	r2,-40(fp)
 80044a8:	e0bff617 	ldw	r2,-40(fp)
 80044ac:	10800217 	ldw	r2,8(r2)
 80044b0:	e0bff715 	stw	r2,-36(fp)
 80044b4:	e0fff717 	ldw	r3,-36(fp)
 80044b8:	e0bff617 	ldw	r2,-40(fp)
 80044bc:	1880121e 	bne	r3,r2,8004508 <_free_r+0x4d8>
 80044c0:	00c20134 	movhi	r3,2052
 80044c4:	18c3df04 	addi	r3,r3,3964
 80044c8:	00820134 	movhi	r2,2052
 80044cc:	1083df04 	addi	r2,r2,3964
 80044d0:	11000117 	ldw	r4,4(r2)
 80044d4:	e0bffd17 	ldw	r2,-12(fp)
 80044d8:	1000010e 	bge	r2,zero,80044e0 <_free_r+0x4b0>
 80044dc:	108000c4 	addi	r2,r2,3
 80044e0:	1005d0ba 	srai	r2,r2,2
 80044e4:	100b883a 	mov	r5,r2
 80044e8:	00800044 	movi	r2,1
 80044ec:	1144983a 	sll	r2,r2,r5
 80044f0:	2084b03a 	or	r2,r4,r2
 80044f4:	18800115 	stw	r2,4(r3)
 80044f8:	00000f06 	br	8004538 <_free_r+0x508>
 80044fc:	e0bff717 	ldw	r2,-36(fp)
 8004500:	10800217 	ldw	r2,8(r2)
 8004504:	e0bff715 	stw	r2,-36(fp)
 8004508:	e0fff717 	ldw	r3,-36(fp)
 800450c:	e0bff617 	ldw	r2,-40(fp)
 8004510:	18800626 	beq	r3,r2,800452c <_free_r+0x4fc>
 8004514:	e0bff717 	ldw	r2,-36(fp)
 8004518:	10c00117 	ldw	r3,4(r2)
 800451c:	00bfff04 	movi	r2,-4
 8004520:	1884703a 	and	r2,r3,r2
 8004524:	e0fff517 	ldw	r3,-44(fp)
 8004528:	18bff436 	bltu	r3,r2,80044fc <_free_r+0x4cc>
 800452c:	e0bff717 	ldw	r2,-36(fp)
 8004530:	10800317 	ldw	r2,12(r2)
 8004534:	e0bff615 	stw	r2,-40(fp)
 8004538:	e0bff417 	ldw	r2,-48(fp)
 800453c:	e0fff617 	ldw	r3,-40(fp)
 8004540:	10c00315 	stw	r3,12(r2)
 8004544:	e0bff417 	ldw	r2,-48(fp)
 8004548:	e0fff717 	ldw	r3,-36(fp)
 800454c:	10c00215 	stw	r3,8(r2)
 8004550:	e0bff617 	ldw	r2,-40(fp)
 8004554:	e0fff417 	ldw	r3,-48(fp)
 8004558:	10c00215 	stw	r3,8(r2)
 800455c:	e0bff617 	ldw	r2,-40(fp)
 8004560:	10c00217 	ldw	r3,8(r2)
 8004564:	e0bff717 	ldw	r2,-36(fp)
 8004568:	10c00315 	stw	r3,12(r2)

  MALLOC_UNLOCK;
 800456c:	e13ffe17 	ldw	r4,-8(fp)
 8004570:	80052680 	call	8005268 <__malloc_unlock>
 8004574:	00000106 	br	800457c <_free_r+0x54c>
  mchunkptr bck;       /* misc temp for linking */
  mchunkptr fwd;       /* misc temp for linking */
  int       islr;      /* track whether merging with last_remainder */

  if (mem == 0)                              /* free(0) has no effect */
    return;
 8004578:	0001883a 	nop
    frontlink(p, sz, idx, bck, fwd);  

  MALLOC_UNLOCK;

#endif /* MALLOC_PROVIDED */
}
 800457c:	e037883a 	mov	sp,fp
 8004580:	dfc00117 	ldw	ra,4(sp)
 8004584:	df000017 	ldw	fp,0(sp)
 8004588:	dec00204 	addi	sp,sp,8
 800458c:	f800283a 	ret

08004590 <_malloc_trim_r>:
#if __STD_C
int malloc_trim(RARG size_t pad)
#else
int malloc_trim(RARG pad) RDECL size_t pad;
#endif
{
 8004590:	defff704 	addi	sp,sp,-36
 8004594:	dfc00815 	stw	ra,32(sp)
 8004598:	df000715 	stw	fp,28(sp)
 800459c:	df000704 	addi	fp,sp,28
 80045a0:	e13ffe15 	stw	r4,-8(fp)
 80045a4:	e17fff15 	stw	r5,-4(fp)
  long  top_size;        /* Amount of top-most memory */
  long  extra;           /* Amount to release */
  char* current_brk;     /* address returned by pre-check sbrk call */
  char* new_brk;         /* address returned by negative sbrk call */

  unsigned long pagesz = malloc_getpagesize;
 80045a8:	00840004 	movi	r2,4096
 80045ac:	e0bff915 	stw	r2,-28(fp)

  MALLOC_LOCK;
 80045b0:	e13ffe17 	ldw	r4,-8(fp)
 80045b4:	80052440 	call	8005244 <__malloc_lock>

  top_size = chunksize(top);
 80045b8:	00820134 	movhi	r2,2052
 80045bc:	1083df04 	addi	r2,r2,3964
 80045c0:	10800217 	ldw	r2,8(r2)
 80045c4:	10800117 	ldw	r2,4(r2)
 80045c8:	1007883a 	mov	r3,r2
 80045cc:	00bfff04 	movi	r2,-4
 80045d0:	1884703a 	and	r2,r3,r2
 80045d4:	e0bffa15 	stw	r2,-24(fp)
  extra = ((top_size - pad - MINSIZE + (pagesz-1)) / pagesz - 1) * pagesz;
 80045d8:	e0fffa17 	ldw	r3,-24(fp)
 80045dc:	e0bfff17 	ldw	r2,-4(fp)
 80045e0:	1887c83a 	sub	r3,r3,r2
 80045e4:	e0bff917 	ldw	r2,-28(fp)
 80045e8:	1885883a 	add	r2,r3,r2
 80045ec:	10bffbc4 	addi	r2,r2,-17
 80045f0:	e17ff917 	ldw	r5,-28(fp)
 80045f4:	1009883a 	mov	r4,r2
 80045f8:	8004c280 	call	8004c28 <__udivsi3>
 80045fc:	10ffffc4 	addi	r3,r2,-1
 8004600:	e0bff917 	ldw	r2,-28(fp)
 8004604:	1885383a 	mul	r2,r3,r2
 8004608:	e0bffb15 	stw	r2,-20(fp)

  if (extra < (long)pagesz)  /* Not enough memory to release */
 800460c:	e0bff917 	ldw	r2,-28(fp)
 8004610:	e0fffb17 	ldw	r3,-20(fp)
 8004614:	1880040e 	bge	r3,r2,8004628 <_malloc_trim_r+0x98>
  {
    MALLOC_UNLOCK;
 8004618:	e13ffe17 	ldw	r4,-8(fp)
 800461c:	80052680 	call	8005268 <__malloc_unlock>
    return 0;
 8004620:	0005883a 	mov	r2,zero
 8004624:	00004806 	br	8004748 <_malloc_trim_r+0x1b8>
  }

  else
  {
    /* Test to make sure no one else called sbrk */
    current_brk = (char*)(MORECORE (0));
 8004628:	000b883a 	mov	r5,zero
 800462c:	e13ffe17 	ldw	r4,-8(fp)
 8004630:	80035a80 	call	80035a8 <_sbrk_r>
 8004634:	e0bffc15 	stw	r2,-16(fp)
    if (current_brk != (char*)(top) + top_size)
 8004638:	00820134 	movhi	r2,2052
 800463c:	1083df04 	addi	r2,r2,3964
 8004640:	10c00217 	ldw	r3,8(r2)
 8004644:	e0bffa17 	ldw	r2,-24(fp)
 8004648:	1887883a 	add	r3,r3,r2
 800464c:	e0bffc17 	ldw	r2,-16(fp)
 8004650:	18800426 	beq	r3,r2,8004664 <_malloc_trim_r+0xd4>
    {
      MALLOC_UNLOCK;
 8004654:	e13ffe17 	ldw	r4,-8(fp)
 8004658:	80052680 	call	8005268 <__malloc_unlock>
      return 0;     /* Apparently we don't own memory; must fail */
 800465c:	0005883a 	mov	r2,zero
 8004660:	00003906 	br	8004748 <_malloc_trim_r+0x1b8>
    }

    else
    {
      new_brk = (char*)(MORECORE (-extra));
 8004664:	e0bffb17 	ldw	r2,-20(fp)
 8004668:	0085c83a 	sub	r2,zero,r2
 800466c:	100b883a 	mov	r5,r2
 8004670:	e13ffe17 	ldw	r4,-8(fp)
 8004674:	80035a80 	call	80035a8 <_sbrk_r>
 8004678:	e0bffd15 	stw	r2,-12(fp)
      
      if (new_brk == (char*)(MORECORE_FAILURE)) /* sbrk failed? */
 800467c:	e0bffd17 	ldw	r2,-12(fp)
 8004680:	10bfffd8 	cmpnei	r2,r2,-1
 8004684:	10001d1e 	bne	r2,zero,80046fc <_malloc_trim_r+0x16c>
      {
        /* Try to figure out what we have */
        current_brk = (char*)(MORECORE (0));
 8004688:	000b883a 	mov	r5,zero
 800468c:	e13ffe17 	ldw	r4,-8(fp)
 8004690:	80035a80 	call	80035a8 <_sbrk_r>
 8004694:	e0bffc15 	stw	r2,-16(fp)
        top_size = current_brk - (char*)top;
 8004698:	e0fffc17 	ldw	r3,-16(fp)
 800469c:	00820134 	movhi	r2,2052
 80046a0:	1083df04 	addi	r2,r2,3964
 80046a4:	10800217 	ldw	r2,8(r2)
 80046a8:	1885c83a 	sub	r2,r3,r2
 80046ac:	e0bffa15 	stw	r2,-24(fp)
        if (top_size >= (long)MINSIZE) /* if not, we are very very dead! */
 80046b0:	e0bffa17 	ldw	r2,-24(fp)
 80046b4:	10800410 	cmplti	r2,r2,16
 80046b8:	10000c1e 	bne	r2,zero,80046ec <_malloc_trim_r+0x15c>
        {
          sbrked_mem = current_brk - sbrk_base;
 80046bc:	e0bffc17 	ldw	r2,-16(fp)
 80046c0:	d0e00317 	ldw	r3,-32756(gp)
 80046c4:	10c7c83a 	sub	r3,r2,r3
 80046c8:	00820134 	movhi	r2,2052
 80046cc:	10908a04 	addi	r2,r2,16936
 80046d0:	10c00015 	stw	r3,0(r2)
          set_head(top, top_size | PREV_INUSE);
 80046d4:	00820134 	movhi	r2,2052
 80046d8:	1083df04 	addi	r2,r2,3964
 80046dc:	10800217 	ldw	r2,8(r2)
 80046e0:	e0fffa17 	ldw	r3,-24(fp)
 80046e4:	18c00054 	ori	r3,r3,1
 80046e8:	10c00115 	stw	r3,4(r2)
        }
        check_chunk(top);
	MALLOC_UNLOCK;
 80046ec:	e13ffe17 	ldw	r4,-8(fp)
 80046f0:	80052680 	call	8005268 <__malloc_unlock>
        return 0; 
 80046f4:	0005883a 	mov	r2,zero
 80046f8:	00001306 	br	8004748 <_malloc_trim_r+0x1b8>
      }

      else
      {
        /* Success. Adjust top accordingly. */
        set_head(top, (top_size - extra) | PREV_INUSE);
 80046fc:	00820134 	movhi	r2,2052
 8004700:	1083df04 	addi	r2,r2,3964
 8004704:	10800217 	ldw	r2,8(r2)
 8004708:	e13ffa17 	ldw	r4,-24(fp)
 800470c:	e0fffb17 	ldw	r3,-20(fp)
 8004710:	20c7c83a 	sub	r3,r4,r3
 8004714:	18c00054 	ori	r3,r3,1
 8004718:	10c00115 	stw	r3,4(r2)
        sbrked_mem -= extra;
 800471c:	00820134 	movhi	r2,2052
 8004720:	10908a04 	addi	r2,r2,16936
